ARM GAS  /var/folders/bw/wdbp2_bd0pn7gl5ybd33xbb80000gn/T//ccZ5cvgj.s 			page 1


   1              		.cpu cortex-m4
   2              		.eabi_attribute 27, 1
   3              		.eabi_attribute 28, 1
   4              		.eabi_attribute 20, 1
   5              		.eabi_attribute 21, 1
   6              		.eabi_attribute 23, 3
   7              		.eabi_attribute 24, 1
   8              		.eabi_attribute 25, 1
   9              		.eabi_attribute 26, 1
  10              		.eabi_attribute 30, 2
  11              		.eabi_attribute 34, 1
  12              		.eabi_attribute 18, 4
  13              		.file	"Asercom.c"
  14              		.text
  15              	.Ltext0:
  16              		.cfi_sections	.debug_frame
  17              		.section	.text.run_asercom,"ax",%progbits
  18              		.align	1
  19              		.p2align 4,,15
  20              		.global	run_asercom
  21              		.syntax unified
  22              		.thumb
  23              		.thumb_func
  24              		.fpu fpv4-sp-d16
  25              		.type	run_asercom, %function
  26              	run_asercom:
  27              	.LFB259:
  28              		.file 1 "../../lib/e-puck2_main-processor/src/epuck1x/Asercom.c"
  29              		.loc 1 59 0
  30              		.cfi_startproc
  31              		@ args = 0, pretend = 0, frame = 64
  32              		@ frame_needed = 0, uses_anonymous_args = 0
  33 0000 2DE9F04F 		push	{r4, r5, r6, r7, r8, r9, r10, fp, lr}
  34              		.cfi_def_cfa_offset 36
  35              		.cfi_offset 4, -36
  36              		.cfi_offset 5, -32
  37              		.cfi_offset 6, -28
  38              		.cfi_offset 7, -24
  39              		.cfi_offset 8, -20
  40              		.cfi_offset 9, -16
  41              		.cfi_offset 10, -12
  42              		.cfi_offset 11, -8
  43              		.cfi_offset 14, -4
  44 0004 2DED028B 		vpush.64	{d8}
  45              		.cfi_def_cfa_offset 44
  46              		.cfi_offset 80, -44
  47              		.cfi_offset 81, -40
  48 0008 AD4B     		ldr	r3, .L686
  49 000a 99B0     		sub	sp, sp, #100
  50              		.cfi_def_cfa_offset 144
  51              		.loc 1 59 0
  52 000c 1B68     		ldr	r3, [r3]
  53 000e 1793     		str	r3, [sp, #92]
  54              	.LVL0:
  55              		.loc 1 76 0
  56 0010 FFF7FEFF 		bl	e_init_motors
  57              	.LVL1:
ARM GAS  /var/folders/bw/wdbp2_bd0pn7gl5ybd33xbb80000gn/T//ccZ5cvgj.s 			page 2


  58              		.loc 1 80 0
  59 0014 FFF7FEFF 		bl	getselector
  60              	.LVL2:
  61 0018 AA4B     		ldr	r3, .L686+4
  62              		.loc 1 81 0
  63 001a 0A28     		cmp	r0, #10
  64              		.loc 1 80 0
  65 001c 1860     		str	r0, [r3]
  66              		.loc 1 81 0
  67 001e 74D0     		beq	.L2
  68              	.LVL3:
  69              		.loc 1 89 0
  70 0020 FFF7FEFF 		bl	e_i2cp_init
  71              	.LVL4:
  72              		.loc 1 105 0
  73 0024 A84C     		ldr	r4, .L686+8
  74              		.loc 1 107 0
  75 0026 A94E     		ldr	r6, .L686+12
  76              		.loc 1 108 0
  77 0028 A94F     		ldr	r7, .L686+16
  78              		.loc 1 110 0
  79 002a AA4B     		ldr	r3, .L686+20
  80              		.loc 1 109 0
  81 002c AA4D     		ldr	r5, .L686+24
  82              		.loc 1 105 0
  83 002e 1494     		str	r4, [sp, #80]
  84              		.loc 1 109 0
  85 0030 1595     		str	r5, [sp, #84]
  86              		.loc 1 110 0
  87 0032 1193     		str	r3, [sp, #68]
  88              		.loc 1 107 0
  89 0034 1296     		str	r6, [sp, #72]
  90              		.loc 1 108 0
  91 0036 1397     		str	r7, [sp, #76]
  92              		.loc 1 94 0
  93 0038 FFF7FEFF 		bl	e_init_remote_control
  94              	.LVL5:
  95              		.loc 1 102 0
  96 003c 0123     		movs	r3, #1
  97 003e A74A     		ldr	r2, .L686+28
  98              		.loc 1 109 0
  99 0040 A54D     		ldr	r5, .L686+24
 100              		.loc 1 102 0
 101 0042 4FF6FE71 		movw	r1, #65534
 102 0046 7F20     		movs	r0, #127
 103 0048 FFF7FEFF 		bl	ReadEE
 104              	.LVL6:
 105              		.loc 1 107 0
 106 004c 2823     		movs	r3, #40
 107 004e 3360     		str	r3, [r6]
 108              		.loc 1 108 0
 109 0050 3B60     		str	r3, [r7]
 110              		.loc 1 110 0
 111 0052 A04B     		ldr	r3, .L686+20
 112              		.loc 1 109 0
 113 0054 0821     		movs	r1, #8
 114              		.loc 1 110 0
ARM GAS  /var/folders/bw/wdbp2_bd0pn7gl5ybd33xbb80000gn/T//ccZ5cvgj.s 			page 3


 115 0056 4FF44862 		mov	r2, #3200
 116              		.loc 1 105 0
 117 005a 0120     		movs	r0, #1
 118              		.loc 1 109 0
 119 005c 2960     		str	r1, [r5]
 120              		.loc 1 110 0
 121 005e 1A60     		str	r2, [r3]
 122              		.loc 1 105 0
 123 0060 2060     		str	r0, [r4]
 124              		.loc 1 113 0
 125 0062 FFF7FEFF 		bl	e_poxxxx_init_cam
 126              	.LVL7:
 127              		.loc 1 114 0
 128 0066 2D68     		ldr	r5, [r5]
 129 0068 3268     		ldr	r2, [r6]
 130 006a 3B68     		ldr	r3, [r7]
 131 006c 2468     		ldr	r4, [r4]
 132 006e 0294     		str	r4, [sp, #8]
 133 0070 02FB05F2 		mul	r2, r2, r5
 134 0074 03FB05F3 		mul	r3, r3, r5
 135 0078 C3F5F071 		rsb	r1, r3, #480
 136 007c C2F52070 		rsb	r0, r2, #640
 137 0080 01EBD171 		add	r1, r1, r1, lsr #31
 138 0084 00EBD070 		add	r0, r0, r0, lsr #31
 139 0088 4910     		asrs	r1, r1, #1
 140 008a 0195     		str	r5, [sp, #4]
 141 008c 0095     		str	r5, [sp]
 142 008e 4010     		asrs	r0, r0, #1
 143 0090 FFF7FEFF 		bl	e_poxxxx_config_cam
 144              	.LVL8:
 145              		.loc 1 115 0
 146 0094 FFF7FEFF 		bl	e_poxxxx_write_cam_registers
 147              	.LVL9:
 148              		.loc 1 119 0
 149 0098 FFF7FEFF 		bl	e_acc_calibr
 150              	.LVL10:
 151              		.loc 1 120 0
 152 009c 5821     		movs	r1, #88
 153 009e 9048     		ldr	r0, .L686+32
 154 00a0 FFF7FEFF 		bl	e_send_uart1_char
 155              	.LVL11:
 156              	.L3:
 157              		.loc 1 120 0 is_stmt 0 discriminator 2
 158 00a4 FFF7FEFF 		bl	e_uart1_sending
 159              	.LVL12:
 160 00a8 0028     		cmp	r0, #0
 161 00aa FBD1     		bne	.L3
 162              		.loc 1 84 0 is_stmt 1
 163 00ac 0123     		movs	r3, #1
 164 00ae 0993     		str	r3, [sp, #36]
 165              	.LVL13:
 166              	.L6:
 167 00b0 DFF83882 		ldr	r8, .L686+44
 168 00b4 8B4F     		ldr	r7, .L686+36
 169 00b6 DFF84892 		ldr	r9, .L686+64
 170 00ba DFF848A2 		ldr	r10, .L686+68
 171 00be 4FF0000B 		mov	fp, #0
ARM GAS  /var/folders/bw/wdbp2_bd0pn7gl5ybd33xbb80000gn/T//ccZ5cvgj.s 			page 4


 172              	.LVL14:
 173              	.L4:
 174              		.loc 1 133 0
 175 00c2 099B     		ldr	r3, [sp, #36]
 176 00c4 002B     		cmp	r3, #0
 177 00c6 00F0A980 		beq	.L626
 178              	.L668:
 179              		.loc 1 134 0
 180 00ca 864D     		ldr	r5, .L686+36
 181              	.LVL15:
 182              	.L8:
 183 00cc 2846     		mov	r0, r5
 184 00ce FFF7FEFF 		bl	e_getchar_uart1
 185              	.LVL16:
 186 00d2 0446     		mov	r4, r0
 187 00d4 0028     		cmp	r0, #0
 188 00d6 44D1     		bne	.L26
 189              		.loc 1 137 0
 190 00d8 FFF7FEFF 		bl	e_get_data
 191              	.LVL17:
 192 00dc 0646     		mov	r6, r0
 193              	.LVL18:
 194              		.loc 1 138 0
 195 00de FFF7FEFF 		bl	e_get_address
 196              	.LVL19:
 197              		.loc 1 139 0
 198 00e2 10F0F70F 		tst	r0, #247
 199 00e6 F1D1     		bne	.L8
 200              		.loc 1 139 0 is_stmt 0 discriminator 3
 201 00e8 B345     		cmp	fp, r6
 202 00ea EFD0     		beq	.L8
 203              		.loc 1 140 0 is_stmt 1
 204 00ec 092E     		cmp	r6, #9
 205 00ee 01F27683 		bhi	.L11
 206 00f2 DFE816F0 		tbh	[pc, r6, lsl #1]
 207              	.L13:
 208 00f6 3C01     		.2byte	(.L12-.L13)/2
 209 00f8 3301     		.2byte	(.L14-.L13)/2
 210 00fa 2C01     		.2byte	(.L15-.L13)/2
 211 00fc 2301     		.2byte	(.L16-.L13)/2
 212 00fe 2001     		.2byte	(.L17-.L13)/2
 213 0100 1A01     		.2byte	(.L18-.L13)/2
 214 0102 1701     		.2byte	(.L19-.L13)/2
 215 0104 1001     		.2byte	(.L20-.L13)/2
 216 0106 0901     		.2byte	(.L21-.L13)/2
 217 0108 D500     		.2byte	(.L22-.L13)/2
 218              	.LVL20:
 219              		.p2align 1
 220              	.L2:
 221              		.loc 1 94 0
 222 010a FFF7FEFF 		bl	e_init_remote_control
 223              	.LVL21:
 224              		.loc 1 105 0
 225 010e 6E4C     		ldr	r4, .L686+8
 226              		.loc 1 102 0
 227 0110 724A     		ldr	r2, .L686+28
 228              		.loc 1 107 0
ARM GAS  /var/folders/bw/wdbp2_bd0pn7gl5ybd33xbb80000gn/T//ccZ5cvgj.s 			page 5


 229 0112 6E4D     		ldr	r5, .L686+12
 230              		.loc 1 108 0
 231 0114 6E4E     		ldr	r6, .L686+16
 232              		.loc 1 109 0
 233 0116 704F     		ldr	r7, .L686+24
 234              		.loc 1 105 0
 235 0118 1494     		str	r4, [sp, #80]
 236              		.loc 1 102 0
 237 011a 0123     		movs	r3, #1
 238 011c 4FF6FE71 		movw	r1, #65534
 239 0120 7F20     		movs	r0, #127
 240              		.loc 1 107 0
 241 0122 1295     		str	r5, [sp, #72]
 242              		.loc 1 108 0
 243 0124 1396     		str	r6, [sp, #76]
 244              		.loc 1 109 0
 245 0126 1597     		str	r7, [sp, #84]
 246              		.loc 1 102 0
 247 0128 FFF7FEFF 		bl	ReadEE
 248              	.LVL22:
 249              		.loc 1 107 0
 250 012c 2823     		movs	r3, #40
 251              		.loc 1 110 0
 252 012e 6949     		ldr	r1, .L686+20
 253              		.loc 1 107 0
 254 0130 2B60     		str	r3, [r5]
 255              		.loc 1 105 0
 256 0132 0122     		movs	r2, #1
 257 0134 2260     		str	r2, [r4]
 258              		.loc 1 108 0
 259 0136 3360     		str	r3, [r6]
 260              		.loc 1 109 0
 261 0138 0822     		movs	r2, #8
 262              		.loc 1 110 0
 263 013a 4FF44863 		mov	r3, #3200
 264 013e 1191     		str	r1, [sp, #68]
 265              		.loc 1 109 0
 266 0140 3A60     		str	r2, [r7]
 267              		.loc 1 110 0
 268 0142 0B60     		str	r3, [r1]
 269              		.loc 1 124 0
 270 0144 FFF7FEFF 		bl	isEpuckVersion1_3
 271              	.LVL23:
 272 0148 08B9     		cbnz	r0, .L352
 273              		.loc 1 125 0
 274 014a FFF7FEFF 		bl	e_acc_calibr
 275              	.LVL24:
 276              	.L352:
 277              		.loc 1 127 0
 278 014e 5821     		movs	r1, #88
 279 0150 6348     		ldr	r0, .L686+32
 280 0152 FFF7FEFF 		bl	e_send_uart2_char
 281              	.LVL25:
 282              	.L5:
 283              		.loc 1 127 0 is_stmt 0 discriminator 2
 284 0156 FFF7FEFF 		bl	e_uart2_sending
 285              	.LVL26:
ARM GAS  /var/folders/bw/wdbp2_bd0pn7gl5ybd33xbb80000gn/T//ccZ5cvgj.s 			page 6


 286 015a 0990     		str	r0, [sp, #36]
 287 015c 0028     		cmp	r0, #0
 288 015e FAD1     		bne	.L5
 289 0160 A6E7     		b	.L6
 290              	.LVL27:
 291              	.L26:
 292              		.loc 1 259 0 is_stmt 1
 293 0162 3B78     		ldrb	r3, [r7]	@ zero_extendqisi2
 294 0164 1A06     		lsls	r2, r3, #24
 295 0166 00F16181 		bmi	.L664
 296              		.loc 1 598 0
 297 016a 002B     		cmp	r3, #0
 298 016c A9D0     		beq	.L4
 299              		.loc 1 599 0
 300 016e 099A     		ldr	r2, [sp, #36]
 301              		.loc 1 600 0
 302 0170 5C4C     		ldr	r4, .L686+36
 303              		.loc 1 599 0
 304 0172 002A     		cmp	r2, #0
 305 0174 76D0     		beq	.L145
 306 0176 03E0     		b	.L144
 307              	.L146:
 308              		.loc 1 600 0 discriminator 4
 309 0178 2046     		mov	r0, r4
 310 017a FFF7FEFF 		bl	e_getchar_uart1
 311              	.LVL28:
 312 017e 3B78     		ldrb	r3, [r7]	@ zero_extendqisi2
 313              	.L144:
 314              		.loc 1 600 0 is_stmt 0 discriminator 1
 315 0180 0A2B     		cmp	r3, #10
 316 0182 F9D0     		beq	.L146
 317              		.loc 1 600 0 discriminator 3
 318 0184 0D2B     		cmp	r3, #13
 319 0186 F7D0     		beq	.L146
 320              		.loc 1 605 0 is_stmt 1
 321 0188 0122     		movs	r2, #1
 322              		.loc 1 604 0
 323 018a 88F80030 		strb	r3, [r8]
 324              		.loc 1 605 0
 325 018e C9F80020 		str	r2, [r9]
 326              		.loc 1 607 0
 327 0192 544C     		ldr	r4, .L686+36
 328 0194 04E0     		b	.L155
 329              	.L665:
 330 0196 3B78     		ldrb	r3, [r7]	@ zero_extendqisi2
 331              		.loc 1 608 0
 332 0198 0A2B     		cmp	r3, #10
 333 019a 11D0     		beq	.L156
 334              	.L152:
 335              		.loc 1 608 0 is_stmt 0 discriminator 1
 336 019c 0D2B     		cmp	r3, #13
 337 019e 0FD0     		beq	.L156
 338              	.L155:
 339              		.loc 1 607 0 is_stmt 1
 340 01a0 2046     		mov	r0, r4
 341 01a2 FFF7FEFF 		bl	e_getchar_uart1
 342              	.LVL29:
ARM GAS  /var/folders/bw/wdbp2_bd0pn7gl5ybd33xbb80000gn/T//ccZ5cvgj.s 			page 7


 343 01a6 0028     		cmp	r0, #0
 344 01a8 F5D0     		beq	.L665
 345              		.loc 1 607 0 is_stmt 0 discriminator 1
 346 01aa D9F80020 		ldr	r2, [r9]
 347 01ae 3B78     		ldrb	r3, [r7]	@ zero_extendqisi2
 348 01b0 08F80230 		strb	r3, [r8, r2]
 349              		.loc 1 608 0 is_stmt 1 discriminator 1
 350 01b4 0A2B     		cmp	r3, #10
 351              		.loc 1 607 0 discriminator 1
 352 01b6 02F10102 		add	r2, r2, #1
 353 01ba C9F80020 		str	r2, [r9]
 354              		.loc 1 608 0 discriminator 1
 355 01be EDD1     		bne	.L152
 356              	.L156:
 357              		.loc 1 613 0
 358 01c0 D9F80030 		ldr	r3, [r9]
 359 01c4 0022     		movs	r2, #0
 360 01c6 08F80320 		strb	r2, [r8, r3]
 361              		.loc 1 615 0
 362 01ca 98F80040 		ldrb	r4, [r8]	@ zero_extendqisi2
 363              		.loc 1 613 0
 364 01ce 0133     		adds	r3, r3, #1
 365              		.loc 1 615 0
 366 01d0 622C     		cmp	r4, #98
 367              		.loc 1 613 0
 368 01d2 C9F80030 		str	r3, [r9]
 369              		.loc 1 615 0
 370 01d6 01F02384 		beq	.L154
 371              		.loc 1 615 0 is_stmt 0 discriminator 1
 372 01da 672C     		cmp	r4, #103
 373 01dc 40F0DE84 		bne	.L666
 374              	.L160:
 375              	.LBB2:
 376              		.loc 1 701 0 is_stmt 1
 377 01e0 099B     		ldr	r3, [sp, #36]
 378 01e2 002B     		cmp	r3, #0
 379 01e4 01F04384 		beq	.L215
 380              		.loc 1 701 0 is_stmt 0 discriminator 1
 381 01e8 FFF7FEFF 		bl	isEpuckVersion1_3
 382              	.LVL30:
 383 01ec 0028     		cmp	r0, #0
 384 01ee 41F0A886 		bne	.L667
 385              		.loc 1 704 0 is_stmt 1
 386 01f2 3D4B     		ldr	r3, .L686+40
 387 01f4 93E80700 		ldm	r3, {r0, r1, r2}
 388 01f8 3C4B     		ldr	r3, .L686+44
 389 01fa 03C3     		stmia	r3!, {r0, r1}
 390 01fc 1A80     		strh	r2, [r3]	@ movhi
 391              	.L353:
 392              		.loc 1 707 0
 393 01fe 3B48     		ldr	r0, .L686+44
 394 0200 FFF7FEFF 		bl	strlen
 395              	.LVL31:
 396 0204 0146     		mov	r1, r0
 397 0206 3948     		ldr	r0, .L686+44
 398 0208 FFF7FEFF 		bl	e_send_uart1_char
 399              	.LVL32:
ARM GAS  /var/folders/bw/wdbp2_bd0pn7gl5ybd33xbb80000gn/T//ccZ5cvgj.s 			page 8


 400              	.L217:
 401              		.loc 1 707 0 is_stmt 0 discriminator 2
 402 020c FFF7FEFF 		bl	e_uart1_sending
 403              	.LVL33:
 404 0210 0028     		cmp	r0, #0
 405 0212 FBD1     		bne	.L217
 406              	.LBE2:
 407              		.loc 1 133 0 is_stmt 1
 408 0214 099B     		ldr	r3, [sp, #36]
 409 0216 002B     		cmp	r3, #0
 410 0218 7FF457AF 		bne	.L668
 411              	.LVL34:
 412              	.L626:
 413              		.loc 1 196 0
 414 021c 314D     		ldr	r5, .L686+36
 415              	.L9:
 416              	.LVL35:
 417 021e 2846     		mov	r0, r5
 418 0220 FFF7FEFF 		bl	e_getchar_uart2
 419              	.LVL36:
 420 0224 0446     		mov	r4, r0
 421 0226 0028     		cmp	r0, #0
 422 0228 9BD1     		bne	.L26
 423              		.loc 1 199 0
 424 022a FFF7FEFF 		bl	e_get_data
 425              	.LVL37:
 426 022e 0646     		mov	r6, r0
 427              	.LVL38:
 428              		.loc 1 200 0
 429 0230 FFF7FEFF 		bl	e_get_address
 430              	.LVL39:
 431              		.loc 1 201 0
 432 0234 10F0F70F 		tst	r0, #247
 433 0238 F1D1     		bne	.L9
 434              		.loc 1 201 0 is_stmt 0 discriminator 3
 435 023a B345     		cmp	fp, r6
 436 023c EFD0     		beq	.L9
 437              		.loc 1 202 0 is_stmt 1
 438 023e 092E     		cmp	r6, #9
 439 0240 01F2C682 		bhi	.L28
 440 0244 DFE816F0 		tbh	[pc, r6, lsl #1]
 441              	.L30:
 442 0248 E400     		.2byte	(.L29-.L30)/2
 443 024a DB00     		.2byte	(.L31-.L30)/2
 444 024c D400     		.2byte	(.L32-.L30)/2
 445 024e CB00     		.2byte	(.L33-.L30)/2
 446 0250 C800     		.2byte	(.L34-.L30)/2
 447 0252 C200     		.2byte	(.L35-.L30)/2
 448 0254 BF00     		.2byte	(.L36-.L30)/2
 449 0256 B800     		.2byte	(.L37-.L30)/2
 450 0258 B100     		.2byte	(.L38-.L30)/2
 451 025a A100     		.2byte	(.L39-.L30)/2
 452              	.LVL40:
 453              		.p2align 1
 454              	.L148:
 455              		.loc 1 602 0 discriminator 4
 456 025c 2046     		mov	r0, r4
ARM GAS  /var/folders/bw/wdbp2_bd0pn7gl5ybd33xbb80000gn/T//ccZ5cvgj.s 			page 9


 457 025e FFF7FEFF 		bl	e_getchar_uart2
 458              	.LVL41:
 459 0262 3B78     		ldrb	r3, [r7]	@ zero_extendqisi2
 460              	.L145:
 461              		.loc 1 602 0 is_stmt 0 discriminator 1
 462 0264 0A2B     		cmp	r3, #10
 463 0266 F9D0     		beq	.L148
 464              		.loc 1 602 0 discriminator 3
 465 0268 0D2B     		cmp	r3, #13
 466 026a F7D0     		beq	.L148
 467              		.loc 1 605 0 is_stmt 1
 468 026c 0122     		movs	r2, #1
 469              		.loc 1 604 0
 470 026e 88F80030 		strb	r3, [r8]
 471              		.loc 1 605 0
 472 0272 C9F80020 		str	r2, [r9]
 473              		.loc 1 610 0
 474 0276 1B4C     		ldr	r4, .L686+36
 475 0278 04E0     		b	.L159
 476              	.L669:
 477 027a 3B78     		ldrb	r3, [r7]	@ zero_extendqisi2
 478              	.L158:
 479              		.loc 1 611 0
 480 027c 0A2B     		cmp	r3, #10
 481 027e 9FD0     		beq	.L156
 482              		.loc 1 611 0 is_stmt 0 discriminator 1
 483 0280 0D2B     		cmp	r3, #13
 484 0282 9DD0     		beq	.L156
 485              	.L159:
 486              		.loc 1 610 0 is_stmt 1
 487 0284 2046     		mov	r0, r4
 488 0286 FFF7FEFF 		bl	e_getchar_uart2
 489              	.LVL42:
 490 028a 0028     		cmp	r0, #0
 491 028c F5D0     		beq	.L669
 492              		.loc 1 610 0 is_stmt 0 discriminator 1
 493 028e D9F80020 		ldr	r2, [r9]
 494 0292 3B78     		ldrb	r3, [r7]	@ zero_extendqisi2
 495 0294 08F80230 		strb	r3, [r8, r2]
 496 0298 0132     		adds	r2, r2, #1
 497 029a C9F80020 		str	r2, [r9]
 498 029e EDE7     		b	.L158
 499              	.LVL43:
 500              	.L22:
 501              		.loc 1 174 0 is_stmt 1
 502 02a0 134B     		ldr	r3, .L686+48
 503              	.L650:
 504              		.loc 1 175 0
 505 02a2 144A     		ldr	r2, .L686+52
 506 02a4 1449     		ldr	r1, .L686+56
 507 02a6 1160     		str	r1, [r2]
 508              		.loc 1 174 0
 509 02a8 144A     		ldr	r2, .L686+60
 510              		.loc 1 176 0
 511 02aa 0C46     		mov	r4, r1
 512              		.loc 1 174 0
 513 02ac 1360     		str	r3, [r2]
ARM GAS  /var/folders/bw/wdbp2_bd0pn7gl5ybd33xbb80000gn/T//ccZ5cvgj.s 			page 10


 514              	.LVL44:
 515              	.L23:
 516              		.loc 1 188 0
 517 02ae 2046     		mov	r0, r4
 518 02b0 FFF7FEFF 		bl	e_set_speed_left
 519              	.LVL45:
 520              		.loc 1 189 0
 521 02b4 114B     		ldr	r3, .L686+60
 522 02b6 1868     		ldr	r0, [r3]
 523 02b8 FFF7FEFF 		bl	e_set_speed_right
 524              	.LVL46:
 525 02bc B346     		mov	fp, r6
 526 02be 05E7     		b	.L8
 527              	.L687:
 528              		.align	2
 529              	.L686:
 530 02c0 00000000 		.word	__stack_chk_guard
 531 02c4 00000000 		.word	.LANCHOR0
 532 02c8 00000000 		.word	.LANCHOR2
 533 02cc 00000000 		.word	.LANCHOR3
 534 02d0 00000000 		.word	.LANCHOR4
 535 02d4 00000000 		.word	.LANCHOR6
 536 02d8 00000000 		.word	.LANCHOR5
 537 02dc 00000000 		.word	.LANCHOR1
 538 02e0 00000000 		.word	.LC0
 539 02e4 00000000 		.word	.LANCHOR10
 540 02e8 6C0A0000 		.word	.LC92
 541 02ec 00000000 		.word	buffer
 542 02f0 D4FEFFFF 		.word	-300
 543 02f4 00000000 		.word	.LANCHOR8
 544 02f8 A8FDFFFF 		.word	-600
 545 02fc 00000000 		.word	.LANCHOR7
 546 0300 00000000 		.word	.LANCHOR11
 547 0304 00000000 		.word	.LANCHOR22
 548              	.LVL47:
 549              	.L21:
 550              		.loc 1 170 0
 551 0308 9E4A     		ldr	r2, .L688
 552 030a 9F4B     		ldr	r3, .L688+4
 553 030c 1360     		str	r3, [r2]
 554              		.loc 1 171 0
 555 030e 9F4A     		ldr	r2, .L688+8
 556              		.loc 1 172 0
 557 0310 1C46     		mov	r4, r3
 558              		.loc 1 171 0
 559 0312 1360     		str	r3, [r2]
 560              		.loc 1 172 0
 561 0314 CBE7     		b	.L23
 562              	.L20:
 563              		.loc 1 167 0
 564 0316 9E4C     		ldr	r4, .L688+12
 565              	.L651:
 566              		.loc 1 166 0
 567 0318 9A4B     		ldr	r3, .L688
 568 031a 9B4A     		ldr	r2, .L688+4
 569 031c 1A60     		str	r2, [r3]
 570              		.loc 1 167 0
ARM GAS  /var/folders/bw/wdbp2_bd0pn7gl5ybd33xbb80000gn/T//ccZ5cvgj.s 			page 11


 571 031e 9B4B     		ldr	r3, .L688+8
 572 0320 1C60     		str	r4, [r3]
 573              		.loc 1 168 0
 574 0322 C4E7     		b	.L23
 575              	.L19:
 576              		.loc 1 163 0
 577 0324 4FF41674 		mov	r4, #600
 578 0328 F6E7     		b	.L651
 579              	.L18:
 580              		.loc 1 158 0
 581 032a 964A     		ldr	r2, .L688
 582 032c 0023     		movs	r3, #0
 583 032e 1360     		str	r3, [r2]
 584              		.loc 1 159 0
 585 0330 964A     		ldr	r2, .L688+8
 586 0332 1360     		str	r3, [r2]
 587              		.loc 1 160 0
 588 0334 BBE7     		b	.L23
 589              	.L17:
 590              		.loc 1 154 0
 591 0336 4FF41673 		mov	r3, #600
 592 033a B2E7     		b	.L650
 593              	.L16:
 594              		.loc 1 150 0
 595 033c 914A     		ldr	r2, .L688
 596 033e 4FF49673 		mov	r3, #300
 597 0342 1360     		str	r3, [r2]
 598              		.loc 1 151 0
 599 0344 914B     		ldr	r3, .L688+8
 600 0346 4FF41674 		mov	r4, #600
 601 034a 1C60     		str	r4, [r3]
 602              		.loc 1 152 0
 603 034c AFE7     		b	.L23
 604              	.L15:
 605              		.loc 1 146 0
 606 034e 8D4B     		ldr	r3, .L688
 607 0350 4FF41674 		mov	r4, #600
 608 0354 1C60     		str	r4, [r3]
 609              		.loc 1 147 0
 610 0356 8D4B     		ldr	r3, .L688+8
 611 0358 1C60     		str	r4, [r3]
 612              		.loc 1 148 0
 613 035a A8E7     		b	.L23
 614              	.L14:
 615              		.loc 1 142 0
 616 035c 894A     		ldr	r2, .L688
 617 035e 4FF41673 		mov	r3, #600
 618 0362 1360     		str	r3, [r2]
 619              		.loc 1 143 0
 620 0364 894B     		ldr	r3, .L688+8
 621 0366 4FF49674 		mov	r4, #300
 622 036a 1C60     		str	r4, [r3]
 623              		.loc 1 144 0
 624 036c 9FE7     		b	.L23
 625              	.L12:
 626              		.loc 1 178 0
 627 036e 894B     		ldr	r3, .L688+16
ARM GAS  /var/folders/bw/wdbp2_bd0pn7gl5ybd33xbb80000gn/T//ccZ5cvgj.s 			page 12


 628 0370 1B78     		ldrb	r3, [r3]	@ zero_extendqisi2
 629 0372 002B     		cmp	r3, #0
 630 0374 01F0BE82 		beq	.L670
 631              	.LVL48:
 632              	.L24:
 633              		.loc 1 182 0
 634 0378 41F65071 		movw	r1, #8016
 635 037c 42F61430 		movw	r0, #11028
 636 0380 FFF7FEFF 		bl	e_play_sound
 637              	.LVL49:
 638 0384 814B     		ldr	r3, .L688+8
 639 0386 1C68     		ldr	r4, [r3]
 640              		.loc 1 183 0
 641 0388 91E7     		b	.L23
 642              	.LVL50:
 643              	.L39:
 644              		.loc 1 236 0
 645 038a 814B     		ldr	r3, .L688+12
 646              	.L652:
 647              		.loc 1 237 0
 648 038c 7F4A     		ldr	r2, .L688+8
 649 038e 7E49     		ldr	r1, .L688+4
 650 0390 1160     		str	r1, [r2]
 651              		.loc 1 236 0
 652 0392 7C4A     		ldr	r2, .L688
 653              		.loc 1 238 0
 654 0394 0C46     		mov	r4, r1
 655              		.loc 1 236 0
 656 0396 1360     		str	r3, [r2]
 657              	.LVL51:
 658              	.L40:
 659              		.loc 1 250 0
 660 0398 2046     		mov	r0, r4
 661 039a FFF7FEFF 		bl	e_set_speed_left
 662              	.LVL52:
 663              		.loc 1 251 0
 664 039e 794B     		ldr	r3, .L688
 665 03a0 1868     		ldr	r0, [r3]
 666 03a2 FFF7FEFF 		bl	e_set_speed_right
 667              	.LVL53:
 668 03a6 B346     		mov	fp, r6
 669 03a8 39E7     		b	.L9
 670              	.LVL54:
 671              	.L38:
 672              		.loc 1 232 0
 673 03aa 764A     		ldr	r2, .L688
 674 03ac 764B     		ldr	r3, .L688+4
 675 03ae 1360     		str	r3, [r2]
 676              		.loc 1 233 0
 677 03b0 764A     		ldr	r2, .L688+8
 678              		.loc 1 234 0
 679 03b2 1C46     		mov	r4, r3
 680              		.loc 1 233 0
 681 03b4 1360     		str	r3, [r2]
 682              		.loc 1 234 0
 683 03b6 EFE7     		b	.L40
 684              	.L37:
ARM GAS  /var/folders/bw/wdbp2_bd0pn7gl5ybd33xbb80000gn/T//ccZ5cvgj.s 			page 13


 685              		.loc 1 229 0
 686 03b8 754C     		ldr	r4, .L688+12
 687              	.L653:
 688              		.loc 1 228 0
 689 03ba 724B     		ldr	r3, .L688
 690 03bc 724A     		ldr	r2, .L688+4
 691 03be 1A60     		str	r2, [r3]
 692              		.loc 1 229 0
 693 03c0 724B     		ldr	r3, .L688+8
 694 03c2 1C60     		str	r4, [r3]
 695              		.loc 1 230 0
 696 03c4 E8E7     		b	.L40
 697              	.L36:
 698              		.loc 1 225 0
 699 03c6 4FF41674 		mov	r4, #600
 700 03ca F6E7     		b	.L653
 701              	.L35:
 702              		.loc 1 220 0
 703 03cc 6D4A     		ldr	r2, .L688
 704 03ce 0023     		movs	r3, #0
 705 03d0 1360     		str	r3, [r2]
 706              		.loc 1 221 0
 707 03d2 6E4A     		ldr	r2, .L688+8
 708 03d4 1360     		str	r3, [r2]
 709              		.loc 1 222 0
 710 03d6 DFE7     		b	.L40
 711              	.L34:
 712              		.loc 1 216 0
 713 03d8 4FF41673 		mov	r3, #600
 714 03dc D6E7     		b	.L652
 715              	.L33:
 716              		.loc 1 212 0
 717 03de 694A     		ldr	r2, .L688
 718 03e0 4FF49673 		mov	r3, #300
 719 03e4 1360     		str	r3, [r2]
 720              		.loc 1 213 0
 721 03e6 694B     		ldr	r3, .L688+8
 722 03e8 4FF41674 		mov	r4, #600
 723 03ec 1C60     		str	r4, [r3]
 724              		.loc 1 214 0
 725 03ee D3E7     		b	.L40
 726              	.L32:
 727              		.loc 1 208 0
 728 03f0 644B     		ldr	r3, .L688
 729 03f2 4FF41674 		mov	r4, #600
 730 03f6 1C60     		str	r4, [r3]
 731              		.loc 1 209 0
 732 03f8 644B     		ldr	r3, .L688+8
 733 03fa 1C60     		str	r4, [r3]
 734              		.loc 1 210 0
 735 03fc CCE7     		b	.L40
 736              	.L31:
 737              		.loc 1 204 0
 738 03fe 614A     		ldr	r2, .L688
 739 0400 4FF41673 		mov	r3, #600
 740 0404 1360     		str	r3, [r2]
 741              		.loc 1 205 0
ARM GAS  /var/folders/bw/wdbp2_bd0pn7gl5ybd33xbb80000gn/T//ccZ5cvgj.s 			page 14


 742 0406 614B     		ldr	r3, .L688+8
 743 0408 4FF49674 		mov	r4, #300
 744 040c 1C60     		str	r4, [r3]
 745              		.loc 1 206 0
 746 040e C3E7     		b	.L40
 747              	.L29:
 748              		.loc 1 240 0
 749 0410 604B     		ldr	r3, .L688+16
 750 0412 1B78     		ldrb	r3, [r3]	@ zero_extendqisi2
 751 0414 002B     		cmp	r3, #0
 752 0416 01F06682 		beq	.L671
 753              	.LVL55:
 754              	.L41:
 755              		.loc 1 244 0
 756 041a 41F65071 		movw	r1, #8016
 757 041e 42F61430 		movw	r0, #11028
 758 0422 FFF7FEFF 		bl	e_play_sound
 759              	.LVL56:
 760 0426 594B     		ldr	r3, .L688+8
 761 0428 1C68     		ldr	r4, [r3]
 762              		.loc 1 245 0
 763 042a B5E7     		b	.L40
 764              	.LVL57:
 765              	.L664:
 766              		.loc 1 260 0
 767 042c 0022     		movs	r2, #0
 768 042e CDF828B0 		str	fp, [sp, #40]
 769              		.loc 1 577 0
 770 0432 594E     		ldr	r6, .L688+20
 771              		.loc 1 295 0
 772 0434 9FED598A 		vldr.32	s16, .L688+24
 773              		.loc 1 260 0
 774 0438 DDF824B0 		ldr	fp, [sp, #36]
 775              	.LVL58:
 776 043c C9F80020 		str	r2, [r9]
 777              	.L137:
 778              		.loc 1 262 0
 779 0440 5B42     		negs	r3, r3
 780 0442 DBB2     		uxtb	r3, r3
 781 0444 413B     		subs	r3, r3, #65
 782 0446 362B     		cmp	r3, #54
 783 0448 6AD8     		bhi	.L44
 784 044a DFE813F0 		tbh	[pc, r3, lsl #1]
 785              	.L46:
 786 044e 7102     		.2byte	(.L45-.L46)/2
 787 0450 6900     		.2byte	(.L44-.L46)/2
 788 0452 6900     		.2byte	(.L44-.L46)/2
 789 0454 0F02     		.2byte	(.L47-.L46)/2
 790 0456 DA01     		.2byte	(.L48-.L46)/2
 791 0458 6900     		.2byte	(.L44-.L46)/2
 792 045a 6900     		.2byte	(.L44-.L46)/2
 793 045c 6900     		.2byte	(.L44-.L46)/2
 794 045e ED01     		.2byte	(.L49-.L46)/2
 795 0460 6900     		.2byte	(.L44-.L46)/2
 796 0462 6900     		.2byte	(.L44-.L46)/2
 797 0464 5A01     		.2byte	(.L50-.L46)/2
 798 0466 8F01     		.2byte	(.L51-.L46)/2
ARM GAS  /var/folders/bw/wdbp2_bd0pn7gl5ybd33xbb80000gn/T//ccZ5cvgj.s 			page 15


 799 0468 3E01     		.2byte	(.L52-.L46)/2
 800 046a 2201     		.2byte	(.L53-.L46)/2
 801 046c CE00     		.2byte	(.L54-.L46)/2
 802 046e B300     		.2byte	(.L55-.L46)/2
 803 0470 6900     		.2byte	(.L44-.L46)/2
 804 0472 6900     		.2byte	(.L44-.L46)/2
 805 0474 6900     		.2byte	(.L44-.L46)/2
 806 0476 6900     		.2byte	(.L44-.L46)/2
 807 0478 6900     		.2byte	(.L44-.L46)/2
 808 047a E402     		.2byte	(.L56-.L46)/2
 809 047c 6900     		.2byte	(.L44-.L46)/2
 810 047e 6900     		.2byte	(.L44-.L46)/2
 811 0480 6900     		.2byte	(.L44-.L46)/2
 812 0482 6900     		.2byte	(.L44-.L46)/2
 813 0484 6900     		.2byte	(.L44-.L46)/2
 814 0486 6900     		.2byte	(.L44-.L46)/2
 815 0488 6900     		.2byte	(.L44-.L46)/2
 816 048a 6900     		.2byte	(.L44-.L46)/2
 817 048c 6900     		.2byte	(.L44-.L46)/2
 818 048e 3700     		.2byte	(.L57-.L46)/2
 819 0490 1303     		.2byte	(.L58-.L46)/2
 820 0492 6900     		.2byte	(.L44-.L46)/2
 821 0494 6900     		.2byte	(.L44-.L46)/2
 822 0496 6900     		.2byte	(.L44-.L46)/2
 823 0498 6900     		.2byte	(.L44-.L46)/2
 824 049a B002     		.2byte	(.L59-.L46)/2
 825 049c 6900     		.2byte	(.L44-.L46)/2
 826 049e 6900     		.2byte	(.L44-.L46)/2
 827 04a0 6900     		.2byte	(.L44-.L46)/2
 828 04a2 6900     		.2byte	(.L44-.L46)/2
 829 04a4 6900     		.2byte	(.L44-.L46)/2
 830 04a6 6900     		.2byte	(.L44-.L46)/2
 831 04a8 6900     		.2byte	(.L44-.L46)/2
 832 04aa 6900     		.2byte	(.L44-.L46)/2
 833 04ac 6900     		.2byte	(.L44-.L46)/2
 834 04ae 6900     		.2byte	(.L44-.L46)/2
 835 04b0 6900     		.2byte	(.L44-.L46)/2
 836 04b2 6900     		.2byte	(.L44-.L46)/2
 837 04b4 0603     		.2byte	(.L60-.L46)/2
 838 04b6 C402     		.2byte	(.L61-.L46)/2
 839 04b8 6900     		.2byte	(.L44-.L46)/2
 840 04ba 8C00     		.2byte	(.L62-.L46)/2
 841              		.p2align 1
 842              	.L57:
 843              		.loc 1 264 0
 844 04bc BBF1000F 		cmp	fp, #0
 845 04c0 01F0BD81 		beq	.L63
 846              		.loc 1 265 0
 847 04c4 0121     		movs	r1, #1
 848 04c6 0020     		movs	r0, #0
 849              	.L654:
 850              		.loc 1 277 0
 851 04c8 FFF7FEFF 		bl	e_get_acc_filtered
 852              	.LVL59:
 853 04cc 344C     		ldr	r4, .L688+28
 854              		.loc 1 278 0
 855 04ce 354D     		ldr	r5, .L688+32
ARM GAS  /var/folders/bw/wdbp2_bd0pn7gl5ybd33xbb80000gn/T//ccZ5cvgj.s 			page 16


 856              		.loc 1 277 0
 857 04d0 2060     		str	r0, [r4]
 858              		.loc 1 278 0
 859 04d2 0121     		movs	r1, #1
 860 04d4 0846     		mov	r0, r1
 861 04d6 FFF7FEFF 		bl	e_get_acc_filtered
 862              	.LVL60:
 863              		.loc 1 279 0
 864 04da 0121     		movs	r1, #1
 865              		.loc 1 278 0
 866 04dc 2860     		str	r0, [r5]
 867              		.loc 1 279 0
 868 04de 0220     		movs	r0, #2
 869 04e0 FFF7FEFF 		bl	e_get_acc_filtered
 870              	.LVL61:
 871 04e4 2B68     		ldr	r3, [r5]
 872 04e6 2468     		ldr	r4, [r4]
 873 04e8 2F4A     		ldr	r2, .L688+36
 874 04ea C5B2     		uxtb	r5, r0
 875 04ec 1060     		str	r0, [r2]
 876 04ee C0F30721 		ubfx	r1, r0, #8, #8
 877 04f2 5FFA84FE 		uxtb	lr, r4
 878 04f6 5FFA83FC 		uxtb	ip, r3
 879 04fa C4F30724 		ubfx	r4, r4, #8, #8
 880 04fe C3F30720 		ubfx	r0, r3, #8, #8
 881              	.L64:
 882              		.loc 1 282 0
 883 0502 D9F80030 		ldr	r3, [r9]
 884              		.loc 1 283 0
 885 0506 08EB0302 		add	r2, r8, r3
 886              		.loc 1 282 0
 887 050a 08F803E0 		strb	lr, [r8, r3]
 888              		.loc 1 287 0
 889 050e 0633     		adds	r3, r3, #6
 890              		.loc 1 283 0
 891 0510 5470     		strb	r4, [r2, #1]
 892              		.loc 1 284 0
 893 0512 82F802C0 		strb	ip, [r2, #2]
 894              		.loc 1 285 0
 895 0516 D070     		strb	r0, [r2, #3]
 896              		.loc 1 286 0
 897 0518 1571     		strb	r5, [r2, #4]
 898              		.loc 1 287 0
 899 051a 5171     		strb	r1, [r2, #5]
 900 051c C9F80030 		str	r3, [r9]
 901              	.L44:
 902              		.loc 1 574 0
 903 0520 BBF1000F 		cmp	fp, #0
 904 0524 23D0     		beq	.L136
 905              	.L133:
 906              		.loc 1 575 0 discriminator 1
 907 0526 3046     		mov	r0, r6
 908 0528 FFF7FEFF 		bl	e_getchar_uart1
 909              	.LVL62:
 910 052c 0028     		cmp	r0, #0
 911 052e FAD0     		beq	.L133
 912              	.L134:
ARM GAS  /var/folders/bw/wdbp2_bd0pn7gl5ybd33xbb80000gn/T//ccZ5cvgj.s 			page 17


 913              		.loc 1 579 0
 914 0530 3B78     		ldrb	r3, [r7]	@ zero_extendqisi2
 915 0532 002B     		cmp	r3, #0
 916 0534 84D1     		bne	.L137
 917              		.loc 1 580 0
 918 0536 D9F80010 		ldr	r1, [r9]
 919 053a DDF828B0 		ldr	fp, [sp, #40]
 920 053e 0029     		cmp	r1, #0
 921 0540 3FF4BFAD 		beq	.L4
 922              		.loc 1 581 0
 923 0544 099A     		ldr	r2, [sp, #36]
 924 0546 002A     		cmp	r2, #0
 925 0548 01F05081 		beq	.L139
 926              		.loc 1 582 0
 927 054c 174A     		ldr	r2, .L688+40
 928 054e 1278     		ldrb	r2, [r2]	@ zero_extendqisi2
 929 0550 002A     		cmp	r2, #0
 930 0552 41F04A82 		bne	.L672
 931              	.L140:
 932              		.loc 1 590 0
 933 0556 1648     		ldr	r0, .L688+44
 934 0558 FFF7FEFF 		bl	e_send_uart1_char
 935              	.LVL63:
 936              	.L142:
 937              		.loc 1 591 0 discriminator 1
 938 055c FFF7FEFF 		bl	e_uart1_sending
 939              	.LVL64:
 940 0560 0028     		cmp	r0, #0
 941 0562 FBD1     		bne	.L142
 942 0564 ADE5     		b	.L4
 943              	.L62:
 944              		.loc 1 547 0
 945 0566 BBF1000F 		cmp	fp, #0
 946 056a 40F09382 		bne	.L673
 947              	.L136:
 948              		.loc 1 577 0 discriminator 1
 949 056e 3046     		mov	r0, r6
 950 0570 FFF7FEFF 		bl	e_getchar_uart2
 951              	.LVL65:
 952 0574 0028     		cmp	r0, #0
 953 0576 DBD1     		bne	.L134
 954              	.L662:
 955              		.loc 1 577 0 is_stmt 0
 956 0578 3046     		mov	r0, r6
 957 057a FFF7FEFF 		bl	e_getchar_uart2
 958              	.LVL66:
 959 057e 0028     		cmp	r0, #0
 960 0580 F5D0     		beq	.L136
 961 0582 D5E7     		b	.L134
 962              	.L689:
 963              		.align	2
 964              	.L688:
 965 0584 00000000 		.word	.LANCHOR7
 966 0588 A8FDFFFF 		.word	-600
 967 058c 00000000 		.word	.LANCHOR8
 968 0590 D4FEFFFF 		.word	-300
 969 0594 00000000 		.word	.LANCHOR9
ARM GAS  /var/folders/bw/wdbp2_bd0pn7gl5ybd33xbb80000gn/T//ccZ5cvgj.s 			page 18


 970 0598 00000000 		.word	.LANCHOR10
 971 059c 00000000 		.word	0
 972 05a0 00000000 		.word	.LANCHOR12
 973 05a4 00000000 		.word	.LANCHOR13
 974 05a8 00000000 		.word	.LANCHOR14
 975 05ac 00000000 		.word	.LANCHOR21
 976 05b0 00000000 		.word	buffer
 977              	.L55:
 978              		.loc 1 497 0 is_stmt 1
 979 05b4 FFF7FEFF 		bl	e_get_steps_left
 980              	.LVL67:
 981              		.loc 1 498 0
 982 05b8 D9F80030 		ldr	r3, [r9]
 983              		.loc 1 499 0
 984 05bc 08EB0302 		add	r2, r8, r3
 985              		.loc 1 498 0
 986 05c0 08F80300 		strb	r0, [r8, r3]
 987              		.loc 1 499 0
 988 05c4 0112     		asrs	r1, r0, #8
 989 05c6 0233     		adds	r3, r3, #2
 990 05c8 5170     		strb	r1, [r2, #1]
 991 05ca C9F80030 		str	r3, [r9]
 992              		.loc 1 500 0
 993 05ce FFF7FEFF 		bl	e_get_steps_right
 994              	.LVL68:
 995              	.L657:
 996              		.loc 1 523 0
 997 05d2 D9F80030 		ldr	r3, [r9]
 998              		.loc 1 524 0
 999 05d6 08EB0302 		add	r2, r8, r3
 1000              		.loc 1 523 0
 1001 05da 08F80300 		strb	r0, [r8, r3]
 1002              		.loc 1 524 0
 1003 05de 0112     		asrs	r1, r0, #8
 1004 05e0 0233     		adds	r3, r3, #2
 1005 05e2 5170     		strb	r1, [r2, #1]
 1006 05e4 C9F80030 		str	r3, [r9]
 1007              		.loc 1 525 0
 1008 05e8 9AE7     		b	.L44
 1009              	.L54:
 1010              		.loc 1 478 0
 1011 05ea BA4C     		ldr	r4, .L690
 1012              		.loc 1 477 0
 1013 05ec BBF1000F 		cmp	fp, #0
 1014 05f0 2FD0     		beq	.L106
 1015              	.L107:
 1016              		.loc 1 478 0 discriminator 1
 1017 05f2 2046     		mov	r0, r4
 1018 05f4 FFF7FEFF 		bl	e_getchar_uart1
 1019              	.LVL69:
 1020 05f8 0028     		cmp	r0, #0
 1021 05fa FAD0     		beq	.L107
 1022              		.loc 1 479 0
 1023 05fc B64C     		ldr	r4, .L690+4
 1024              	.L108:
 1025              		.loc 1 479 0 is_stmt 0 discriminator 1
 1026 05fe 2046     		mov	r0, r4
ARM GAS  /var/folders/bw/wdbp2_bd0pn7gl5ybd33xbb80000gn/T//ccZ5cvgj.s 			page 19


 1027 0600 FFF7FEFF 		bl	e_getchar_uart1
 1028              	.LVL70:
 1029 0604 0028     		cmp	r0, #0
 1030 0606 FAD0     		beq	.L108
 1031              		.loc 1 484 0 is_stmt 1
 1032 0608 B34B     		ldr	r3, .L690+4
 1033              		.loc 1 486 0
 1034 060a B24C     		ldr	r4, .L690
 1035              		.loc 1 484 0
 1036 060c 1A78     		ldrb	r2, [r3]	@ zero_extendqisi2
 1037 060e B14B     		ldr	r3, .L690
 1038 0610 1B78     		ldrb	r3, [r3]	@ zero_extendqisi2
 1039 0612 03EB0223 		add	r3, r3, r2, lsl #8
 1040 0616 B14A     		ldr	r2, .L690+8
 1041 0618 1360     		str	r3, [r2]
 1042              	.L112:
 1043              		.loc 1 486 0 discriminator 1
 1044 061a 2046     		mov	r0, r4
 1045 061c FFF7FEFF 		bl	e_getchar_uart1
 1046              	.LVL71:
 1047 0620 0028     		cmp	r0, #0
 1048 0622 FAD0     		beq	.L112
 1049              		.loc 1 487 0
 1050 0624 AC4C     		ldr	r4, .L690+4
 1051              	.L113:
 1052              		.loc 1 487 0 is_stmt 0 discriminator 1
 1053 0626 2046     		mov	r0, r4
 1054 0628 FFF7FEFF 		bl	e_getchar_uart1
 1055              	.LVL72:
 1056 062c 0028     		cmp	r0, #0
 1057 062e FAD0     		beq	.L113
 1058              	.L114:
 1059              		.loc 1 492 0 is_stmt 1
 1060 0630 A94B     		ldr	r3, .L690+4
 1061              		.loc 1 493 0
 1062 0632 AA49     		ldr	r1, .L690+8
 1063              		.loc 1 492 0
 1064 0634 1A78     		ldrb	r2, [r3]	@ zero_extendqisi2
 1065 0636 A74B     		ldr	r3, .L690
 1066              		.loc 1 493 0
 1067 0638 0868     		ldr	r0, [r1]
 1068              		.loc 1 492 0
 1069 063a 1B78     		ldrb	r3, [r3]	@ zero_extendqisi2
 1070 063c 03EB0223 		add	r3, r3, r2, lsl #8
 1071 0640 A74A     		ldr	r2, .L690+12
 1072 0642 1446     		mov	r4, r2
 1073 0644 1360     		str	r3, [r2]
 1074              		.loc 1 493 0
 1075 0646 FFF7FEFF 		bl	e_set_steps_left
 1076              	.LVL73:
 1077              		.loc 1 494 0
 1078 064a 2068     		ldr	r0, [r4]
 1079 064c FFF7FEFF 		bl	e_set_steps_right
 1080              	.LVL74:
 1081              		.loc 1 495 0
 1082 0650 66E7     		b	.L44
 1083              	.L106:
ARM GAS  /var/folders/bw/wdbp2_bd0pn7gl5ybd33xbb80000gn/T//ccZ5cvgj.s 			page 20


 1084              		.loc 1 481 0 discriminator 1
 1085 0652 2046     		mov	r0, r4
 1086 0654 FFF7FEFF 		bl	e_getchar_uart2
 1087              	.LVL75:
 1088 0658 0028     		cmp	r0, #0
 1089 065a FAD0     		beq	.L106
 1090              		.loc 1 482 0
 1091 065c 9E4C     		ldr	r4, .L690+4
 1092              	.L110:
 1093              		.loc 1 482 0 is_stmt 0 discriminator 1
 1094 065e 2046     		mov	r0, r4
 1095 0660 FFF7FEFF 		bl	e_getchar_uart2
 1096              	.LVL76:
 1097 0664 0028     		cmp	r0, #0
 1098 0666 FAD0     		beq	.L110
 1099              		.loc 1 484 0 is_stmt 1
 1100 0668 9B4B     		ldr	r3, .L690+4
 1101              		.loc 1 489 0
 1102 066a 9A4C     		ldr	r4, .L690
 1103              		.loc 1 484 0
 1104 066c 1A78     		ldrb	r2, [r3]	@ zero_extendqisi2
 1105 066e 994B     		ldr	r3, .L690
 1106 0670 1B78     		ldrb	r3, [r3]	@ zero_extendqisi2
 1107 0672 03EB0223 		add	r3, r3, r2, lsl #8
 1108 0676 994A     		ldr	r2, .L690+8
 1109 0678 1360     		str	r3, [r2]
 1110              	.L115:
 1111              		.loc 1 489 0 discriminator 1
 1112 067a 2046     		mov	r0, r4
 1113 067c FFF7FEFF 		bl	e_getchar_uart2
 1114              	.LVL77:
 1115 0680 0028     		cmp	r0, #0
 1116 0682 FAD0     		beq	.L115
 1117              		.loc 1 490 0
 1118 0684 944C     		ldr	r4, .L690+4
 1119              	.L116:
 1120              		.loc 1 490 0 is_stmt 0 discriminator 1
 1121 0686 2046     		mov	r0, r4
 1122 0688 FFF7FEFF 		bl	e_getchar_uart2
 1123              	.LVL78:
 1124 068c 0028     		cmp	r0, #0
 1125 068e FAD0     		beq	.L116
 1126 0690 CEE7     		b	.L114
 1127              	.L53:
 1128              		.loc 1 460 0 is_stmt 1
 1129 0692 BBF1000F 		cmp	fp, #0
 1130 0696 01F00781 		beq	.L102
 1131              		.loc 1 461 0
 1132 069a 0020     		movs	r0, #0
 1133 069c CAF80000 		str	r0, [r10]
 1134              	.L103:
 1135              		.loc 1 463 0 discriminator 3
 1136 06a0 FFF7FEFF 		bl	e_get_ambient_light
 1137              	.LVL79:
 1138              		.loc 1 464 0 discriminator 3
 1139 06a4 D9F80020 		ldr	r2, [r9]
 1140              		.loc 1 461 0 discriminator 3
ARM GAS  /var/folders/bw/wdbp2_bd0pn7gl5ybd33xbb80000gn/T//ccZ5cvgj.s 			page 21


 1141 06a8 DAF80030 		ldr	r3, [r10]
 1142              		.loc 1 464 0 discriminator 3
 1143 06ac 08F80200 		strb	r0, [r8, r2]
 1144              		.loc 1 465 0 discriminator 3
 1145 06b0 08EB0204 		add	r4, r8, r2
 1146 06b4 0112     		asrs	r1, r0, #8
 1147              		.loc 1 461 0 discriminator 3
 1148 06b6 581C     		adds	r0, r3, #1
 1149              		.loc 1 465 0 discriminator 3
 1150 06b8 0232     		adds	r2, r2, #2
 1151              		.loc 1 461 0 discriminator 3
 1152 06ba 0728     		cmp	r0, #7
 1153              		.loc 1 465 0 discriminator 3
 1154 06bc 6170     		strb	r1, [r4, #1]
 1155 06be C9F80020 		str	r2, [r9]
 1156              		.loc 1 461 0 discriminator 3
 1157 06c2 CAF80000 		str	r0, [r10]
 1158 06c6 EBDD     		ble	.L103
 1159 06c8 2DE7     		b	.L133
 1160              	.L52:
 1161              		.loc 1 445 0
 1162 06ca BBF1000F 		cmp	fp, #0
 1163 06ce 01F0CC80 		beq	.L99
 1164              		.loc 1 446 0
 1165 06d2 0020     		movs	r0, #0
 1166 06d4 CAF80000 		str	r0, [r10]
 1167              	.L100:
 1168              		.loc 1 447 0 discriminator 3
 1169 06d8 FFF7FEFF 		bl	e_get_calibrated_prox
 1170              	.LVL80:
 1171              		.loc 1 448 0 discriminator 3
 1172 06dc D9F80020 		ldr	r2, [r9]
 1173              		.loc 1 446 0 discriminator 3
 1174 06e0 DAF80030 		ldr	r3, [r10]
 1175              		.loc 1 448 0 discriminator 3
 1176 06e4 08F80200 		strb	r0, [r8, r2]
 1177              		.loc 1 449 0 discriminator 3
 1178 06e8 08EB0204 		add	r4, r8, r2
 1179 06ec 0112     		asrs	r1, r0, #8
 1180              		.loc 1 446 0 discriminator 3
 1181 06ee 581C     		adds	r0, r3, #1
 1182              		.loc 1 449 0 discriminator 3
 1183 06f0 0232     		adds	r2, r2, #2
 1184              		.loc 1 446 0 discriminator 3
 1185 06f2 0728     		cmp	r0, #7
 1186              		.loc 1 449 0 discriminator 3
 1187 06f4 6170     		strb	r1, [r4, #1]
 1188 06f6 C9F80020 		str	r2, [r9]
 1189              		.loc 1 446 0 discriminator 3
 1190 06fa CAF80000 		str	r0, [r10]
 1191 06fe EBDD     		ble	.L100
 1192 0700 11E7     		b	.L133
 1193              	.L50:
 1194              		.loc 1 400 0
 1195 0702 744C     		ldr	r4, .L690
 1196              		.loc 1 399 0
 1197 0704 BBF1000F 		cmp	fp, #0
ARM GAS  /var/folders/bw/wdbp2_bd0pn7gl5ybd33xbb80000gn/T//ccZ5cvgj.s 			page 22


 1198 0708 17D0     		beq	.L84
 1199              	.L85:
 1200              		.loc 1 400 0 discriminator 1
 1201 070a 2046     		mov	r0, r4
 1202 070c FFF7FEFF 		bl	e_getchar_uart1
 1203              	.LVL81:
 1204 0710 0028     		cmp	r0, #0
 1205 0712 FAD0     		beq	.L85
 1206              		.loc 1 401 0
 1207 0714 704C     		ldr	r4, .L690+4
 1208              	.L86:
 1209              		.loc 1 401 0 is_stmt 0 discriminator 1
 1210 0716 2046     		mov	r0, r4
 1211 0718 FFF7FEFF 		bl	e_getchar_uart1
 1212              	.LVL82:
 1213 071c 0028     		cmp	r0, #0
 1214 071e FAD0     		beq	.L86
 1215              		.loc 1 406 0 is_stmt 1
 1216 0720 6C4B     		ldr	r3, .L690
 1217 0722 1878     		ldrb	r0, [r3]	@ zero_extendqisi2
 1218 0724 0828     		cmp	r0, #8
 1219 0726 01F0EC80 		beq	.L417
 1220 072a 0928     		cmp	r0, #9
 1221 072c 01F09981 		beq	.L674
 1222              	.L92:
 1223              		.loc 1 418 0
 1224 0730 694B     		ldr	r3, .L690+4
 1225 0732 1978     		ldrb	r1, [r3]	@ zero_extendqisi2
 1226 0734 FFF7FEFF 		bl	e_set_led
 1227              	.LVL83:
 1228              		.loc 1 419 0
 1229 0738 F2E6     		b	.L44
 1230              	.L84:
 1231              		.loc 1 403 0 discriminator 1
 1232 073a 2046     		mov	r0, r4
 1233 073c FFF7FEFF 		bl	e_getchar_uart2
 1234              	.LVL84:
 1235 0740 0028     		cmp	r0, #0
 1236 0742 FAD0     		beq	.L84
 1237              		.loc 1 404 0
 1238 0744 644C     		ldr	r4, .L690+4
 1239              	.L88:
 1240              		.loc 1 404 0 is_stmt 0 discriminator 1
 1241 0746 2046     		mov	r0, r4
 1242 0748 FFF7FEFF 		bl	e_getchar_uart2
 1243              	.LVL85:
 1244 074c 0028     		cmp	r0, #0
 1245 074e FAD0     		beq	.L88
 1246              		.loc 1 406 0 is_stmt 1
 1247 0750 604B     		ldr	r3, .L690
 1248 0752 1878     		ldrb	r0, [r3]	@ zero_extendqisi2
 1249 0754 0828     		cmp	r0, #8
 1250 0756 3FF40AAF 		beq	.L136
 1251 075a 0928     		cmp	r0, #9
 1252 075c E8D1     		bne	.L92
 1253              		.loc 1 577 0
 1254 075e 3046     		mov	r0, r6
ARM GAS  /var/folders/bw/wdbp2_bd0pn7gl5ybd33xbb80000gn/T//ccZ5cvgj.s 			page 23


 1255 0760 FFF7FEFF 		bl	e_getchar_uart2
 1256              	.LVL86:
 1257 0764 0028     		cmp	r0, #0
 1258 0766 3FF407AF 		beq	.L662
 1259 076a E1E6     		b	.L134
 1260              	.L51:
 1261              		.loc 1 424 0
 1262 076c BBF1000F 		cmp	fp, #0
 1263 0770 3FF4FDAE 		beq	.L136
 1264              		.loc 1 425 0
 1265 0774 FFF7FEFF 		bl	e_i2cp_init
 1266              	.LVL87:
 1267              		.loc 1 426 0
 1268 0778 FFF7FEFF 		bl	e_i2cp_enable
 1269              	.LVL88:
 1270              		.loc 1 427 0
 1271 077c 0021     		movs	r1, #0
 1272 077e C020     		movs	r0, #192
 1273 0780 FFF7FEFF 		bl	e_i2cp_read
 1274              	.LVL89:
 1275              		.loc 1 428 0
 1276 0784 0023     		movs	r3, #0
 1277 0786 CAF80030 		str	r3, [r10]
 1278              	.L95:
 1279 078a DAB2     		uxtb	r2, r3
 1280 078c D9F80040 		ldr	r4, [r9]
 1281              		.loc 1 429 0
 1282 0790 DB07     		lsls	r3, r3, #31
 1283 0792 02F10101 		add	r1, r2, #1
 1284              		.loc 1 430 0
 1285 0796 02F1FF32 		add	r2, r2, #-1
 1286              		.loc 1 429 0
 1287 079a 4FF0C000 		mov	r0, #192
 1288 079e C9B2     		uxtb	r1, r1
 1289              		.loc 1 430 0
 1290 07a0 44BF     		itt	mi
 1291 07a2 C020     		movmi	r0, #192
 1292 07a4 D1B2     		uxtbmi	r1, r2
 1293 07a6 651C     		adds	r5, r4, #1
 1294 07a8 C9F80050 		str	r5, [r9]
 1295 07ac FFF7FEFF 		bl	e_i2cp_read
 1296              	.LVL90:
 1297              		.loc 1 428 0
 1298 07b0 DAF80030 		ldr	r3, [r10]
 1299              		.loc 1 430 0
 1300 07b4 08F80400 		strb	r0, [r8, r4]
 1301              		.loc 1 428 0
 1302 07b8 0133     		adds	r3, r3, #1
 1303 07ba 052B     		cmp	r3, #5
 1304 07bc CAF80030 		str	r3, [r10]
 1305 07c0 E3DD     		ble	.L95
 1306              		.loc 1 433 0
 1307 07c2 0D23     		movs	r3, #13
 1308 07c4 CAF80030 		str	r3, [r10]
 1309              	.L98:
 1310 07c8 DAB2     		uxtb	r2, r3
 1311 07ca D9F80040 		ldr	r4, [r9]
ARM GAS  /var/folders/bw/wdbp2_bd0pn7gl5ybd33xbb80000gn/T//ccZ5cvgj.s 			page 24


 1312              		.loc 1 434 0
 1313 07ce DB07     		lsls	r3, r3, #31
 1314 07d0 02F1FF31 		add	r1, r2, #-1
 1315              		.loc 1 435 0
 1316 07d4 02F10102 		add	r2, r2, #1
 1317              		.loc 1 434 0
 1318 07d8 4FF0C000 		mov	r0, #192
 1319 07dc C9B2     		uxtb	r1, r1
 1320              		.loc 1 435 0
 1321 07de 44BF     		itt	mi
 1322 07e0 C020     		movmi	r0, #192
 1323 07e2 D1B2     		uxtbmi	r1, r2
 1324 07e4 651C     		adds	r5, r4, #1
 1325 07e6 C9F80050 		str	r5, [r9]
 1326 07ea FFF7FEFF 		bl	e_i2cp_read
 1327              	.LVL91:
 1328              		.loc 1 433 0
 1329 07ee DAF80030 		ldr	r3, [r10]
 1330              		.loc 1 435 0
 1331 07f2 08F80400 		strb	r0, [r8, r4]
 1332              		.loc 1 433 0
 1333 07f6 0133     		adds	r3, r3, #1
 1334 07f8 102B     		cmp	r3, #16
 1335 07fa CAF80030 		str	r3, [r10]
 1336 07fe E3DD     		ble	.L98
 1337 0800 28E1     		b	.L658
 1338              	.L48:
 1339              		.loc 1 363 0
 1340 0802 384A     		ldr	r2, .L690+16
 1341 0804 D9F80030 		ldr	r3, [r9]
 1342              		.loc 1 365 0
 1343 0808 3749     		ldr	r1, .L690+20
 1344              		.loc 1 363 0
 1345 080a 1268     		ldr	r2, [r2]
 1346              		.loc 1 365 0
 1347 080c 0868     		ldr	r0, [r1]
 1348              		.loc 1 363 0
 1349 080e 08F80320 		strb	r2, [r8, r3]
 1350              		.loc 1 364 0
 1351 0812 08EB0301 		add	r1, r8, r3
 1352 0816 1212     		asrs	r2, r2, #8
 1353              		.loc 1 366 0
 1354 0818 0433     		adds	r3, r3, #4
 1355              		.loc 1 364 0
 1356 081a 4A70     		strb	r2, [r1, #1]
 1357              		.loc 1 366 0
 1358 081c 0212     		asrs	r2, r0, #8
 1359 081e C9F80030 		str	r3, [r9]
 1360              		.loc 1 365 0
 1361 0822 8870     		strb	r0, [r1, #2]
 1362              		.loc 1 366 0
 1363 0824 CA70     		strb	r2, [r1, #3]
 1364              		.loc 1 367 0
 1365 0826 7BE6     		b	.L44
 1366              	.L49:
 1367              		.loc 1 389 0
 1368 0828 BBF1000F 		cmp	fp, #0
ARM GAS  /var/folders/bw/wdbp2_bd0pn7gl5ybd33xbb80000gn/T//ccZ5cvgj.s 			page 25


 1369 082c 3FF49FAE 		beq	.L136
 1370              		.loc 1 390 0
 1371 0830 D9F80030 		ldr	r3, [r9]
 1372 0834 0333     		adds	r3, r3, #3
 1373 0836 08EB0300 		add	r0, r8, r3
 1374 083a FFF7FEFF 		bl	e_poxxxx_launch_capture
 1375              	.LVL92:
 1376              		.loc 1 392 0
 1377 083e 1499     		ldr	r1, [sp, #80]
 1378              		.loc 1 395 0
 1379 0840 119A     		ldr	r2, [sp, #68]
 1380              		.loc 1 392 0
 1381 0842 D9F80030 		ldr	r3, [r9]
 1382 0846 0868     		ldr	r0, [r1]
 1383              		.loc 1 395 0
 1384 0848 1268     		ldr	r2, [r2]
 1385              		.loc 1 392 0
 1386 084a 08F80300 		strb	r0, [r8, r3]
 1387              		.loc 1 394 0
 1388 084e D81C     		adds	r0, r3, #3
 1389              		.loc 1 395 0
 1390 0850 0244     		add	r2, r2, r0
 1391              		.loc 1 393 0
 1392 0852 1299     		ldr	r1, [sp, #72]
 1393              		.loc 1 394 0
 1394 0854 1398     		ldr	r0, [sp, #76]
 1395              		.loc 1 393 0
 1396 0856 0968     		ldr	r1, [r1]
 1397              		.loc 1 394 0
 1398 0858 0068     		ldr	r0, [r0]
 1399              		.loc 1 395 0
 1400 085a C9F80020 		str	r2, [r9]
 1401              		.loc 1 393 0
 1402 085e 4344     		add	r3, r3, r8
 1403              		.loc 1 391 0
 1404 0860 0122     		movs	r2, #1
 1405              		.loc 1 393 0
 1406 0862 5970     		strb	r1, [r3, #1]
 1407              		.loc 1 394 0
 1408 0864 9870     		strb	r0, [r3, #2]
 1409              		.loc 1 391 0
 1410 0866 214B     		ldr	r3, .L690+24
 1411 0868 1A70     		strb	r2, [r3]
 1412 086a 5CE6     		b	.L133
 1413              	.L47:
 1414              		.loc 1 344 0
 1415 086c 194C     		ldr	r4, .L690
 1416              		.loc 1 343 0
 1417 086e BBF1000F 		cmp	fp, #0
 1418 0872 3DD0     		beq	.L70
 1419              	.L71:
 1420              		.loc 1 344 0 discriminator 1
 1421 0874 2046     		mov	r0, r4
 1422 0876 FFF7FEFF 		bl	e_getchar_uart1
 1423              	.LVL93:
 1424 087a 0028     		cmp	r0, #0
 1425 087c FAD0     		beq	.L71
ARM GAS  /var/folders/bw/wdbp2_bd0pn7gl5ybd33xbb80000gn/T//ccZ5cvgj.s 			page 26


 1426              		.loc 1 345 0
 1427 087e 164C     		ldr	r4, .L690+4
 1428              	.L72:
 1429              		.loc 1 345 0 is_stmt 0 discriminator 1
 1430 0880 2046     		mov	r0, r4
 1431 0882 FFF7FEFF 		bl	e_getchar_uart1
 1432              	.LVL94:
 1433 0886 0028     		cmp	r0, #0
 1434 0888 FAD0     		beq	.L72
 1435              		.loc 1 350 0 is_stmt 1
 1436 088a 134B     		ldr	r3, .L690+4
 1437              		.loc 1 352 0
 1438 088c 114C     		ldr	r4, .L690
 1439              		.loc 1 350 0
 1440 088e 1A78     		ldrb	r2, [r3]	@ zero_extendqisi2
 1441 0890 104B     		ldr	r3, .L690
 1442 0892 1B78     		ldrb	r3, [r3]	@ zero_extendqisi2
 1443 0894 03EB0223 		add	r3, r3, r2, lsl #8
 1444 0898 124A     		ldr	r2, .L690+16
 1445 089a 1360     		str	r3, [r2]
 1446              	.L76:
 1447              		.loc 1 352 0 discriminator 1
 1448 089c 2046     		mov	r0, r4
 1449 089e FFF7FEFF 		bl	e_getchar_uart1
 1450              	.LVL95:
 1451 08a2 0028     		cmp	r0, #0
 1452 08a4 FAD0     		beq	.L76
 1453              		.loc 1 353 0
 1454 08a6 0C4C     		ldr	r4, .L690+4
 1455              	.L77:
 1456              		.loc 1 353 0 is_stmt 0 discriminator 1
 1457 08a8 2046     		mov	r0, r4
 1458 08aa FFF7FEFF 		bl	e_getchar_uart1
 1459              	.LVL96:
 1460 08ae 0028     		cmp	r0, #0
 1461 08b0 FAD0     		beq	.L77
 1462              	.L78:
 1463              		.loc 1 358 0 is_stmt 1
 1464 08b2 094B     		ldr	r3, .L690+4
 1465              		.loc 1 359 0
 1466 08b4 0B49     		ldr	r1, .L690+16
 1467              		.loc 1 358 0
 1468 08b6 1A78     		ldrb	r2, [r3]	@ zero_extendqisi2
 1469 08b8 064B     		ldr	r3, .L690
 1470              		.loc 1 359 0
 1471 08ba 0868     		ldr	r0, [r1]
 1472              		.loc 1 358 0
 1473 08bc 1B78     		ldrb	r3, [r3]	@ zero_extendqisi2
 1474 08be 03EB0223 		add	r3, r3, r2, lsl #8
 1475 08c2 094A     		ldr	r2, .L690+20
 1476 08c4 1446     		mov	r4, r2
 1477 08c6 1360     		str	r3, [r2]
 1478              		.loc 1 359 0
 1479 08c8 FFF7FEFF 		bl	e_set_speed_left
 1480              	.LVL97:
 1481              		.loc 1 360 0
 1482 08cc 2068     		ldr	r0, [r4]
ARM GAS  /var/folders/bw/wdbp2_bd0pn7gl5ybd33xbb80000gn/T//ccZ5cvgj.s 			page 27


 1483 08ce FFF7FEFF 		bl	e_set_speed_right
 1484              	.LVL98:
 1485              		.loc 1 361 0
 1486 08d2 25E6     		b	.L44
 1487              	.L691:
 1488              		.align	2
 1489              	.L690:
 1490 08d4 00000000 		.word	.LANCHOR16
 1491 08d8 00000000 		.word	.LANCHOR17
 1492 08dc 00000000 		.word	.LANCHOR24
 1493 08e0 00000000 		.word	.LANCHOR23
 1494 08e4 00000000 		.word	.LANCHOR8
 1495 08e8 00000000 		.word	.LANCHOR7
 1496 08ec 00000000 		.word	.LANCHOR21
 1497              	.L70:
 1498              		.loc 1 347 0 discriminator 1
 1499 08f0 2046     		mov	r0, r4
 1500 08f2 FFF7FEFF 		bl	e_getchar_uart2
 1501              	.LVL99:
 1502 08f6 0028     		cmp	r0, #0
 1503 08f8 FAD0     		beq	.L70
 1504              		.loc 1 348 0
 1505 08fa A14C     		ldr	r4, .L692
 1506              	.L74:
 1507              		.loc 1 348 0 is_stmt 0 discriminator 1
 1508 08fc 2046     		mov	r0, r4
 1509 08fe FFF7FEFF 		bl	e_getchar_uart2
 1510              	.LVL100:
 1511 0902 0028     		cmp	r0, #0
 1512 0904 FAD0     		beq	.L74
 1513              		.loc 1 350 0 is_stmt 1
 1514 0906 9E4B     		ldr	r3, .L692
 1515              		.loc 1 355 0
 1516 0908 9E4C     		ldr	r4, .L692+4
 1517              		.loc 1 350 0
 1518 090a 1A78     		ldrb	r2, [r3]	@ zero_extendqisi2
 1519 090c 9D4B     		ldr	r3, .L692+4
 1520 090e 1B78     		ldrb	r3, [r3]	@ zero_extendqisi2
 1521 0910 03EB0223 		add	r3, r3, r2, lsl #8
 1522 0914 9C4A     		ldr	r2, .L692+8
 1523 0916 1360     		str	r3, [r2]
 1524              	.L79:
 1525              		.loc 1 355 0 discriminator 1
 1526 0918 2046     		mov	r0, r4
 1527 091a FFF7FEFF 		bl	e_getchar_uart2
 1528              	.LVL101:
 1529 091e 0028     		cmp	r0, #0
 1530 0920 FAD0     		beq	.L79
 1531              		.loc 1 356 0
 1532 0922 974C     		ldr	r4, .L692
 1533              	.L80:
 1534              		.loc 1 356 0 is_stmt 0 discriminator 1
 1535 0924 2046     		mov	r0, r4
 1536 0926 FFF7FEFF 		bl	e_getchar_uart2
 1537              	.LVL102:
 1538 092a 0028     		cmp	r0, #0
 1539 092c FAD0     		beq	.L80
ARM GAS  /var/folders/bw/wdbp2_bd0pn7gl5ybd33xbb80000gn/T//ccZ5cvgj.s 			page 28


 1540 092e C0E7     		b	.L78
 1541              	.L45:
 1542              		.loc 1 291 0 is_stmt 1
 1543 0930 BBF1000F 		cmp	fp, #0
 1544 0934 40F06387 		bne	.L68
 1545              		.loc 1 294 0
 1546 0938 FFF7FEFF 		bl	isEpuckVersion1_3
 1547              	.LVL103:
 1548 093c 0028     		cmp	r0, #0
 1549 093e 00F05E87 		beq	.L68
 1550              		.loc 1 295 0
 1551 0942 924B     		ldr	r3, .L692+12
 1552 0944 CDE90FBB 		strd	fp, fp, [sp, #60]
 1553 0948 CDE90DBB 		strd	fp, fp, [sp, #52]
 1554 094c CDE90BBB 		strd	fp, fp, [sp, #44]
 1555 0950 83ED008A 		vstr.32	s16, [r3]
 1556              		.loc 1 296 0
 1557 0954 83ED028A 		vstr.32	s16, [r3, #8]
 1558              		.loc 1 297 0
 1559 0958 83ED018A 		vstr.32	s16, [r3, #4]
 1560 095c 5846     		mov	r0, fp
 1561 095e 5C46     		mov	r4, fp
 1562 0960 5D46     		mov	r5, fp
 1563 0962 DC46     		mov	ip, fp
 1564 0964 DE46     		mov	lr, fp
 1565 0966 5946     		mov	r1, fp
 1566              	.L67:
 1567              	.LVL104:
 1568              		.loc 1 303 0
 1569 0968 D9F80020 		ldr	r2, [r9]
 1570              		.loc 1 305 0
 1571 096c 08EB0203 		add	r3, r8, r2
 1572              		.loc 1 303 0
 1573 0970 08F80210 		strb	r1, [r8, r2]
 1574              	.LVL105:
 1575              		.loc 1 316 0
 1576 0974 9DF82C10 		ldrb	r1, [sp, #44]	@ zero_extendqisi2
 1577 0978 9971     		strb	r1, [r3, #6]
 1578              		.loc 1 318 0
 1579 097a 9DF83010 		ldrb	r1, [sp, #48]	@ zero_extendqisi2
 1580 097e D971     		strb	r1, [r3, #7]
 1581              		.loc 1 321 0
 1582 0980 9DF83410 		ldrb	r1, [sp, #52]	@ zero_extendqisi2
 1583 0984 1972     		strb	r1, [r3, #8]
 1584              		.loc 1 323 0
 1585 0986 9DF83810 		ldrb	r1, [sp, #56]	@ zero_extendqisi2
 1586 098a 5972     		strb	r1, [r3, #9]
 1587              		.loc 1 325 0
 1588 098c 9DF83C10 		ldrb	r1, [sp, #60]	@ zero_extendqisi2
 1589 0990 9972     		strb	r1, [r3, #10]
 1590              		.loc 1 327 0
 1591 0992 0C32     		adds	r2, r2, #12
 1592 0994 9DF84010 		ldrb	r1, [sp, #64]	@ zero_extendqisi2
 1593              		.loc 1 305 0
 1594 0998 83F801E0 		strb	lr, [r3, #1]
 1595              	.LVL106:
 1596              		.loc 1 307 0
ARM GAS  /var/folders/bw/wdbp2_bd0pn7gl5ybd33xbb80000gn/T//ccZ5cvgj.s 			page 29


 1597 099c 83F802C0 		strb	ip, [r3, #2]
 1598              	.LVL107:
 1599              		.loc 1 309 0
 1600 09a0 DD70     		strb	r5, [r3, #3]
 1601              	.LVL108:
 1602              		.loc 1 312 0
 1603 09a2 1C71     		strb	r4, [r3, #4]
 1604              	.LVL109:
 1605              		.loc 1 314 0
 1606 09a4 5871     		strb	r0, [r3, #5]
 1607              	.LVL110:
 1608              		.loc 1 327 0
 1609 09a6 D972     		strb	r1, [r3, #11]
 1610 09a8 C9F80020 		str	r2, [r9]
 1611              		.loc 1 328 0
 1612 09ac B8E5     		b	.L44
 1613              	.LVL111:
 1614              	.L59:
 1615              		.loc 1 370 0
 1616 09ae BBF1000F 		cmp	fp, #0
 1617 09b2 40F0E787 		bne	.L675
 1618              	.L81:
 1619              		.loc 1 379 0
 1620 09b6 D9F80010 		ldr	r1, [r9]
 1621              		.loc 1 380 0
 1622 09ba 08EB0102 		add	r2, r8, r1
 1623              		.loc 1 379 0
 1624 09be 0023     		movs	r3, #0
 1625              		.loc 1 384 0
 1626 09c0 881D     		adds	r0, r1, #6
 1627              		.loc 1 379 0
 1628 09c2 08F80130 		strb	r3, [r8, r1]
 1629              		.loc 1 384 0
 1630 09c6 C9F80000 		str	r0, [r9]
 1631              		.loc 1 380 0
 1632 09ca 5370     		strb	r3, [r2, #1]
 1633              		.loc 1 381 0
 1634 09cc 9370     		strb	r3, [r2, #2]
 1635              		.loc 1 382 0
 1636 09ce D370     		strb	r3, [r2, #3]
 1637              		.loc 1 383 0
 1638 09d0 1371     		strb	r3, [r2, #4]
 1639              		.loc 1 384 0
 1640 09d2 5371     		strb	r3, [r2, #5]
 1641 09d4 A4E5     		b	.L44
 1642              	.L61:
 1643              		.loc 1 514 0
 1644 09d6 0020     		movs	r0, #0
 1645 09d8 FFF7FEFF 		bl	e_get_micro_volume
 1646              	.LVL112:
 1647              		.loc 1 515 0
 1648 09dc D9F80030 		ldr	r3, [r9]
 1649              		.loc 1 516 0
 1650 09e0 08EB0302 		add	r2, r8, r3
 1651              		.loc 1 515 0
 1652 09e4 08F80300 		strb	r0, [r8, r3]
 1653              		.loc 1 516 0
ARM GAS  /var/folders/bw/wdbp2_bd0pn7gl5ybd33xbb80000gn/T//ccZ5cvgj.s 			page 30


 1654 09e8 0112     		asrs	r1, r0, #8
 1655 09ea 0233     		adds	r3, r3, #2
 1656              		.loc 1 518 0
 1657 09ec 0120     		movs	r0, #1
 1658              		.loc 1 516 0
 1659 09ee 5170     		strb	r1, [r2, #1]
 1660 09f0 C9F80030 		str	r3, [r9]
 1661              		.loc 1 518 0
 1662 09f4 FFF7FEFF 		bl	e_get_micro_volume
 1663              	.LVL113:
 1664              		.loc 1 519 0
 1665 09f8 D9F80030 		ldr	r3, [r9]
 1666              		.loc 1 520 0
 1667 09fc 08EB0302 		add	r2, r8, r3
 1668              		.loc 1 519 0
 1669 0a00 08F80300 		strb	r0, [r8, r3]
 1670              		.loc 1 520 0
 1671 0a04 0112     		asrs	r1, r0, #8
 1672 0a06 0233     		adds	r3, r3, #2
 1673              		.loc 1 522 0
 1674 0a08 0220     		movs	r0, #2
 1675              		.loc 1 520 0
 1676 0a0a 5170     		strb	r1, [r2, #1]
 1677 0a0c C9F80030 		str	r3, [r9]
 1678              		.loc 1 522 0
 1679 0a10 FFF7FEFF 		bl	e_get_micro_volume
 1680              	.LVL114:
 1681 0a14 DDE5     		b	.L657
 1682              	.L56:
 1683              		.loc 1 537 0
 1684 0a16 BBF1000F 		cmp	fp, #0
 1685 0a1a 3FF4A8AD 		beq	.L136
 1686              	.L118:
 1687              		.loc 1 538 0 discriminator 1
 1688 0a1e 5C48     		ldr	r0, .L692+16
 1689 0a20 FFF7FEFF 		bl	e_getchar_uart1
 1690              	.LVL115:
 1691 0a24 0028     		cmp	r0, #0
 1692 0a26 FAD0     		beq	.L118
 1693              		.loc 1 539 0
 1694 0a28 5A4C     		ldr	r4, .L692+20
 1695              	.L119:
 1696              		.loc 1 539 0 is_stmt 0 discriminator 1
 1697 0a2a 2046     		mov	r0, r4
 1698 0a2c FFF7FEFF 		bl	e_getchar_uart1
 1699              	.LVL116:
 1700 0a30 0028     		cmp	r0, #0
 1701 0a32 FAD0     		beq	.L119
 1702              		.loc 1 540 0 is_stmt 1
 1703 0a34 584C     		ldr	r4, .L692+24
 1704              	.L120:
 1705              		.loc 1 540 0 is_stmt 0 discriminator 1
 1706 0a36 2046     		mov	r0, r4
 1707 0a38 FFF7FEFF 		bl	e_getchar_uart1
 1708              	.LVL117:
 1709 0a3c 0028     		cmp	r0, #0
 1710 0a3e FAD0     		beq	.L120
ARM GAS  /var/folders/bw/wdbp2_bd0pn7gl5ybd33xbb80000gn/T//ccZ5cvgj.s 			page 31


 1711              		.loc 1 541 0 is_stmt 1
 1712 0a40 FFF7FEFF 		bl	e_i2cp_enable
 1713              	.LVL118:
 1714              		.loc 1 542 0
 1715 0a44 544B     		ldr	r3, .L692+24
 1716 0a46 1A78     		ldrb	r2, [r3]	@ zero_extendqisi2
 1717 0a48 524B     		ldr	r3, .L692+20
 1718 0a4a 1978     		ldrb	r1, [r3]	@ zero_extendqisi2
 1719 0a4c 504B     		ldr	r3, .L692+16
 1720 0a4e 1878     		ldrb	r0, [r3]	@ zero_extendqisi2
 1721 0a50 FFF7FEFF 		bl	e_i2cp_write
 1722              	.LVL119:
 1723              	.L658:
 1724              		.loc 1 543 0
 1725 0a54 FFF7FEFF 		bl	e_i2cp_disable
 1726              	.LVL120:
 1727 0a58 65E5     		b	.L133
 1728              	.L60:
 1729              		.loc 1 506 0
 1730 0a5a BBF1000F 		cmp	fp, #0
 1731 0a5e 40F0B487 		bne	.L676
 1732              	.L117:
 1733              		.loc 1 509 0
 1734 0a62 D9F80030 		ldr	r3, [r9]
 1735 0a66 0021     		movs	r1, #0
 1736 0a68 5A1C     		adds	r2, r3, #1
 1737 0a6a 08F80310 		strb	r1, [r8, r3]
 1738 0a6e C9F80020 		str	r2, [r9]
 1739 0a72 55E5     		b	.L44
 1740              	.L58:
 1741              		.loc 1 331 0
 1742 0a74 FFF7FEFF 		bl	isEpuckVersion1_3
 1743              	.LVL121:
 1744 0a78 0028     		cmp	r0, #0
 1745 0a7a 40F04C87 		bne	.L677
 1746              		.loc 1 337 0
 1747 0a7e D9F80030 		ldr	r3, [r9]
 1748              		.loc 1 338 0
 1749 0a82 08EB0302 		add	r2, r8, r3
 1750 0a86 991C     		adds	r1, r3, #2
 1751              		.loc 1 337 0
 1752 0a88 08F80300 		strb	r0, [r8, r3]
 1753              		.loc 1 338 0
 1754 0a8c C9F80010 		str	r1, [r9]
 1755 0a90 5070     		strb	r0, [r2, #1]
 1756 0a92 45E5     		b	.L44
 1757              	.L673:
 1758              		.loc 1 548 0
 1759 0a94 FFF7FEFF 		bl	e_i2cp_enable
 1760              	.LVL122:
 1761              		.loc 1 549 0
 1762 0a98 0020     		movs	r0, #0
 1763 0a9a CAF80000 		str	r0, [r10]
 1764 0a9e 01E0     		b	.L122
 1765              	.L678:
 1766 0aa0 DAF80000 		ldr	r0, [r10]
 1767              	.L122:
ARM GAS  /var/folders/bw/wdbp2_bd0pn7gl5ybd33xbb80000gn/T//ccZ5cvgj.s 			page 32


 1768              		.loc 1 550 0 discriminator 1
 1769 0aa4 4044     		add	r0, r0, r8
 1770 0aa6 FFF7FEFF 		bl	e_getchar_uart1
 1771              	.LVL123:
 1772 0aaa 0028     		cmp	r0, #0
 1773 0aac F8D0     		beq	.L678
 1774              		.loc 1 549 0 discriminator 2
 1775 0aae DAF80000 		ldr	r0, [r10]
 1776 0ab2 0130     		adds	r0, r0, #1
 1777 0ab4 1728     		cmp	r0, #23
 1778 0ab6 CAF80000 		str	r0, [r10]
 1779 0aba F3DD     		ble	.L122
 1780              		.loc 1 552 0
 1781 0abc 9220     		movs	r0, #146
 1782 0abe CAF80000 		str	r0, [r10]
 1783 0ac2 01E0     		b	.L125
 1784              	.L679:
 1785 0ac4 DAF80000 		ldr	r0, [r10]
 1786              	.L125:
 1787              		.loc 1 553 0 discriminator 1
 1788 0ac8 7A38     		subs	r0, r0, #122
 1789 0aca 4044     		add	r0, r0, r8
 1790 0acc FFF7FEFF 		bl	e_getchar_uart1
 1791              	.LVL124:
 1792 0ad0 0028     		cmp	r0, #0
 1793 0ad2 F7D0     		beq	.L679
 1794              		.loc 1 552 0 discriminator 2
 1795 0ad4 DAF80000 		ldr	r0, [r10]
 1796 0ad8 0130     		adds	r0, r0, #1
 1797 0ada 9428     		cmp	r0, #148
 1798 0adc CAF80000 		str	r0, [r10]
 1799 0ae0 F2DD     		ble	.L125
 1800              		.loc 1 555 0
 1801 0ae2 A420     		movs	r0, #164
 1802 0ae4 CAF80000 		str	r0, [r10]
 1803 0ae8 01E0     		b	.L128
 1804              	.L680:
 1805 0aea DAF80000 		ldr	r0, [r10]
 1806              	.L128:
 1807              		.loc 1 556 0 discriminator 1
 1808 0aee 8938     		subs	r0, r0, #137
 1809 0af0 4044     		add	r0, r0, r8
 1810 0af2 FFF7FEFF 		bl	e_getchar_uart1
 1811              	.LVL125:
 1812 0af6 0028     		cmp	r0, #0
 1813 0af8 F7D0     		beq	.L680
 1814              		.loc 1 555 0 discriminator 2
 1815 0afa DAF80000 		ldr	r0, [r10]
 1816 0afe 0130     		adds	r0, r0, #1
 1817 0b00 AB28     		cmp	r0, #171
 1818 0b02 CAF80000 		str	r0, [r10]
 1819 0b06 F2DD     		ble	.L128
 1820              		.loc 1 558 0
 1821 0b08 0021     		movs	r1, #0
 1822 0b0a CAF80010 		str	r1, [r10]
 1823              	.L130:
 1824              		.loc 1 559 0 discriminator 3
ARM GAS  /var/folders/bw/wdbp2_bd0pn7gl5ybd33xbb80000gn/T//ccZ5cvgj.s 			page 33


 1825 0b0e 18F80120 		ldrb	r2, [r8, r1]	@ zero_extendqisi2
 1826 0b12 B020     		movs	r0, #176
 1827 0b14 C9B2     		uxtb	r1, r1
 1828 0b16 FFF7FEFF 		bl	e_i2cp_write
 1829              	.LVL126:
 1830              		.loc 1 558 0 discriminator 3
 1831 0b1a DAF80010 		ldr	r1, [r10]
 1832 0b1e 0131     		adds	r1, r1, #1
 1833 0b20 1729     		cmp	r1, #23
 1834 0b22 CAF80010 		str	r1, [r10]
 1835 0b26 F2DD     		ble	.L130
 1836              		.loc 1 561 0
 1837 0b28 9221     		movs	r1, #146
 1838 0b2a CAF80010 		str	r1, [r10]
 1839              	.L131:
 1840              		.loc 1 562 0 discriminator 3
 1841 0b2e 08EB0103 		add	r3, r8, r1
 1842 0b32 B020     		movs	r0, #176
 1843 0b34 C9B2     		uxtb	r1, r1
 1844 0b36 13F87A2C 		ldrb	r2, [r3, #-122]	@ zero_extendqisi2
 1845 0b3a FFF7FEFF 		bl	e_i2cp_write
 1846              	.LVL127:
 1847              		.loc 1 561 0 discriminator 3
 1848 0b3e DAF80010 		ldr	r1, [r10]
 1849 0b42 0131     		adds	r1, r1, #1
 1850 0b44 9429     		cmp	r1, #148
 1851 0b46 CAF80010 		str	r1, [r10]
 1852 0b4a F0DD     		ble	.L131
 1853              		.loc 1 564 0
 1854 0b4c A421     		movs	r1, #164
 1855 0b4e CAF80010 		str	r1, [r10]
 1856              	.L132:
 1857              		.loc 1 565 0 discriminator 3
 1858 0b52 08EB0103 		add	r3, r8, r1
 1859 0b56 B020     		movs	r0, #176
 1860 0b58 C9B2     		uxtb	r1, r1
 1861 0b5a 13F8892C 		ldrb	r2, [r3, #-137]	@ zero_extendqisi2
 1862 0b5e FFF7FEFF 		bl	e_i2cp_write
 1863              	.LVL128:
 1864              		.loc 1 564 0 discriminator 3
 1865 0b62 DAF80010 		ldr	r1, [r10]
 1866 0b66 0131     		adds	r1, r1, #1
 1867 0b68 AB29     		cmp	r1, #171
 1868 0b6a CAF80010 		str	r1, [r10]
 1869 0b6e F0DD     		ble	.L132
 1870              		.loc 1 567 0
 1871 0b70 0122     		movs	r2, #1
 1872 0b72 9121     		movs	r1, #145
 1873 0b74 B020     		movs	r0, #176
 1874 0b76 FFF7FEFF 		bl	e_i2cp_write
 1875              	.LVL129:
 1876              		.loc 1 568 0
 1877 0b7a FFF7FEFF 		bl	e_i2cp_disable
 1878              	.LVL130:
 1879 0b7e D2E4     		b	.L133
 1880              	.L693:
 1881              		.align	2
ARM GAS  /var/folders/bw/wdbp2_bd0pn7gl5ybd33xbb80000gn/T//ccZ5cvgj.s 			page 34


 1882              	.L692:
 1883 0b80 00000000 		.word	.LANCHOR17
 1884 0b84 00000000 		.word	.LANCHOR16
 1885 0b88 00000000 		.word	.LANCHOR8
 1886 0b8c 00000000 		.word	.LANCHOR15
 1887 0b90 00000000 		.word	.LANCHOR25
 1888 0b94 00000000 		.word	.LANCHOR26
 1889 0b98 00000000 		.word	.LANCHOR27
 1890              	.LVL131:
 1891              	.L666:
 1892              	.LBB3:
 1893              		.loc 1 616 0
 1894 0b9c FFF7FEFF 		bl	__locale_ctype_ptr
 1895              	.LVL132:
 1896 0ba0 2044     		add	r0, r0, r4
 1897 0ba2 4378     		ldrb	r3, [r0, #1]	@ zero_extendqisi2
 1898 0ba4 03F00303 		and	r3, r3, #3
 1899 0ba8 022B     		cmp	r3, #2
 1900 0baa 08BF     		it	eq
 1901 0bac 203C     		subeq	r4, r4, #32
 1902              	.LVL133:
 1903              	.LBE3:
 1904 0bae E4B2     		uxtb	r4, r4
 1905              		.loc 1 618 0
 1906 0bb0 A4F14103 		sub	r3, r4, #65
 1907              		.loc 1 616 0
 1908 0bb4 88F80040 		strb	r4, [r8]
 1909              		.loc 1 618 0
 1910 0bb8 332B     		cmp	r3, #51
 1911 0bba 00F2D285 		bhi	.L162
 1912 0bbe 01A2     		adr	r2, .L164
 1913 0bc0 52F823F0 		ldr	pc, [r2, r3, lsl #2]
 1914              		.p2align 2
 1915              	.L164:
 1916 0bc4 F5110000 		.word	.L163+1
 1917 0bc8 E3120000 		.word	.L165+1
 1918 0bcc 8B120000 		.word	.L166+1
 1919 0bd0 5D130000 		.word	.L167+1
 1920 0bd4 7F110000 		.word	.L168+1
 1921 0bd8 35170000 		.word	.L169+1
 1922 0bdc 95130000 		.word	.L170+1
 1923 0be0 09140000 		.word	.L171+1
 1924 0be4 B1110000 		.word	.L172+1
 1925 0be8 65160000 		.word	.L173+1
 1926 0bec 41120000 		.word	.L174+1
 1927 0bf0 D5130000 		.word	.L175+1
 1928 0bf4 A3100000 		.word	.L176+1
 1929 0bf8 B10F0000 		.word	.L177+1
 1930 0bfc D50E0000 		.word	.L178+1
 1931 0c00 670E0000 		.word	.L179+1
 1932 0c04 2F0E0000 		.word	.L180+1
 1933 0c08 C3000000 		.word	.L4+1
 1934 0c0c 73100000 		.word	.L181+1
 1935 0c10 9F0E0000 		.word	.L182+1
 1936 0c14 2D100000 		.word	.L183+1
 1937 0c18 F10D0000 		.word	.L184+1
 1938 0c1c AD0D0000 		.word	.L185+1
ARM GAS  /var/folders/bw/wdbp2_bd0pn7gl5ybd33xbb80000gn/T//ccZ5cvgj.s 			page 35


 1939 0c20 63170000 		.word	.L162+1
 1940 0c24 350D0000 		.word	.L186+1
 1941 0c28 CF0C0000 		.word	.L187+1
 1942 0c2c 63170000 		.word	.L162+1
 1943 0c30 63170000 		.word	.L162+1
 1944 0c34 63170000 		.word	.L162+1
 1945 0c38 63170000 		.word	.L162+1
 1946 0c3c 63170000 		.word	.L162+1
 1947 0c40 63170000 		.word	.L162+1
 1948 0c44 63170000 		.word	.L162+1
 1949 0c48 211A0000 		.word	.L154+1
 1950 0c4c 63170000 		.word	.L162+1
 1951 0c50 63170000 		.word	.L162+1
 1952 0c54 63170000 		.word	.L162+1
 1953 0c58 63170000 		.word	.L162+1
 1954 0c5c E1010000 		.word	.L160+1
 1955 0c60 63170000 		.word	.L162+1
 1956 0c64 63170000 		.word	.L162+1
 1957 0c68 63170000 		.word	.L162+1
 1958 0c6c 63170000 		.word	.L162+1
 1959 0c70 63170000 		.word	.L162+1
 1960 0c74 63170000 		.word	.L162+1
 1961 0c78 63170000 		.word	.L162+1
 1962 0c7c 63170000 		.word	.L162+1
 1963 0c80 63170000 		.word	.L162+1
 1964 0c84 63170000 		.word	.L162+1
 1965 0c88 63170000 		.word	.L162+1
 1966 0c8c 63170000 		.word	.L162+1
 1967 0c90 950C0000 		.word	.L188+1
 1968              		.p2align 1
 1969              	.L188:
 1970              	.LBB4:
 1971              		.loc 1 998 0
 1972 0c94 099B     		ldr	r3, [sp, #36]
 1973 0c96 002B     		cmp	r3, #0
 1974 0c98 00F0FA86 		beq	.L328
 1975              		.loc 1 998 0 is_stmt 0 discriminator 1
 1976 0c9c FFF7FEFF 		bl	isEpuckVersion1_3
 1977              	.LVL134:
 1978 0ca0 0028     		cmp	r0, #0
 1979 0ca2 41F05F81 		bne	.L681
 1980              		.loc 1 1001 0 is_stmt 1
 1981 0ca6 AA4B     		ldr	r3, .L694
 1982 0ca8 93E80300 		ldm	r3, {r0, r1}
 1983 0cac A94B     		ldr	r3, .L694+4
 1984 0cae C8F80000 		str	r0, [r8]
 1985 0cb2 1980     		strh	r1, [r3]	@ movhi
 1986              	.L354:
 1987              		.loc 1 1004 0
 1988 0cb4 A848     		ldr	r0, .L694+8
 1989 0cb6 FFF7FEFF 		bl	strlen
 1990              	.LVL135:
 1991 0cba 0146     		mov	r1, r0
 1992 0cbc A648     		ldr	r0, .L694+8
 1993 0cbe FFF7FEFF 		bl	e_send_uart1_char
 1994              	.LVL136:
 1995              	.L330:
ARM GAS  /var/folders/bw/wdbp2_bd0pn7gl5ybd33xbb80000gn/T//ccZ5cvgj.s 			page 36


 1996              		.loc 1 1004 0 is_stmt 0 discriminator 2
 1997 0cc2 FFF7FEFF 		bl	e_uart1_sending
 1998              	.LVL137:
 1999 0cc6 0028     		cmp	r0, #0
 2000 0cc8 FBD1     		bne	.L330
 2001 0cca FFF7FAB9 		b	.L4
 2002              	.L187:
 2003              		.loc 1 1058 0 is_stmt 1
 2004 0cce 099B     		ldr	r3, [sp, #36]
 2005 0cd0 002B     		cmp	r3, #0
 2006 0cd2 3FF4A3AA 		beq	.L626
 2007              		.loc 1 1059 0
 2008 0cd6 0223     		movs	r3, #2
 2009              		.loc 1 1064 0
 2010 0cd8 A04D     		ldr	r5, .L694+12
 2011 0cda 9F4C     		ldr	r4, .L694+8
 2012              		.loc 1 1059 0
 2013 0cdc CAF80030 		str	r3, [r10]
 2014 0ce0 07E0     		b	.L347
 2015              	.L345:
 2016 0ce2 DAF80030 		ldr	r3, [r10]
 2017 0ce6 0233     		adds	r3, r3, #2
 2018 0ce8 FE2B     		cmp	r3, #254
 2019 0cea CAF80030 		str	r3, [r10]
 2020 0cee 3FF7E8A9 		bgt	.L4
 2021              	.L347:
 2022              		.loc 1 1060 0
 2023 0cf2 FFF7FEFF 		bl	e_i2cp_enable
 2024              	.LVL138:
 2025              		.loc 1 1061 0
 2026 0cf6 0021     		movs	r1, #0
 2027 0cf8 9AF80000 		ldrb	r0, [r10]	@ zero_extendqisi2
 2028 0cfc FFF7FEFF 		bl	e_i2cp_read
 2029              	.LVL139:
 2030 0d00 974B     		ldr	r3, .L694+16
 2031 0d02 1E46     		mov	r6, r3
 2032 0d04 1860     		str	r0, [r3]
 2033              		.loc 1 1062 0
 2034 0d06 FFF7FEFF 		bl	e_i2cp_disable
 2035              	.LVL140:
 2036              		.loc 1 1063 0
 2037 0d0a 3368     		ldr	r3, [r6]
 2038 0d0c 002B     		cmp	r3, #0
 2039 0d0e E8DB     		blt	.L345
 2040              		.loc 1 1064 0
 2041 0d10 2946     		mov	r1, r5
 2042 0d12 DAF80020 		ldr	r2, [r10]
 2043 0d16 2046     		mov	r0, r4
 2044 0d18 FFF7FEFF 		bl	sprintf
 2045              	.LVL141:
 2046              		.loc 1 1065 0
 2047 0d1c 2046     		mov	r0, r4
 2048 0d1e FFF7FEFF 		bl	strlen
 2049              	.LVL142:
 2050 0d22 0146     		mov	r1, r0
 2051 0d24 2046     		mov	r0, r4
 2052 0d26 FFF7FEFF 		bl	e_send_uart1_char
ARM GAS  /var/folders/bw/wdbp2_bd0pn7gl5ybd33xbb80000gn/T//ccZ5cvgj.s 			page 37


 2053              	.LVL143:
 2054              	.L346:
 2055              		.loc 1 1065 0 is_stmt 0 discriminator 2
 2056 0d2a FFF7FEFF 		bl	e_uart1_sending
 2057              	.LVL144:
 2058 0d2e 0028     		cmp	r0, #0
 2059 0d30 FBD1     		bne	.L346
 2060 0d32 D6E7     		b	.L345
 2061              	.L186:
 2062              		.loc 1 1041 0 is_stmt 1
 2063 0d34 099B     		ldr	r3, [sp, #36]
 2064 0d36 002B     		cmp	r3, #0
 2065 0d38 3FF470AA 		beq	.L626
 2066              		.loc 1 1042 0
 2067 0d3c 894B     		ldr	r3, .L694+20
 2068 0d3e 8A4A     		ldr	r2, .L694+24
 2069 0d40 8A49     		ldr	r1, .L694+28
 2070 0d42 8548     		ldr	r0, .L694+8
 2071 0d44 FFF7FEFF 		bl	sscanf
 2072              	.LVL145:
 2073              		.loc 1 1044 0
 2074 0d48 864B     		ldr	r3, .L694+20
 2075 0d4a 874A     		ldr	r2, .L694+24
 2076 0d4c 8849     		ldr	r1, .L694+32
 2077 0d4e 1B68     		ldr	r3, [r3]
 2078 0d50 1268     		ldr	r2, [r2]
 2079 0d52 8148     		ldr	r0, .L694+8
 2080 0d54 FFF7FEFF 		bl	sprintf
 2081              	.LVL146:
 2082              		.loc 1 1045 0
 2083 0d58 7F48     		ldr	r0, .L694+8
 2084 0d5a FFF7FEFF 		bl	strlen
 2085              	.LVL147:
 2086 0d5e 0146     		mov	r1, r0
 2087 0d60 7D48     		ldr	r0, .L694+8
 2088 0d62 FFF7FEFF 		bl	e_send_uart1_char
 2089              	.LVL148:
 2090              	.L343:
 2091              		.loc 1 1045 0 is_stmt 0 discriminator 2
 2092 0d66 FFF7FEFF 		bl	e_uart1_sending
 2093              	.LVL149:
 2094 0d6a 0028     		cmp	r0, #0
 2095 0d6c FBD1     		bne	.L343
 2096              		.loc 1 1050 0 is_stmt 1
 2097 0d6e FFF7FEFF 		bl	e_i2cp_enable
 2098              	.LVL150:
 2099              		.loc 1 1051 0
 2100 0d72 7C4B     		ldr	r3, .L694+20
 2101 0d74 1978     		ldrb	r1, [r3]	@ zero_extendqisi2
 2102 0d76 7C4B     		ldr	r3, .L694+24
 2103 0d78 1878     		ldrb	r0, [r3]	@ zero_extendqisi2
 2104 0d7a FFF7FEFF 		bl	e_i2cp_read
 2105              	.LVL151:
 2106 0d7e 784B     		ldr	r3, .L694+16
 2107 0d80 1C46     		mov	r4, r3
 2108 0d82 1860     		str	r0, [r3]
 2109              		.loc 1 1052 0
ARM GAS  /var/folders/bw/wdbp2_bd0pn7gl5ybd33xbb80000gn/T//ccZ5cvgj.s 			page 38


 2110 0d84 FFF7FEFF 		bl	e_i2cp_disable
 2111              	.LVL152:
 2112              		.loc 1 1053 0
 2113 0d88 7A49     		ldr	r1, .L694+36
 2114 0d8a 2268     		ldr	r2, [r4]
 2115 0d8c 7248     		ldr	r0, .L694+8
 2116 0d8e FFF7FEFF 		bl	sprintf
 2117              	.LVL153:
 2118              		.loc 1 1054 0
 2119 0d92 7148     		ldr	r0, .L694+8
 2120 0d94 FFF7FEFF 		bl	strlen
 2121              	.LVL154:
 2122 0d98 0146     		mov	r1, r0
 2123 0d9a 6F48     		ldr	r0, .L694+8
 2124 0d9c FFF7FEFF 		bl	e_send_uart1_char
 2125              	.LVL155:
 2126              	.L344:
 2127              		.loc 1 1054 0 is_stmt 0 discriminator 2
 2128 0da0 FFF7FEFF 		bl	e_uart1_sending
 2129              	.LVL156:
 2130 0da4 0028     		cmp	r0, #0
 2131 0da6 FBD1     		bne	.L344
 2132 0da8 FFF78BB9 		b	.L4
 2133              	.L185:
 2134              		.loc 1 1032 0 is_stmt 1
 2135 0dac 099B     		ldr	r3, [sp, #36]
 2136 0dae 002B     		cmp	r3, #0
 2137 0db0 3FF434AA 		beq	.L626
 2138              		.loc 1 1033 0
 2139 0db4 6A4B     		ldr	r3, .L694+16
 2140 0db6 6C4A     		ldr	r2, .L694+24
 2141 0db8 6F49     		ldr	r1, .L694+40
 2142 0dba 0093     		str	r3, [sp]
 2143 0dbc 1C46     		mov	r4, r3
 2144 0dbe 6648     		ldr	r0, .L694+8
 2145 0dc0 684B     		ldr	r3, .L694+20
 2146 0dc2 FFF7FEFF 		bl	sscanf
 2147              	.LVL157:
 2148              		.loc 1 1034 0
 2149 0dc6 FFF7FEFF 		bl	e_i2cp_enable
 2150              	.LVL158:
 2151              		.loc 1 1035 0
 2152 0dca 664B     		ldr	r3, .L694+20
 2153 0dcc 2278     		ldrb	r2, [r4]	@ zero_extendqisi2
 2154 0dce 1978     		ldrb	r1, [r3]	@ zero_extendqisi2
 2155 0dd0 654B     		ldr	r3, .L694+24
 2156 0dd2 1878     		ldrb	r0, [r3]	@ zero_extendqisi2
 2157 0dd4 FFF7FEFF 		bl	e_i2cp_write
 2158              	.LVL159:
 2159              		.loc 1 1036 0
 2160 0dd8 FFF7FEFF 		bl	e_i2cp_disable
 2161              	.LVL160:
 2162              		.loc 1 1037 0
 2163 0ddc 0321     		movs	r1, #3
 2164 0dde 6748     		ldr	r0, .L694+44
 2165 0de0 FFF7FEFF 		bl	e_send_uart1_char
 2166              	.LVL161:
ARM GAS  /var/folders/bw/wdbp2_bd0pn7gl5ybd33xbb80000gn/T//ccZ5cvgj.s 			page 39


 2167              	.L342:
 2168              		.loc 1 1037 0 is_stmt 0 discriminator 2
 2169 0de4 FFF7FEFF 		bl	e_uart1_sending
 2170              	.LVL162:
 2171 0de8 0028     		cmp	r0, #0
 2172 0dea FBD1     		bne	.L342
 2173 0dec FFF769B9 		b	.L4
 2174              	.L184:
 2175              		.loc 1 1019 0 is_stmt 1
 2176 0df0 099B     		ldr	r3, [sp, #36]
 2177              		.loc 1 1020 0
 2178 0df2 6348     		ldr	r0, .L694+48
 2179 0df4 2621     		movs	r1, #38
 2180              		.loc 1 1019 0
 2181 0df6 002B     		cmp	r3, #0
 2182 0df8 00F0C086 		beq	.L335
 2183              		.loc 1 1020 0
 2184 0dfc FFF7FEFF 		bl	e_send_uart1_char
 2185              	.LVL163:
 2186              	.L336:
 2187              		.loc 1 1020 0 is_stmt 0 discriminator 2
 2188 0e00 FFF7FEFF 		bl	e_uart1_sending
 2189              	.LVL164:
 2190 0e04 0028     		cmp	r0, #0
 2191 0e06 FBD1     		bne	.L336
 2192              		.loc 1 1024 0 is_stmt 1
 2193 0e08 5E4B     		ldr	r3, .L694+52
 2194 0e0a 5F49     		ldr	r1, .L694+56
 2195 0e0c 1A68     		ldr	r2, [r3]
 2196 0e0e 5248     		ldr	r0, .L694+8
 2197 0e10 FFF7FEFF 		bl	sprintf
 2198              	.LVL165:
 2199              		.loc 1 1026 0
 2200 0e14 5048     		ldr	r0, .L694+8
 2201 0e16 FFF7FEFF 		bl	strlen
 2202              	.LVL166:
 2203 0e1a 0146     		mov	r1, r0
 2204 0e1c 4E48     		ldr	r0, .L694+8
 2205 0e1e FFF7FEFF 		bl	e_send_uart1_char
 2206              	.LVL167:
 2207              	.L340:
 2208              		.loc 1 1026 0 is_stmt 0 discriminator 2
 2209 0e22 FFF7FEFF 		bl	e_uart1_sending
 2210              	.LVL168:
 2211 0e26 0028     		cmp	r0, #0
 2212 0e28 FBD1     		bne	.L340
 2213 0e2a FFF74AB9 		b	.L4
 2214              	.L180:
 2215              		.loc 1 942 0 is_stmt 1
 2216 0e2e FFF7FEFF 		bl	e_get_steps_left
 2217              	.LVL169:
 2218 0e32 0446     		mov	r4, r0
 2219 0e34 FFF7FEFF 		bl	e_get_steps_right
 2220              	.LVL170:
 2221 0e38 2246     		mov	r2, r4
 2222 0e3a 0346     		mov	r3, r0
 2223 0e3c 5349     		ldr	r1, .L694+60
ARM GAS  /var/folders/bw/wdbp2_bd0pn7gl5ybd33xbb80000gn/T//ccZ5cvgj.s 			page 40


 2224 0e3e 4648     		ldr	r0, .L694+8
 2225 0e40 FFF7FEFF 		bl	sprintf
 2226              	.LVL171:
 2227              		.loc 1 943 0
 2228 0e44 099B     		ldr	r3, [sp, #36]
 2229              		.loc 1 944 0
 2230 0e46 4448     		ldr	r0, .L694+8
 2231              		.loc 1 943 0
 2232 0e48 002B     		cmp	r3, #0
 2233 0e4a 00F0B086 		beq	.L310
 2234              		.loc 1 944 0
 2235 0e4e FFF7FEFF 		bl	strlen
 2236              	.LVL172:
 2237 0e52 0146     		mov	r1, r0
 2238 0e54 4048     		ldr	r0, .L694+8
 2239 0e56 FFF7FEFF 		bl	e_send_uart1_char
 2240              	.LVL173:
 2241              	.L311:
 2242              		.loc 1 944 0 is_stmt 0 discriminator 2
 2243 0e5a FFF7FEFF 		bl	e_uart1_sending
 2244              	.LVL174:
 2245 0e5e 0028     		cmp	r0, #0
 2246 0e60 FBD1     		bne	.L311
 2247 0e62 FFF72EB9 		b	.L4
 2248              	.L179:
 2249              		.loc 1 932 0 is_stmt 1
 2250 0e66 4A49     		ldr	r1, .L694+64
 2251 0e68 4A4A     		ldr	r2, .L694+68
 2252 0e6a 4B4B     		ldr	r3, .L694+72
 2253 0e6c 3A48     		ldr	r0, .L694+8
 2254 0e6e FFF7FEFF 		bl	sscanf
 2255              	.LVL175:
 2256              		.loc 1 933 0
 2257 0e72 484B     		ldr	r3, .L694+68
 2258 0e74 1868     		ldr	r0, [r3]
 2259 0e76 FFF7FEFF 		bl	e_set_steps_left
 2260              	.LVL176:
 2261              		.loc 1 934 0
 2262 0e7a 474B     		ldr	r3, .L694+72
 2263 0e7c 1868     		ldr	r0, [r3]
 2264 0e7e FFF7FEFF 		bl	e_set_steps_right
 2265              	.LVL177:
 2266              		.loc 1 935 0
 2267 0e82 099B     		ldr	r3, [sp, #36]
 2268              		.loc 1 936 0
 2269 0e84 4548     		ldr	r0, .L694+76
 2270 0e86 0321     		movs	r1, #3
 2271              		.loc 1 935 0
 2272 0e88 002B     		cmp	r3, #0
 2273 0e8a 00F0C086 		beq	.L307
 2274              		.loc 1 936 0
 2275 0e8e FFF7FEFF 		bl	e_send_uart1_char
 2276              	.LVL178:
 2277              	.L308:
 2278              		.loc 1 936 0 is_stmt 0 discriminator 2
 2279 0e92 FFF7FEFF 		bl	e_uart1_sending
 2280              	.LVL179:
ARM GAS  /var/folders/bw/wdbp2_bd0pn7gl5ybd33xbb80000gn/T//ccZ5cvgj.s 			page 41


 2281 0e96 0028     		cmp	r0, #0
 2282 0e98 FBD1     		bne	.L308
 2283 0e9a FFF712B9 		b	.L4
 2284              	.L182:
 2285              		.loc 1 968 0 is_stmt 1
 2286 0e9e 099B     		ldr	r3, [sp, #36]
 2287 0ea0 002B     		cmp	r3, #0
 2288 0ea2 00F05387 		beq	.L316
 2289              		.loc 1 969 0
 2290 0ea6 3E4A     		ldr	r2, .L694+80
 2291 0ea8 3E49     		ldr	r1, .L694+84
 2292 0eaa 2B48     		ldr	r0, .L694+8
 2293 0eac FFF7FEFF 		bl	sscanf
 2294              	.LVL180:
 2295              		.loc 1 970 0
 2296 0eb0 3D4B     		ldr	r3, .L694+88
 2297 0eb2 1B78     		ldrb	r3, [r3]	@ zero_extendqisi2
 2298 0eb4 002B     		cmp	r3, #0
 2299 0eb6 01F03D80 		beq	.L682
 2300              	.L317:
 2301              		.loc 1 974 0
 2302 0eba 394B     		ldr	r3, .L694+80
 2303 0ebc 1B68     		ldr	r3, [r3]
 2304 0ebe 013B     		subs	r3, r3, #1
 2305 0ec0 042B     		cmp	r3, #4
 2306 0ec2 01F28080 		bhi	.L318
 2307 0ec6 DFE813F0 		tbh	[pc, r3, lsl #1]
 2308              	.L320:
 2309 0eca 7D04     		.2byte	(.L319-.L320)/2
 2310 0ecc 7704     		.2byte	(.L321-.L320)/2
 2311 0ece 7104     		.2byte	(.L322-.L320)/2
 2312 0ed0 6A04     		.2byte	(.L323-.L320)/2
 2313 0ed2 5A04     		.2byte	(.L324-.L320)/2
 2314              		.p2align 1
 2315              	.L178:
 2316              		.loc 1 918 0
 2317 0ed4 099B     		ldr	r3, [sp, #36]
 2318 0ed6 002B     		cmp	r3, #0
 2319 0ed8 00F00A86 		beq	.L304
 2320              		.loc 1 919 0
 2321 0edc 0020     		movs	r0, #0
 2322 0ede FFF7FEFF 		bl	e_get_ambient_light
 2323              	.LVL181:
 2324 0ee2 0D90     		str	r0, [sp, #52]
 2325 0ee4 0120     		movs	r0, #1
 2326 0ee6 FFF7FEFF 		bl	e_get_ambient_light
 2327              	.LVL182:
 2328 0eea 0C90     		str	r0, [sp, #48]
 2329 0eec 0220     		movs	r0, #2
 2330 0eee FFF7FEFF 		bl	e_get_ambient_light
 2331              	.LVL183:
 2332 0ef2 0A90     		str	r0, [sp, #40]
 2333 0ef4 0320     		movs	r0, #3
 2334 0ef6 FFF7FEFF 		bl	e_get_ambient_light
 2335              	.LVL184:
 2336 0efa 0446     		mov	r4, r0
 2337 0efc 0420     		movs	r0, #4
ARM GAS  /var/folders/bw/wdbp2_bd0pn7gl5ybd33xbb80000gn/T//ccZ5cvgj.s 			page 42


 2338 0efe FFF7FEFF 		bl	e_get_ambient_light
 2339              	.LVL185:
 2340 0f02 0546     		mov	r5, r0
 2341 0f04 0520     		movs	r0, #5
 2342 0f06 FFF7FEFF 		bl	e_get_ambient_light
 2343              	.LVL186:
 2344 0f0a 0646     		mov	r6, r0
 2345 0f0c 0620     		movs	r0, #6
 2346 0f0e FFF7FEFF 		bl	e_get_ambient_light
 2347              	.LVL187:
 2348 0f12 0B90     		str	r0, [sp, #44]
 2349 0f14 0720     		movs	r0, #7
 2350 0f16 FFF7FEFF 		bl	e_get_ambient_light
 2351              	.LVL188:
 2352 0f1a 0B99     		ldr	r1, [sp, #44]
 2353 0f1c 0A9B     		ldr	r3, [sp, #40]
 2354 0f1e 0093     		str	r3, [sp]
 2355 0f20 0590     		str	r0, [sp, #20]
 2356 0f22 CDE90361 		strd	r6, r1, [sp, #12]
 2357 0f26 DDE90C32 		ldrd	r3, r2, [sp, #48]
 2358 0f2a 2049     		ldr	r1, .L694+92
 2359 0f2c 0A48     		ldr	r0, .L694+8
 2360 0f2e CDE90145 		strd	r4, r5, [sp, #4]
 2361 0f32 FFF7FEFF 		bl	sprintf
 2362              	.LVL189:
 2363              		.loc 1 922 0
 2364 0f36 0848     		ldr	r0, .L694+8
 2365 0f38 FFF7FEFF 		bl	strlen
 2366              	.LVL190:
 2367 0f3c 0146     		mov	r1, r0
 2368 0f3e 0648     		ldr	r0, .L694+8
 2369 0f40 FFF7FEFF 		bl	e_send_uart1_char
 2370              	.LVL191:
 2371              	.L305:
 2372              		.loc 1 922 0 is_stmt 0 discriminator 2
 2373 0f44 FFF7FEFF 		bl	e_uart1_sending
 2374              	.LVL192:
 2375 0f48 0028     		cmp	r0, #0
 2376 0f4a FBD1     		bne	.L305
 2377 0f4c FFF7B9B8 		b	.L4
 2378              	.L695:
 2379              		.align	2
 2380              	.L694:
 2381 0f50 780A0000 		.word	.LC93
 2382 0f54 04000000 		.word	buffer+4
 2383 0f58 00000000 		.word	buffer
 2384 0f5c 180A0000 		.word	.LC88
 2385 0f60 00000000 		.word	.LANCHOR27
 2386 0f64 00000000 		.word	.LANCHOR26
 2387 0f68 00000000 		.word	.LANCHOR25
 2388 0f6c F8090000 		.word	.LC85
 2389 0f70 040A0000 		.word	.LC86
 2390 0f74 100A0000 		.word	.LC87
 2391 0f78 E8090000 		.word	.LC83
 2392 0f7c F4090000 		.word	.LC84
 2393 0f80 C0090000 		.word	.LC82
 2394 0f84 00000000 		.word	.LANCHOR1
ARM GAS  /var/folders/bw/wdbp2_bd0pn7gl5ybd33xbb80000gn/T//ccZ5cvgj.s 			page 43


 2395 0f88 580A0000 		.word	.LC91
 2396 0f8c 8C090000 		.word	.LC76
 2397 0f90 7C090000 		.word	.LC74
 2398 0f94 00000000 		.word	.LANCHOR24
 2399 0f98 00000000 		.word	.LANCHOR23
 2400 0f9c 88090000 		.word	.LC75
 2401 0fa0 00000000 		.word	.LANCHOR32
 2402 0fa4 9C090000 		.word	.LC78
 2403 0fa8 00000000 		.word	.LANCHOR9
 2404 0fac 3C090000 		.word	.LC72
 2405              	.L177:
 2406              		.loc 1 904 0 is_stmt 1
 2407 0fb0 099B     		ldr	r3, [sp, #36]
 2408 0fb2 002B     		cmp	r3, #0
 2409 0fb4 00F07686 		beq	.L301
 2410              		.loc 1 905 0
 2411 0fb8 0020     		movs	r0, #0
 2412 0fba FFF7FEFF 		bl	e_get_calibrated_prox
 2413              	.LVL193:
 2414 0fbe 0D90     		str	r0, [sp, #52]
 2415 0fc0 0120     		movs	r0, #1
 2416 0fc2 FFF7FEFF 		bl	e_get_calibrated_prox
 2417              	.LVL194:
 2418 0fc6 0C90     		str	r0, [sp, #48]
 2419 0fc8 0220     		movs	r0, #2
 2420 0fca FFF7FEFF 		bl	e_get_calibrated_prox
 2421              	.LVL195:
 2422 0fce 0A90     		str	r0, [sp, #40]
 2423 0fd0 0320     		movs	r0, #3
 2424 0fd2 FFF7FEFF 		bl	e_get_calibrated_prox
 2425              	.LVL196:
 2426 0fd6 0446     		mov	r4, r0
 2427 0fd8 0420     		movs	r0, #4
 2428 0fda FFF7FEFF 		bl	e_get_calibrated_prox
 2429              	.LVL197:
 2430 0fde 0546     		mov	r5, r0
 2431 0fe0 0520     		movs	r0, #5
 2432 0fe2 FFF7FEFF 		bl	e_get_calibrated_prox
 2433              	.LVL198:
 2434 0fe6 0646     		mov	r6, r0
 2435 0fe8 0620     		movs	r0, #6
 2436 0fea FFF7FEFF 		bl	e_get_calibrated_prox
 2437              	.LVL199:
 2438 0fee 0B90     		str	r0, [sp, #44]
 2439 0ff0 0720     		movs	r0, #7
 2440 0ff2 FFF7FEFF 		bl	e_get_calibrated_prox
 2441              	.LVL200:
 2442 0ff6 0B99     		ldr	r1, [sp, #44]
 2443 0ff8 0A9B     		ldr	r3, [sp, #40]
 2444 0ffa 0093     		str	r3, [sp]
 2445 0ffc 0590     		str	r0, [sp, #20]
 2446 0ffe CDE90361 		strd	r6, r1, [sp, #12]
 2447 1002 DDE90C32 		ldrd	r3, r2, [sp, #48]
 2448 1006 C249     		ldr	r1, .L696
 2449 1008 C248     		ldr	r0, .L696+4
 2450 100a CDE90145 		strd	r4, r5, [sp, #4]
 2451 100e FFF7FEFF 		bl	sprintf
ARM GAS  /var/folders/bw/wdbp2_bd0pn7gl5ybd33xbb80000gn/T//ccZ5cvgj.s 			page 44


 2452              	.LVL201:
 2453              		.loc 1 908 0
 2454 1012 C048     		ldr	r0, .L696+4
 2455 1014 FFF7FEFF 		bl	strlen
 2456              	.LVL202:
 2457 1018 0146     		mov	r1, r0
 2458 101a BE48     		ldr	r0, .L696+4
 2459 101c FFF7FEFF 		bl	e_send_uart1_char
 2460              	.LVL203:
 2461              	.L302:
 2462              		.loc 1 908 0 is_stmt 0 discriminator 2
 2463 1020 FFF7FEFF 		bl	e_uart1_sending
 2464              	.LVL204:
 2465 1024 0028     		cmp	r0, #0
 2466 1026 FBD1     		bne	.L302
 2467 1028 FFF74BB8 		b	.L4
 2468              	.L183:
 2469              		.loc 1 1011 0 is_stmt 1
 2470 102c 0020     		movs	r0, #0
 2471 102e FFF7FEFF 		bl	e_get_micro_volume
 2472              	.LVL205:
 2473 1032 0446     		mov	r4, r0
 2474 1034 0120     		movs	r0, #1
 2475 1036 FFF7FEFF 		bl	e_get_micro_volume
 2476              	.LVL206:
 2477 103a 0546     		mov	r5, r0
 2478 103c 0220     		movs	r0, #2
 2479 103e FFF7FEFF 		bl	e_get_micro_volume
 2480              	.LVL207:
 2481 1042 2B46     		mov	r3, r5
 2482 1044 0090     		str	r0, [sp]
 2483 1046 2246     		mov	r2, r4
 2484 1048 B349     		ldr	r1, .L696+8
 2485 104a B248     		ldr	r0, .L696+4
 2486 104c FFF7FEFF 		bl	sprintf
 2487              	.LVL208:
 2488              		.loc 1 1012 0
 2489 1050 099B     		ldr	r3, [sp, #36]
 2490              		.loc 1 1013 0
 2491 1052 B048     		ldr	r0, .L696+4
 2492              		.loc 1 1012 0
 2493 1054 002B     		cmp	r3, #0
 2494 1056 00F0E285 		beq	.L332
 2495              		.loc 1 1013 0
 2496 105a FFF7FEFF 		bl	strlen
 2497              	.LVL209:
 2498 105e 0146     		mov	r1, r0
 2499 1060 AC48     		ldr	r0, .L696+4
 2500 1062 FFF7FEFF 		bl	e_send_uart1_char
 2501              	.LVL210:
 2502              	.L333:
 2503              		.loc 1 1013 0 is_stmt 0 discriminator 2
 2504 1066 FFF7FEFF 		bl	e_uart1_sending
 2505              	.LVL211:
 2506 106a 0028     		cmp	r0, #0
 2507 106c FBD1     		bne	.L333
 2508 106e FFF728B8 		b	.L4
ARM GAS  /var/folders/bw/wdbp2_bd0pn7gl5ybd33xbb80000gn/T//ccZ5cvgj.s 			page 45


 2509              	.L181:
 2510              		.loc 1 958 0 is_stmt 1
 2511 1072 0020     		movs	r0, #0
 2512 1074 FFF7FEFF 		bl	e_set_speed_left
 2513              	.LVL212:
 2514              		.loc 1 959 0
 2515 1078 0020     		movs	r0, #0
 2516 107a FFF7FEFF 		bl	e_set_speed_right
 2517              	.LVL213:
 2518              		.loc 1 960 0
 2519 107e 0021     		movs	r1, #0
 2520 1080 0820     		movs	r0, #8
 2521 1082 FFF7FEFF 		bl	e_set_led
 2522              	.LVL214:
 2523              		.loc 1 961 0
 2524 1086 099B     		ldr	r3, [sp, #36]
 2525              		.loc 1 962 0
 2526 1088 A448     		ldr	r0, .L696+12
 2527 108a 0321     		movs	r1, #3
 2528              		.loc 1 961 0
 2529 108c 002B     		cmp	r3, #0
 2530 108e 00F09A85 		beq	.L313
 2531              		.loc 1 962 0
 2532 1092 FFF7FEFF 		bl	e_send_uart1_char
 2533              	.LVL215:
 2534              	.L314:
 2535              		.loc 1 962 0 is_stmt 0 discriminator 2
 2536 1096 FFF7FEFF 		bl	e_uart1_sending
 2537              	.LVL216:
 2538 109a 0028     		cmp	r0, #0
 2539 109c FBD1     		bne	.L314
 2540 109e FFF710B8 		b	.L4
 2541              	.L176:
 2542              		.loc 1 858 0 is_stmt 1
 2543 10a2 099B     		ldr	r3, [sp, #36]
 2544 10a4 002B     		cmp	r3, #0
 2545 10a6 3FF4B9A8 		beq	.L626
 2546              		.loc 1 860 0
 2547 10aa 0024     		movs	r4, #0
 2548              		.loc 1 859 0
 2549 10ac FFF7FEFF 		bl	e_i2cp_enable
 2550              	.LVL217:
 2551              		.loc 1 860 0
 2552 10b0 CAF80040 		str	r4, [r10]
 2553              	.L296:
 2554 10b4 E3B2     		uxtb	r3, r4
 2555              		.loc 1 861 0
 2556 10b6 E207     		lsls	r2, r4, #31
 2557 10b8 03F10101 		add	r1, r3, #1
 2558              		.loc 1 862 0
 2559 10bc 03F1FF33 		add	r3, r3, #-1
 2560              		.loc 1 861 0
 2561 10c0 4FF0C000 		mov	r0, #192
 2562 10c4 C9B2     		uxtb	r1, r1
 2563              		.loc 1 862 0
 2564 10c6 44BF     		itt	mi
 2565 10c8 C020     		movmi	r0, #192
ARM GAS  /var/folders/bw/wdbp2_bd0pn7gl5ybd33xbb80000gn/T//ccZ5cvgj.s 			page 46


 2566 10ca D9B2     		uxtbmi	r1, r3
 2567 10cc FFF7FEFF 		bl	e_i2cp_read
 2568              	.LVL218:
 2569 10d0 08F80400 		strb	r0, [r8, r4]
 2570              		.loc 1 860 0
 2571 10d4 DAF80040 		ldr	r4, [r10]
 2572 10d8 0134     		adds	r4, r4, #1
 2573 10da 052C     		cmp	r4, #5
 2574 10dc CAF80040 		str	r4, [r10]
 2575 10e0 E8DD     		ble	.L296
 2576              		.loc 1 865 0
 2577 10e2 0D23     		movs	r3, #13
 2578 10e4 CAF80030 		str	r3, [r10]
 2579              	.L299:
 2580 10e8 DAB2     		uxtb	r2, r3
 2581 10ea DC1F     		subs	r4, r3, #7
 2582              		.loc 1 866 0
 2583 10ec 511E     		subs	r1, r2, #1
 2584 10ee DB07     		lsls	r3, r3, #31
 2585              		.loc 1 867 0
 2586 10f0 02F10102 		add	r2, r2, #1
 2587              		.loc 1 866 0
 2588 10f4 4FF0C000 		mov	r0, #192
 2589 10f8 C9B2     		uxtb	r1, r1
 2590              		.loc 1 867 0
 2591 10fa 44BF     		itt	mi
 2592 10fc C020     		movmi	r0, #192
 2593 10fe D1B2     		uxtbmi	r1, r2
 2594 1100 FFF7FEFF 		bl	e_i2cp_read
 2595              	.LVL219:
 2596              		.loc 1 865 0
 2597 1104 DAF80030 		ldr	r3, [r10]
 2598              		.loc 1 867 0
 2599 1108 08F80400 		strb	r0, [r8, r4]
 2600              		.loc 1 865 0
 2601 110c 0133     		adds	r3, r3, #1
 2602 110e 102B     		cmp	r3, #16
 2603 1110 CAF80030 		str	r3, [r10]
 2604 1114 E8DD     		ble	.L299
 2605              		.loc 1 870 0
 2606 1116 FFF7FEFF 		bl	e_i2cp_disable
 2607              	.LVL220:
 2608              		.loc 1 883 0
 2609 111a 98F80950 		ldrb	r5, [r8, #9]	@ zero_extendqisi2
 2610              		.loc 1 881 0
 2611 111e 98F80730 		ldrb	r3, [r8, #7]	@ zero_extendqisi2
 2612              		.loc 1 882 0
 2613 1122 98F80800 		ldrb	r0, [r8, #8]	@ zero_extendqisi2
 2614              		.loc 1 880 0
 2615 1126 98F80620 		ldrb	r2, [r8, #6]	@ zero_extendqisi2
 2616              		.loc 1 879 0
 2617 112a 98F80540 		ldrb	r4, [r8, #5]	@ zero_extendqisi2
 2618              		.loc 1 878 0
 2619 112e 98F80410 		ldrb	r1, [r8, #4]	@ zero_extendqisi2
 2620              		.loc 1 873 0
 2621 1132 00EB0520 		add	r0, r0, r5, lsl #8
 2622 1136 02EB0322 		add	r2, r2, r3, lsl #8
ARM GAS  /var/folders/bw/wdbp2_bd0pn7gl5ybd33xbb80000gn/T//ccZ5cvgj.s 			page 47


 2623 113a 0290     		str	r0, [sp, #8]
 2624              		.loc 1 877 0
 2625 113c 98F80330 		ldrb	r3, [r8, #3]	@ zero_extendqisi2
 2626              		.loc 1 875 0
 2627 1140 98F80100 		ldrb	r0, [r8, #1]	@ zero_extendqisi2
 2628              		.loc 1 876 0
 2629 1144 98F80250 		ldrb	r5, [r8, #2]	@ zero_extendqisi2
 2630              		.loc 1 873 0
 2631 1148 0192     		str	r2, [sp, #4]
 2632              		.loc 1 874 0
 2633 114a 98F80020 		ldrb	r2, [r8]	@ zero_extendqisi2
 2634              		.loc 1 873 0
 2635 114e 01EB0421 		add	r1, r1, r4, lsl #8
 2636 1152 02EB0022 		add	r2, r2, r0, lsl #8
 2637 1156 0091     		str	r1, [sp]
 2638 1158 05EB0323 		add	r3, r5, r3, lsl #8
 2639 115c 7049     		ldr	r1, .L696+16
 2640 115e 6D48     		ldr	r0, .L696+4
 2641 1160 FFF7FEFF 		bl	sprintf
 2642              	.LVL221:
 2643              		.loc 1 893 0
 2644 1164 6B48     		ldr	r0, .L696+4
 2645 1166 FFF7FEFF 		bl	strlen
 2646              	.LVL222:
 2647 116a 0146     		mov	r1, r0
 2648 116c 6948     		ldr	r0, .L696+4
 2649 116e FFF7FEFF 		bl	e_send_uart1_char
 2650              	.LVL223:
 2651              	.L300:
 2652              		.loc 1 893 0 is_stmt 0 discriminator 2
 2653 1172 FFF7FEFF 		bl	e_uart1_sending
 2654              	.LVL224:
 2655 1176 0028     		cmp	r0, #0
 2656 1178 FBD1     		bne	.L300
 2657 117a FEF7A2BF 		b	.L4
 2658              	.L168:
 2659              		.loc 1 676 0 is_stmt 1
 2660 117e 694B     		ldr	r3, .L696+20
 2661 1180 694A     		ldr	r2, .L696+24
 2662 1182 1B68     		ldr	r3, [r3]
 2663 1184 1268     		ldr	r2, [r2]
 2664 1186 6949     		ldr	r1, .L696+28
 2665 1188 6248     		ldr	r0, .L696+4
 2666 118a FFF7FEFF 		bl	sprintf
 2667              	.LVL225:
 2668              		.loc 1 677 0
 2669 118e 099B     		ldr	r3, [sp, #36]
 2670              		.loc 1 678 0
 2671 1190 6048     		ldr	r0, .L696+4
 2672              		.loc 1 677 0
 2673 1192 002B     		cmp	r3, #0
 2674 1194 00F02785 		beq	.L208
 2675              		.loc 1 678 0
 2676 1198 FFF7FEFF 		bl	strlen
 2677              	.LVL226:
 2678 119c 0146     		mov	r1, r0
 2679 119e 5D48     		ldr	r0, .L696+4
ARM GAS  /var/folders/bw/wdbp2_bd0pn7gl5ybd33xbb80000gn/T//ccZ5cvgj.s 			page 48


 2680 11a0 FFF7FEFF 		bl	e_send_uart1_char
 2681              	.LVL227:
 2682              	.L209:
 2683              		.loc 1 678 0 is_stmt 0 discriminator 2
 2684 11a4 FFF7FEFF 		bl	e_uart1_sending
 2685              	.LVL228:
 2686 11a8 0028     		cmp	r0, #0
 2687 11aa FBD1     		bne	.L209
 2688 11ac FEF789BF 		b	.L4
 2689              	.L172:
 2690              		.loc 1 795 0 is_stmt 1
 2691 11b0 099B     		ldr	r3, [sp, #36]
 2692 11b2 002B     		cmp	r3, #0
 2693 11b4 3FF432A8 		beq	.L626
 2694              		.loc 1 796 0
 2695 11b8 1199     		ldr	r1, [sp, #68]
 2696 11ba 129B     		ldr	r3, [sp, #72]
 2697 11bc 0C68     		ldr	r4, [r1]
 2698 11be 1599     		ldr	r1, [sp, #84]
 2699 11c0 149A     		ldr	r2, [sp, #80]
 2700 11c2 0868     		ldr	r0, [r1]
 2701 11c4 1399     		ldr	r1, [sp, #76]
 2702 11c6 1B68     		ldr	r3, [r3]
 2703 11c8 0968     		ldr	r1, [r1]
 2704 11ca 1268     		ldr	r2, [r2]
 2705 11cc 0091     		str	r1, [sp]
 2706 11ce CDE90104 		strd	r0, r4, [sp, #4]
 2707 11d2 5749     		ldr	r1, .L696+32
 2708 11d4 4F48     		ldr	r0, .L696+4
 2709 11d6 FFF7FEFF 		bl	sprintf
 2710              	.LVL229:
 2711              		.loc 1 797 0
 2712 11da 4E48     		ldr	r0, .L696+4
 2713 11dc FFF7FEFF 		bl	strlen
 2714              	.LVL230:
 2715 11e0 0146     		mov	r1, r0
 2716 11e2 4C48     		ldr	r0, .L696+4
 2717 11e4 FFF7FEFF 		bl	e_send_uart1_char
 2718              	.LVL231:
 2719              	.L276:
 2720              		.loc 1 797 0 is_stmt 0 discriminator 2
 2721 11e8 FFF7FEFF 		bl	e_uart1_sending
 2722              	.LVL232:
 2723 11ec 0028     		cmp	r0, #0
 2724 11ee FBD1     		bne	.L276
 2725 11f0 FEF767BF 		b	.L4
 2726              	.L163:
 2727              		.loc 1 620 0 is_stmt 1
 2728 11f4 099B     		ldr	r3, [sp, #36]
 2729 11f6 002B     		cmp	r3, #0
 2730 11f8 00F01D85 		beq	.L189
 2731              		.loc 1 621 0
 2732 11fc 0121     		movs	r1, #1
 2733 11fe 0020     		movs	r0, #0
 2734 1200 FFF7FEFF 		bl	e_get_acc_filtered
 2735              	.LVL233:
 2736 1204 0121     		movs	r1, #1
ARM GAS  /var/folders/bw/wdbp2_bd0pn7gl5ybd33xbb80000gn/T//ccZ5cvgj.s 			page 49


 2737 1206 0446     		mov	r4, r0
 2738 1208 0846     		mov	r0, r1
 2739 120a FFF7FEFF 		bl	e_get_acc_filtered
 2740              	.LVL234:
 2741 120e 0121     		movs	r1, #1
 2742 1210 0546     		mov	r5, r0
 2743 1212 0220     		movs	r0, #2
 2744 1214 FFF7FEFF 		bl	e_get_acc_filtered
 2745              	.LVL235:
 2746 1218 4649     		ldr	r1, .L696+36
 2747 121a 0090     		str	r0, [sp]
 2748 121c 2B46     		mov	r3, r5
 2749 121e 2246     		mov	r2, r4
 2750 1220 3C48     		ldr	r0, .L696+4
 2751 1222 FFF7FEFF 		bl	sprintf
 2752              	.LVL236:
 2753              		.loc 1 630 0
 2754 1226 3B48     		ldr	r0, .L696+4
 2755 1228 FFF7FEFF 		bl	strlen
 2756              	.LVL237:
 2757 122c 0146     		mov	r1, r0
 2758 122e 3948     		ldr	r0, .L696+4
 2759 1230 FFF7FEFF 		bl	e_send_uart1_char
 2760              	.LVL238:
 2761              	.L190:
 2762              		.loc 1 630 0 is_stmt 0 discriminator 2
 2763 1234 FFF7FEFF 		bl	e_uart1_sending
 2764              	.LVL239:
 2765 1238 0028     		cmp	r0, #0
 2766 123a FBD1     		bne	.L190
 2767 123c FEF741BF 		b	.L4
 2768              	.L174:
 2769              		.loc 1 828 0 is_stmt 1
 2770 1240 099B     		ldr	r3, [sp, #36]
 2771              		.loc 1 829 0
 2772 1242 3D48     		ldr	r0, .L696+40
 2773 1244 3E21     		movs	r1, #62
 2774              		.loc 1 828 0
 2775 1246 002B     		cmp	r3, #0
 2776 1248 00F03384 		beq	.L284
 2777              		.loc 1 829 0
 2778 124c FFF7FEFF 		bl	e_send_uart1_char
 2779              	.LVL240:
 2780              	.L285:
 2781              		.loc 1 829 0 is_stmt 0 discriminator 2
 2782 1250 FFF7FEFF 		bl	e_uart1_sending
 2783              	.LVL241:
 2784 1254 0028     		cmp	r0, #0
 2785 1256 FBD1     		bne	.L285
 2786              		.loc 1 834 0 is_stmt 1
 2787 1258 0121     		movs	r1, #1
 2788 125a 0820     		movs	r0, #8
 2789 125c FFF7FEFF 		bl	e_set_led
 2790              	.LVL242:
 2791              		.loc 1 836 0
 2792 1260 4FF4C870 		mov	r0, #400
 2793 1264 FFF7FEFF 		bl	chThdSleep
ARM GAS  /var/folders/bw/wdbp2_bd0pn7gl5ybd33xbb80000gn/T//ccZ5cvgj.s 			page 50


 2794              	.LVL243:
 2795              		.loc 1 837 0
 2796 1268 FFF7FEFF 		bl	e_led_clear
 2797              	.LVL244:
 2798              		.loc 1 839 0
 2799 126c 6420     		movs	r0, #100
 2800 126e FFF7FEFF 		bl	chThdSleep
 2801              	.LVL245:
 2802              		.loc 1 840 0
 2803 1272 FFF7FEFF 		bl	e_calibrate_ir
 2804              	.LVL246:
 2805              		.loc 1 842 0
 2806 1276 1921     		movs	r1, #25
 2807 1278 3048     		ldr	r0, .L696+44
 2808 127a FFF7FEFF 		bl	e_send_uart1_char
 2809              	.LVL247:
 2810              	.L289:
 2811              		.loc 1 842 0 is_stmt 0 discriminator 2
 2812 127e FFF7FEFF 		bl	e_uart1_sending
 2813              	.LVL248:
 2814 1282 0028     		cmp	r0, #0
 2815 1284 FBD1     		bne	.L289
 2816 1286 FEF71CBF 		b	.L4
 2817              	.LVL249:
 2818              	.L166:
 2819              		.loc 1 657 0 is_stmt 1
 2820 128a 2D4A     		ldr	r2, .L696+48
 2821 128c 2D49     		ldr	r1, .L696+52
 2822 128e 1369     		ldr	r3, [r2, #16]
 2823 1290 1069     		ldr	r0, [r2, #16]
 2824 1292 0C69     		ldr	r4, [r1, #16]
 2825 1294 1269     		ldr	r2, [r2, #16]
 2826              		.loc 1 658 0
 2827 1296 2C49     		ldr	r1, .L696+56
 2828              		.loc 1 657 0
 2829 1298 C4F30014 		ubfx	r4, r4, #4, #1
 2830 129c C0F3C030 		ubfx	r0, r0, #15, #1
 2831 12a0 00EB4400 		add	r0, r0, r4, lsl #1
 2832 12a4 C2F38032 		ubfx	r2, r2, #14, #1
 2833 12a8 02EB4002 		add	r2, r2, r0, lsl #1
 2834 12ac C3F34033 		ubfx	r3, r3, #13, #1
 2835 12b0 03EB4203 		add	r3, r3, r2, lsl #1
 2836 12b4 254C     		ldr	r4, .L696+60
 2837              		.loc 1 658 0
 2838 12b6 1748     		ldr	r0, .L696+4
 2839              		.loc 1 657 0
 2840 12b8 2360     		str	r3, [r4]
 2841              		.loc 1 658 0
 2842 12ba 1A46     		mov	r2, r3
 2843 12bc FFF7FEFF 		bl	sprintf
 2844              	.LVL250:
 2845              		.loc 1 659 0
 2846 12c0 099B     		ldr	r3, [sp, #36]
 2847              		.loc 1 660 0
 2848 12c2 1448     		ldr	r0, .L696+4
 2849              		.loc 1 659 0
 2850 12c4 002B     		cmp	r3, #0
ARM GAS  /var/folders/bw/wdbp2_bd0pn7gl5ybd33xbb80000gn/T//ccZ5cvgj.s 			page 51


 2851 12c6 00F0F785 		beq	.L202
 2852              		.loc 1 660 0
 2853 12ca FFF7FEFF 		bl	strlen
 2854              	.LVL251:
 2855 12ce 0146     		mov	r1, r0
 2856 12d0 1048     		ldr	r0, .L696+4
 2857 12d2 FFF7FEFF 		bl	e_send_uart1_char
 2858              	.LVL252:
 2859              	.L203:
 2860              		.loc 1 660 0 is_stmt 0 discriminator 2
 2861 12d6 FFF7FEFF 		bl	e_uart1_sending
 2862              	.LVL253:
 2863 12da 0028     		cmp	r0, #0
 2864 12dc FBD1     		bne	.L203
 2865 12de FEF7F0BE 		b	.L4
 2866              	.L165:
 2867              		.loc 1 648 0 is_stmt 1
 2868 12e2 1B4A     		ldr	r2, .L696+64
 2869 12e4 1B49     		ldr	r1, .L696+68
 2870 12e6 0B48     		ldr	r0, .L696+4
 2871 12e8 FFF7FEFF 		bl	sscanf
 2872              	.LVL254:
 2873              		.loc 1 649 0
 2874 12ec 099B     		ldr	r3, [sp, #36]
 2875 12ee 002B     		cmp	r3, #0
 2876 12f0 00F03E85 		beq	.L199
 2877              		.loc 1 650 0
 2878 12f4 164B     		ldr	r3, .L696+64
 2879 12f6 1868     		ldr	r0, [r3]
 2880 12f8 FFF7FEFF 		bl	e_set_body_led
 2881              	.LVL255:
 2882              		.loc 1 651 0
 2883 12fc 0321     		movs	r1, #3
 2884 12fe 1648     		ldr	r0, .L696+72
 2885 1300 FFF7FEFF 		bl	e_send_uart1_char
 2886              	.LVL256:
 2887              	.L200:
 2888              		.loc 1 651 0 is_stmt 0 discriminator 2
 2889 1304 FFF7FEFF 		bl	e_uart1_sending
 2890              	.LVL257:
 2891 1308 0028     		cmp	r0, #0
 2892 130a FBD1     		bne	.L200
 2893 130c FEF7D9BE 		b	.L4
 2894              	.L697:
 2895              		.align	2
 2896              	.L696:
 2897 1310 FC080000 		.word	.LC70
 2898 1314 00000000 		.word	buffer
 2899 1318 B0090000 		.word	.LC81
 2900 131c 98090000 		.word	.LC77
 2901 1320 E8080000 		.word	.LC69
 2902 1324 00000000 		.word	.LANCHOR7
 2903 1328 00000000 		.word	.LANCHOR8
 2904 132c B4000000 		.word	.LC10
 2905 1330 68080000 		.word	.LC63
 2906 1334 5C000000 		.word	.LC1
 2907 1338 98080000 		.word	.LC66
ARM GAS  /var/folders/bw/wdbp2_bd0pn7gl5ybd33xbb80000gn/T//ccZ5cvgj.s 			page 52


 2908 133c 3C0A0000 		.word	.LC90
 2909 1340 00080240 		.word	1073874944
 2910 1344 000C0240 		.word	1073875968
 2911 1348 9C000000 		.word	.LC7
 2912 134c 00000000 		.word	.LANCHOR0
 2913 1350 00000000 		.word	.LANCHOR28
 2914 1354 90000000 		.word	.LC5
 2915 1358 98000000 		.word	.LC6
 2916              	.L167:
 2917              		.loc 1 666 0 is_stmt 1
 2918 135c 9D49     		ldr	r1, .L698
 2919 135e 9E4A     		ldr	r2, .L698+4
 2920 1360 9E4B     		ldr	r3, .L698+8
 2921 1362 9F48     		ldr	r0, .L698+12
 2922 1364 FFF7FEFF 		bl	sscanf
 2923              	.LVL258:
 2924              		.loc 1 667 0
 2925 1368 9B4B     		ldr	r3, .L698+4
 2926 136a 1868     		ldr	r0, [r3]
 2927 136c FFF7FEFF 		bl	e_set_speed_left
 2928              	.LVL259:
 2929              		.loc 1 668 0
 2930 1370 9A4B     		ldr	r3, .L698+8
 2931 1372 1868     		ldr	r0, [r3]
 2932 1374 FFF7FEFF 		bl	e_set_speed_right
 2933              	.LVL260:
 2934              		.loc 1 669 0
 2935 1378 099B     		ldr	r3, [sp, #36]
 2936              		.loc 1 670 0
 2937 137a 9A48     		ldr	r0, .L698+16
 2938 137c 0321     		movs	r1, #3
 2939              		.loc 1 669 0
 2940 137e 002B     		cmp	r3, #0
 2941 1380 00F02984 		beq	.L205
 2942              		.loc 1 670 0
 2943 1384 FFF7FEFF 		bl	e_send_uart1_char
 2944              	.LVL261:
 2945              	.L206:
 2946              		.loc 1 670 0 is_stmt 0 discriminator 2
 2947 1388 FFF7FEFF 		bl	e_uart1_sending
 2948              	.LVL262:
 2949 138c 0028     		cmp	r0, #0
 2950 138e FBD1     		bne	.L206
 2951 1390 FEF797BE 		b	.L4
 2952              	.L170:
 2953              		.loc 1 694 0 is_stmt 1
 2954 1394 099B     		ldr	r3, [sp, #36]
 2955 1396 002B     		cmp	r3, #0
 2956 1398 3EF440AF 		beq	.L626
 2957              		.loc 1 695 0
 2958 139c FFF7FEFF 		bl	e_get_check
 2959              	.LVL263:
 2960 13a0 0446     		mov	r4, r0
 2961 13a2 FFF7FEFF 		bl	e_get_address
 2962              	.LVL264:
 2963 13a6 0546     		mov	r5, r0
 2964 13a8 FFF7FEFF 		bl	e_get_data
ARM GAS  /var/folders/bw/wdbp2_bd0pn7gl5ybd33xbb80000gn/T//ccZ5cvgj.s 			page 53


 2965              	.LVL265:
 2966 13ac 8E49     		ldr	r1, .L698+20
 2967 13ae 0090     		str	r0, [sp]
 2968 13b0 2B46     		mov	r3, r5
 2969 13b2 2246     		mov	r2, r4
 2970 13b4 8A48     		ldr	r0, .L698+12
 2971 13b6 FFF7FEFF 		bl	sprintf
 2972              	.LVL266:
 2973              		.loc 1 696 0
 2974 13ba 8948     		ldr	r0, .L698+12
 2975 13bc FFF7FEFF 		bl	strlen
 2976              	.LVL267:
 2977 13c0 0146     		mov	r1, r0
 2978 13c2 8748     		ldr	r0, .L698+12
 2979 13c4 FFF7FEFF 		bl	e_send_uart1_char
 2980              	.LVL268:
 2981              	.L214:
 2982              		.loc 1 696 0 is_stmt 0 discriminator 2
 2983 13c8 FFF7FEFF 		bl	e_uart1_sending
 2984              	.LVL269:
 2985 13cc 0028     		cmp	r0, #0
 2986 13ce FBD1     		bne	.L214
 2987 13d0 FEF777BE 		b	.L4
 2988              	.L175:
 2989              		.loc 1 848 0 is_stmt 1
 2990 13d4 854B     		ldr	r3, .L698+24
 2991 13d6 864A     		ldr	r2, .L698+28
 2992 13d8 8649     		ldr	r1, .L698+32
 2993 13da 8148     		ldr	r0, .L698+12
 2994 13dc FFF7FEFF 		bl	sscanf
 2995              	.LVL270:
 2996              		.loc 1 849 0
 2997 13e0 824B     		ldr	r3, .L698+24
 2998 13e2 1968     		ldr	r1, [r3]
 2999 13e4 824B     		ldr	r3, .L698+28
 3000 13e6 1868     		ldr	r0, [r3]
 3001 13e8 FFF7FEFF 		bl	e_set_led
 3002              	.LVL271:
 3003              		.loc 1 850 0
 3004 13ec 099B     		ldr	r3, [sp, #36]
 3005              		.loc 1 851 0
 3006 13ee 8248     		ldr	r0, .L698+36
 3007 13f0 0321     		movs	r1, #3
 3008              		.loc 1 850 0
 3009 13f2 002B     		cmp	r3, #0
 3010 13f4 00F00384 		beq	.L291
 3011              		.loc 1 851 0
 3012 13f8 FFF7FEFF 		bl	e_send_uart1_char
 3013              	.LVL272:
 3014              	.L292:
 3015              		.loc 1 851 0 is_stmt 0 discriminator 2
 3016 13fc FFF7FEFF 		bl	e_uart1_sending
 3017              	.LVL273:
 3018 1400 0028     		cmp	r0, #0
 3019 1402 FBD1     		bne	.L292
 3020 1404 FEF75DBE 		b	.L4
 3021              	.L171:
ARM GAS  /var/folders/bw/wdbp2_bd0pn7gl5ybd33xbb80000gn/T//ccZ5cvgj.s 			page 54


 3022              		.loc 1 714 0 is_stmt 1
 3023 1408 099B     		ldr	r3, [sp, #36]
 3024              		.loc 1 715 0
 3025 140a 7C48     		ldr	r0, .L698+40
 3026 140c 0121     		movs	r1, #1
 3027              		.loc 1 714 0
 3028 140e 002B     		cmp	r3, #0
 3029 1410 00F0B884 		beq	.L219
 3030              		.loc 1 715 0
 3031 1414 FFF7FEFF 		bl	e_send_uart1_char
 3032              	.LVL274:
 3033              	.L220:
 3034              		.loc 1 715 0 is_stmt 0 discriminator 2
 3035 1418 FFF7FEFF 		bl	e_uart1_sending
 3036              	.LVL275:
 3037 141c 0028     		cmp	r0, #0
 3038 141e FBD1     		bne	.L220
 3039              		.loc 1 716 0 is_stmt 1
 3040 1420 2121     		movs	r1, #33
 3041 1422 7748     		ldr	r0, .L698+44
 3042 1424 FFF7FEFF 		bl	e_send_uart1_char
 3043              	.LVL276:
 3044              	.L221:
 3045              		.loc 1 716 0 is_stmt 0 discriminator 2
 3046 1428 FFF7FEFF 		bl	e_uart1_sending
 3047              	.LVL277:
 3048 142c 0028     		cmp	r0, #0
 3049 142e FBD1     		bne	.L221
 3050              		.loc 1 717 0 is_stmt 1
 3051 1430 3121     		movs	r1, #49
 3052 1432 7448     		ldr	r0, .L698+48
 3053 1434 FFF7FEFF 		bl	e_send_uart1_char
 3054              	.LVL278:
 3055              	.L222:
 3056              		.loc 1 717 0 is_stmt 0 discriminator 2
 3057 1438 FFF7FEFF 		bl	e_uart1_sending
 3058              	.LVL279:
 3059 143c 0028     		cmp	r0, #0
 3060 143e FBD1     		bne	.L222
 3061              		.loc 1 718 0 is_stmt 1
 3062 1440 FFF7FEFF 		bl	isEpuckVersion1_3
 3063              	.LVL280:
 3064 1444 0028     		cmp	r0, #0
 3065 1446 00F06B85 		beq	.L223
 3066              		.loc 1 719 0
 3067 144a 2121     		movs	r1, #33
 3068 144c 6E48     		ldr	r0, .L698+52
 3069 144e FFF7FEFF 		bl	e_send_uart1_char
 3070              	.LVL281:
 3071              	.L224:
 3072              		.loc 1 719 0 is_stmt 0 discriminator 2
 3073 1452 FFF7FEFF 		bl	e_uart1_sending
 3074              	.LVL282:
 3075 1456 0028     		cmp	r0, #0
 3076 1458 FBD1     		bne	.L224
 3077              	.L225:
 3078              		.loc 1 723 0 is_stmt 1
ARM GAS  /var/folders/bw/wdbp2_bd0pn7gl5ybd33xbb80000gn/T//ccZ5cvgj.s 			page 55


 3079 145a 2521     		movs	r1, #37
 3080 145c 6B48     		ldr	r0, .L698+56
 3081 145e FFF7FEFF 		bl	e_send_uart1_char
 3082              	.LVL283:
 3083              	.L227:
 3084              		.loc 1 723 0 is_stmt 0 discriminator 2
 3085 1462 FFF7FEFF 		bl	e_uart1_sending
 3086              	.LVL284:
 3087 1466 0028     		cmp	r0, #0
 3088 1468 FBD1     		bne	.L227
 3089              		.loc 1 724 0 is_stmt 1
 3090 146a 2E21     		movs	r1, #46
 3091 146c 6848     		ldr	r0, .L698+60
 3092 146e FFF7FEFF 		bl	e_send_uart1_char
 3093              	.LVL285:
 3094              	.L228:
 3095              		.loc 1 724 0 is_stmt 0 discriminator 2
 3096 1472 FFF7FEFF 		bl	e_uart1_sending
 3097              	.LVL286:
 3098 1476 0028     		cmp	r0, #0
 3099 1478 FBD1     		bne	.L228
 3100              		.loc 1 725 0 is_stmt 1
 3101 147a 2E21     		movs	r1, #46
 3102 147c 6548     		ldr	r0, .L698+64
 3103 147e FFF7FEFF 		bl	e_send_uart1_char
 3104              	.LVL287:
 3105              	.L229:
 3106              		.loc 1 725 0 is_stmt 0 discriminator 2
 3107 1482 FFF7FEFF 		bl	e_uart1_sending
 3108              	.LVL288:
 3109 1486 0028     		cmp	r0, #0
 3110 1488 FBD1     		bne	.L229
 3111              		.loc 1 726 0 is_stmt 1
 3112 148a 3221     		movs	r1, #50
 3113 148c 6248     		ldr	r0, .L698+68
 3114 148e FFF7FEFF 		bl	e_send_uart1_char
 3115              	.LVL289:
 3116              	.L230:
 3117              		.loc 1 726 0 is_stmt 0 discriminator 2
 3118 1492 FFF7FEFF 		bl	e_uart1_sending
 3119              	.LVL290:
 3120 1496 0028     		cmp	r0, #0
 3121 1498 FBD1     		bne	.L230
 3122              		.loc 1 728 0 is_stmt 1
 3123 149a 1F21     		movs	r1, #31
 3124 149c 5F48     		ldr	r0, .L698+72
 3125 149e FFF7FEFF 		bl	e_send_uart1_char
 3126              	.LVL291:
 3127              	.L231:
 3128              		.loc 1 728 0 is_stmt 0 discriminator 2
 3129 14a2 FFF7FEFF 		bl	e_uart1_sending
 3130              	.LVL292:
 3131 14a6 0028     		cmp	r0, #0
 3132 14a8 FBD1     		bne	.L231
 3133              		.loc 1 730 0 is_stmt 1
 3134 14aa FFF7FEFF 		bl	isEpuckVersion1_3
 3135              	.LVL293:
ARM GAS  /var/folders/bw/wdbp2_bd0pn7gl5ybd33xbb80000gn/T//ccZ5cvgj.s 			page 56


 3136 14ae 0028     		cmp	r0, #0
 3137 14b0 40F07F85 		bne	.L683
 3138              	.L232:
 3139              		.loc 1 733 0
 3140 14b4 1821     		movs	r1, #24
 3141 14b6 5A48     		ldr	r0, .L698+76
 3142 14b8 FFF7FEFF 		bl	e_send_uart1_char
 3143              	.LVL294:
 3144              	.L234:
 3145              		.loc 1 733 0 is_stmt 0 discriminator 2
 3146 14bc FFF7FEFF 		bl	e_uart1_sending
 3147              	.LVL295:
 3148 14c0 0028     		cmp	r0, #0
 3149 14c2 FBD1     		bne	.L234
 3150              		.loc 1 734 0 is_stmt 1
 3151 14c4 2821     		movs	r1, #40
 3152 14c6 5748     		ldr	r0, .L698+80
 3153 14c8 FFF7FEFF 		bl	e_send_uart1_char
 3154              	.LVL296:
 3155              	.L235:
 3156              		.loc 1 734 0 is_stmt 0 discriminator 2
 3157 14cc FFF7FEFF 		bl	e_uart1_sending
 3158              	.LVL297:
 3159 14d0 0028     		cmp	r0, #0
 3160 14d2 FBD1     		bne	.L235
 3161              		.loc 1 735 0 is_stmt 1
 3162 14d4 4F21     		movs	r1, #79
 3163 14d6 5448     		ldr	r0, .L698+84
 3164 14d8 FFF7FEFF 		bl	e_send_uart1_char
 3165              	.LVL298:
 3166              	.L236:
 3167              		.loc 1 735 0 is_stmt 0 discriminator 2
 3168 14dc FFF7FEFF 		bl	e_uart1_sending
 3169              	.LVL299:
 3170 14e0 0028     		cmp	r0, #0
 3171 14e2 FBD1     		bne	.L236
 3172              		.loc 1 736 0 is_stmt 1
 3173 14e4 2F21     		movs	r1, #47
 3174 14e6 5148     		ldr	r0, .L698+88
 3175 14e8 FFF7FEFF 		bl	e_send_uart1_char
 3176              	.LVL300:
 3177              	.L237:
 3178              		.loc 1 736 0 is_stmt 0 discriminator 2
 3179 14ec FFF7FEFF 		bl	e_uart1_sending
 3180              	.LVL301:
 3181 14f0 0028     		cmp	r0, #0
 3182 14f2 FBD1     		bne	.L237
 3183              		.loc 1 737 0 is_stmt 1
 3184 14f4 3321     		movs	r1, #51
 3185 14f6 4E48     		ldr	r0, .L698+92
 3186 14f8 FFF7FEFF 		bl	e_send_uart1_char
 3187              	.LVL302:
 3188              	.L238:
 3189              		.loc 1 737 0 is_stmt 0 discriminator 2
 3190 14fc FFF7FEFF 		bl	e_uart1_sending
 3191              	.LVL303:
 3192 1500 0028     		cmp	r0, #0
ARM GAS  /var/folders/bw/wdbp2_bd0pn7gl5ybd33xbb80000gn/T//ccZ5cvgj.s 			page 57


 3193 1502 FBD1     		bne	.L238
 3194              		.loc 1 739 0 is_stmt 1
 3195 1504 2121     		movs	r1, #33
 3196 1506 4B48     		ldr	r0, .L698+96
 3197 1508 FFF7FEFF 		bl	e_send_uart1_char
 3198              	.LVL304:
 3199              	.L239:
 3200              		.loc 1 739 0 is_stmt 0 discriminator 2
 3201 150c FFF7FEFF 		bl	e_uart1_sending
 3202              	.LVL305:
 3203 1510 0028     		cmp	r0, #0
 3204 1512 FBD1     		bne	.L239
 3205              		.loc 1 741 0 is_stmt 1
 3206 1514 1D21     		movs	r1, #29
 3207 1516 4848     		ldr	r0, .L698+100
 3208 1518 FFF7FEFF 		bl	e_send_uart1_char
 3209              	.LVL306:
 3210              	.L240:
 3211              		.loc 1 741 0 is_stmt 0 discriminator 2
 3212 151c FFF7FEFF 		bl	e_uart1_sending
 3213              	.LVL307:
 3214 1520 0028     		cmp	r0, #0
 3215 1522 FBD1     		bne	.L240
 3216              		.loc 1 742 0 is_stmt 1
 3217 1524 2121     		movs	r1, #33
 3218 1526 4548     		ldr	r0, .L698+104
 3219 1528 FFF7FEFF 		bl	e_send_uart1_char
 3220              	.LVL308:
 3221              	.L241:
 3222              		.loc 1 742 0 is_stmt 0 discriminator 2
 3223 152c FFF7FEFF 		bl	e_uart1_sending
 3224              	.LVL309:
 3225 1530 0028     		cmp	r0, #0
 3226 1532 FBD1     		bne	.L241
 3227              		.loc 1 743 0 is_stmt 1
 3228 1534 3121     		movs	r1, #49
 3229 1536 4248     		ldr	r0, .L698+108
 3230 1538 FFF7FEFF 		bl	e_send_uart1_char
 3231              	.LVL310:
 3232              	.L242:
 3233              		.loc 1 743 0 is_stmt 0 discriminator 2
 3234 153c FFF7FEFF 		bl	e_uart1_sending
 3235              	.LVL311:
 3236 1540 0028     		cmp	r0, #0
 3237 1542 FBD1     		bne	.L242
 3238              		.loc 1 744 0 is_stmt 1
 3239 1544 3121     		movs	r1, #49
 3240 1546 3F48     		ldr	r0, .L698+112
 3241 1548 FFF7FEFF 		bl	e_send_uart1_char
 3242              	.LVL312:
 3243              	.L243:
 3244              		.loc 1 744 0 is_stmt 0 discriminator 2
 3245 154c FFF7FEFF 		bl	e_uart1_sending
 3246              	.LVL313:
 3247 1550 0028     		cmp	r0, #0
 3248 1552 FBD1     		bne	.L243
 3249              		.loc 1 745 0 is_stmt 1
ARM GAS  /var/folders/bw/wdbp2_bd0pn7gl5ybd33xbb80000gn/T//ccZ5cvgj.s 			page 58


 3250 1554 2021     		movs	r1, #32
 3251 1556 3C48     		ldr	r0, .L698+116
 3252 1558 FFF7FEFF 		bl	e_send_uart1_char
 3253              	.LVL314:
 3254              	.L244:
 3255              		.loc 1 745 0 is_stmt 0 discriminator 2
 3256 155c FFF7FEFF 		bl	e_uart1_sending
 3257              	.LVL315:
 3258 1560 0028     		cmp	r0, #0
 3259 1562 FBD1     		bne	.L244
 3260              		.loc 1 746 0 is_stmt 1
 3261 1564 3121     		movs	r1, #49
 3262 1566 3948     		ldr	r0, .L698+120
 3263 1568 FFF7FEFF 		bl	e_send_uart1_char
 3264              	.LVL316:
 3265              	.L245:
 3266              		.loc 1 746 0 is_stmt 0 discriminator 2
 3267 156c FFF7FEFF 		bl	e_uart1_sending
 3268              	.LVL317:
 3269 1570 0028     		cmp	r0, #0
 3270 1572 FBD1     		bne	.L245
 3271              		.loc 1 747 0 is_stmt 1
 3272 1574 3221     		movs	r1, #50
 3273 1576 3648     		ldr	r0, .L698+124
 3274 1578 FFF7FEFF 		bl	e_send_uart1_char
 3275              	.LVL318:
 3276              	.L246:
 3277              		.loc 1 747 0 is_stmt 0 discriminator 2
 3278 157c FFF7FEFF 		bl	e_uart1_sending
 3279              	.LVL319:
 3280 1580 0028     		cmp	r0, #0
 3281 1582 FBD1     		bne	.L246
 3282              		.loc 1 748 0 is_stmt 1
 3283 1584 FFF7FEFF 		bl	isEpuckVersion1_3
 3284              	.LVL320:
 3285 1588 0028     		cmp	r0, #0
 3286 158a 40F00885 		bne	.L684
 3287              	.L247:
 3288              		.loc 1 751 0
 3289 158e 2C21     		movs	r1, #44
 3290 1590 3048     		ldr	r0, .L698+128
 3291 1592 FFF7FEFF 		bl	e_send_uart1_char
 3292              	.LVL321:
 3293              	.L249:
 3294              		.loc 1 751 0 is_stmt 0 discriminator 2
 3295 1596 FFF7FEFF 		bl	e_uart1_sending
 3296              	.LVL322:
 3297 159a 0028     		cmp	r0, #0
 3298 159c FBD1     		bne	.L249
 3299              		.loc 1 752 0 is_stmt 1
 3300 159e 2521     		movs	r1, #37
 3301 15a0 2D48     		ldr	r0, .L698+132
 3302 15a2 FFF7FEFF 		bl	e_send_uart1_char
 3303              	.LVL323:
 3304              	.L250:
 3305              		.loc 1 752 0 is_stmt 0 discriminator 2
 3306 15a6 FFF7FEFF 		bl	e_uart1_sending
ARM GAS  /var/folders/bw/wdbp2_bd0pn7gl5ybd33xbb80000gn/T//ccZ5cvgj.s 			page 59


 3307              	.LVL324:
 3308 15aa 0028     		cmp	r0, #0
 3309 15ac FBD1     		bne	.L250
 3310              		.loc 1 753 0 is_stmt 1
 3311 15ae 2B21     		movs	r1, #43
 3312 15b0 2A48     		ldr	r0, .L698+136
 3313 15b2 FFF7FEFF 		bl	e_send_uart1_char
 3314              	.LVL325:
 3315              	.L251:
 3316              		.loc 1 753 0 is_stmt 0 discriminator 2
 3317 15b6 FFF7FEFF 		bl	e_uart1_sending
 3318              	.LVL326:
 3319 15ba 0028     		cmp	r0, #0
 3320 15bc FBD1     		bne	.L251
 3321              		.loc 1 754 0 is_stmt 1
 3322 15be 2A21     		movs	r1, #42
 3323 15c0 2748     		ldr	r0, .L698+140
 3324 15c2 FFF7FEFF 		bl	e_send_uart1_char
 3325              	.LVL327:
 3326              	.L252:
 3327              		.loc 1 754 0 is_stmt 0 discriminator 2
 3328 15c6 FFF7FEFF 		bl	e_uart1_sending
 3329              	.LVL328:
 3330 15ca 0028     		cmp	r0, #0
 3331 15cc FBD1     		bne	.L252
 3332 15ce FEF778BD 		b	.L4
 3333              	.L699:
 3334 15d2 00BF     		.align	2
 3335              	.L698:
 3336 15d4 A4000000 		.word	.LC8
 3337 15d8 00000000 		.word	.LANCHOR8
 3338 15dc 00000000 		.word	.LANCHOR7
 3339 15e0 00000000 		.word	buffer
 3340 15e4 B0000000 		.word	.LC9
 3341 15e8 CC000000 		.word	.LC13
 3342 15ec 00000000 		.word	.LANCHOR28
 3343 15f0 00000000 		.word	.LANCHOR31
 3344 15f4 D8080000 		.word	.LC67
 3345 15f8 E4080000 		.word	.LC68
 3346 15fc 10010000 		.word	.LC15
 3347 1600 14010000 		.word	.LC16
 3348 1604 38010000 		.word	.LC17
 3349 1608 6C010000 		.word	.LC18
 3350 160c C0010000 		.word	.LC20
 3351 1610 E8010000 		.word	.LC21
 3352 1614 18020000 		.word	.LC22
 3353 1618 48020000 		.word	.LC23
 3354 161c 7C020000 		.word	.LC24
 3355 1620 B8020000 		.word	.LC26
 3356 1624 D4020000 		.word	.LC27
 3357 1628 00030000 		.word	.LC28
 3358 162c 50030000 		.word	.LC29
 3359 1630 80030000 		.word	.LC30
 3360 1634 B4030000 		.word	.LC31
 3361 1638 D8030000 		.word	.LC32
 3362 163c F8030000 		.word	.LC33
 3363 1640 1C040000 		.word	.LC34
ARM GAS  /var/folders/bw/wdbp2_bd0pn7gl5ybd33xbb80000gn/T//ccZ5cvgj.s 			page 60


 3364 1644 50040000 		.word	.LC35
 3365 1648 84040000 		.word	.LC36
 3366 164c A8040000 		.word	.LC37
 3367 1650 DC040000 		.word	.LC38
 3368 1654 30050000 		.word	.LC40
 3369 1658 60050000 		.word	.LC41
 3370 165c 88050000 		.word	.LC42
 3371 1660 B4050000 		.word	.LC43
 3372              	.L173:
 3373              		.loc 1 801 0 is_stmt 1
 3374 1664 099B     		ldr	r3, [sp, #36]
 3375 1666 002B     		cmp	r3, #0
 3376 1668 3EF4D8AD 		beq	.L626
 3377              		.loc 1 804 0
 3378 166c 159B     		ldr	r3, [sp, #84]
 3379 166e B14D     		ldr	r5, .L700
 3380 1670 B14E     		ldr	r6, .L700+4
 3381 1672 0193     		str	r3, [sp, #4]
 3382              		.loc 1 802 0
 3383 1674 4FF0FF34 		mov	r4, #-1
 3384              		.loc 1 804 0
 3385 1678 139B     		ldr	r3, [sp, #76]
 3386 167a 0093     		str	r3, [sp]
 3387 167c 0395     		str	r5, [sp, #12]
 3388 167e 0296     		str	r6, [sp, #8]
 3389 1680 AE4B     		ldr	r3, .L700+8
 3390 1682 AF4A     		ldr	r2, .L700+12
 3391 1684 AF49     		ldr	r1, .L700+16
 3392 1686 B048     		ldr	r0, .L700+20
 3393              		.loc 1 802 0
 3394 1688 3460     		str	r4, [r6]
 3395              		.loc 1 803 0
 3396 168a 2C60     		str	r4, [r5]
 3397              		.loc 1 804 0
 3398 168c FFF7FEFF 		bl	sscanf
 3399              	.LVL329:
 3400              		.loc 1 805 0
 3401 1690 149A     		ldr	r2, [sp, #80]
 3402 1692 1368     		ldr	r3, [r2]
 3403 1694 002B     		cmp	r3, #0
 3404 1696 40F07784 		bne	.L277
 3405              		.loc 1 806 0
 3406 169a 129A     		ldr	r2, [sp, #72]
 3407 169c 139B     		ldr	r3, [sp, #76]
 3408 169e 1268     		ldr	r2, [r2]
 3409 16a0 1B68     		ldr	r3, [r3]
 3410 16a2 03FB02F3 		mul	r3, r3, r2
 3411 16a6 119A     		ldr	r2, [sp, #68]
 3412 16a8 1360     		str	r3, [r2]
 3413              	.L278:
 3414              		.loc 1 809 0
 3415 16aa 41F22B02 		movw	r2, #4139
 3416 16ae 9342     		cmp	r3, r2
 3417 16b0 0BDD     		ble	.L279
 3418              		.loc 1 810 0
 3419 16b2 1499     		ldr	r1, [sp, #80]
 3420 16b4 0122     		movs	r2, #1
ARM GAS  /var/folders/bw/wdbp2_bd0pn7gl5ybd33xbb80000gn/T//ccZ5cvgj.s 			page 61


 3421 16b6 0A60     		str	r2, [r1]
 3422              		.loc 1 811 0
 3423 16b8 1299     		ldr	r1, [sp, #72]
 3424 16ba 2823     		movs	r3, #40
 3425 16bc 0B60     		str	r3, [r1]
 3426              		.loc 1 812 0
 3427 16be 1399     		ldr	r1, [sp, #76]
 3428 16c0 0B60     		str	r3, [r1]
 3429              		.loc 1 813 0
 3430 16c2 119B     		ldr	r3, [sp, #68]
 3431 16c4 4FF44862 		mov	r2, #3200
 3432 16c8 1A60     		str	r2, [r3]
 3433              	.L279:
 3434              		.loc 1 815 0
 3435 16ca FFF7FEFF 		bl	e_poxxxx_init_cam
 3436              	.LVL330:
 3437              		.loc 1 816 0
 3438 16ce 9A4B     		ldr	r3, .L700+4
 3439 16d0 1868     		ldr	r0, [r3]
 3440              		.loc 1 817 0
 3441 16d2 159B     		ldr	r3, [sp, #84]
 3442 16d4 1D68     		ldr	r5, [r3]
 3443 16d6 129B     		ldr	r3, [sp, #72]
 3444 16d8 1A68     		ldr	r2, [r3]
 3445              		.loc 1 816 0
 3446 16da 461C     		adds	r6, r0, #1
 3447              		.loc 1 817 0
 3448 16dc 02FB05F2 		mul	r2, r2, r5
 3449              		.loc 1 816 0
 3450 16e0 06D1     		bne	.L281
 3451              		.loc 1 817 0
 3452 16e2 C2F52070 		rsb	r0, r2, #640
 3453 16e6 00EBD070 		add	r0, r0, r0, lsr #31
 3454 16ea 934B     		ldr	r3, .L700+4
 3455 16ec 4010     		asrs	r0, r0, #1
 3456 16ee 1860     		str	r0, [r3]
 3457              	.L281:
 3458              		.loc 1 819 0
 3459 16f0 9049     		ldr	r1, .L700
 3460 16f2 139B     		ldr	r3, [sp, #76]
 3461 16f4 0968     		ldr	r1, [r1]
 3462 16f6 1B68     		ldr	r3, [r3]
 3463 16f8 4C1C     		adds	r4, r1, #1
 3464 16fa 03FB05F3 		mul	r3, r3, r5
 3465 16fe 06D1     		bne	.L282
 3466              		.loc 1 820 0
 3467 1700 C3F5F071 		rsb	r1, r3, #480
 3468 1704 01EBD171 		add	r1, r1, r1, lsr #31
 3469 1708 8A4C     		ldr	r4, .L700
 3470 170a 4910     		asrs	r1, r1, #1
 3471 170c 2160     		str	r1, [r4]
 3472              	.L282:
 3473              		.loc 1 822 0
 3474 170e 149C     		ldr	r4, [sp, #80]
 3475 1710 2468     		ldr	r4, [r4]
 3476 1712 0294     		str	r4, [sp, #8]
 3477 1714 CDE90055 		strd	r5, r5, [sp]
ARM GAS  /var/folders/bw/wdbp2_bd0pn7gl5ybd33xbb80000gn/T//ccZ5cvgj.s 			page 62


 3478 1718 FFF7FEFF 		bl	e_poxxxx_config_cam
 3479              	.LVL331:
 3480              		.loc 1 823 0
 3481 171c FFF7FEFF 		bl	e_poxxxx_write_cam_registers
 3482              	.LVL332:
 3483              		.loc 1 824 0
 3484 1720 0321     		movs	r1, #3
 3485 1722 8A48     		ldr	r0, .L700+24
 3486 1724 FFF7FEFF 		bl	e_send_uart1_char
 3487              	.LVL333:
 3488              	.L283:
 3489              		.loc 1 824 0 is_stmt 0 discriminator 2
 3490 1728 FFF7FEFF 		bl	e_uart1_sending
 3491              	.LVL334:
 3492 172c 0028     		cmp	r0, #0
 3493 172e FBD1     		bne	.L283
 3494 1730 FEF7C7BC 		b	.L4
 3495              	.L169:
 3496              		.loc 1 684 0 is_stmt 1
 3497 1734 864A     		ldr	r2, .L700+28
 3498 1736 8749     		ldr	r1, .L700+32
 3499 1738 8348     		ldr	r0, .L700+20
 3500 173a FFF7FEFF 		bl	sscanf
 3501              	.LVL335:
 3502              		.loc 1 685 0
 3503 173e 099B     		ldr	r3, [sp, #36]
 3504 1740 002B     		cmp	r3, #0
 3505 1742 00F0C583 		beq	.L211
 3506              		.loc 1 686 0
 3507 1746 824B     		ldr	r3, .L700+28
 3508 1748 1868     		ldr	r0, [r3]
 3509 174a FFF7FEFF 		bl	e_set_front_led
 3510              	.LVL336:
 3511              		.loc 1 687 0
 3512 174e 0321     		movs	r1, #3
 3513 1750 8148     		ldr	r0, .L700+36
 3514 1752 FFF7FEFF 		bl	e_send_uart1_char
 3515              	.LVL337:
 3516              	.L212:
 3517              		.loc 1 687 0 is_stmt 0 discriminator 2
 3518 1756 FFF7FEFF 		bl	e_uart1_sending
 3519              	.LVL338:
 3520 175a 0028     		cmp	r0, #0
 3521 175c FBD1     		bne	.L212
 3522 175e FEF7B0BC 		b	.L4
 3523              	.L162:
 3524              		.loc 1 1071 0 is_stmt 1
 3525 1762 099B     		ldr	r3, [sp, #36]
 3526              		.loc 1 1072 0
 3527 1764 7D48     		ldr	r0, .L700+40
 3528 1766 1521     		movs	r1, #21
 3529              		.loc 1 1071 0
 3530 1768 002B     		cmp	r3, #0
 3531 176a 00F0F982 		beq	.L348
 3532              		.loc 1 1072 0
 3533 176e FFF7FEFF 		bl	e_send_uart1_char
 3534              	.LVL339:
ARM GAS  /var/folders/bw/wdbp2_bd0pn7gl5ybd33xbb80000gn/T//ccZ5cvgj.s 			page 63


 3535              	.L349:
 3536              		.loc 1 1072 0 is_stmt 0 discriminator 2
 3537 1772 FFF7FEFF 		bl	e_uart1_sending
 3538              	.LVL340:
 3539 1776 0028     		cmp	r0, #0
 3540 1778 FBD1     		bne	.L349
 3541 177a FEF7A2BC 		b	.L4
 3542              	.L324:
 3543              		.loc 1 983 0 is_stmt 1
 3544 177e 41F65071 		movw	r1, #8016
 3545 1782 42F61430 		movw	r0, #11028
 3546 1786 FFF7FEFF 		bl	e_play_sound
 3547              	.LVL341:
 3548              	.L325:
 3549              		.loc 1 991 0
 3550 178a 0321     		movs	r1, #3
 3551 178c 7448     		ldr	r0, .L700+44
 3552 178e FFF7FEFF 		bl	e_send_uart1_char
 3553              	.LVL342:
 3554              	.L326:
 3555              		.loc 1 991 0 is_stmt 0 discriminator 2
 3556 1792 FFF7FEFF 		bl	e_uart1_sending
 3557              	.LVL343:
 3558 1796 0028     		cmp	r0, #0
 3559 1798 FBD1     		bne	.L326
 3560 179a FEF792BC 		b	.L4
 3561              	.L323:
 3562              		.loc 1 981 0 is_stmt 1
 3563 179e 40F69461 		movw	r1, #3732
 3564 17a2 41F67E40 		movw	r0, #7294
 3565 17a6 FFF7FEFF 		bl	e_play_sound
 3566              	.LVL344:
 3567              		.loc 1 982 0
 3568 17aa EEE7     		b	.L325
 3569              	.L322:
 3570              		.loc 1 979 0
 3571 17ac 0022     		movs	r2, #0
 3572 17ae 0221     		movs	r1, #2
 3573 17b0 0B20     		movs	r0, #11
 3574 17b2 FFF7FEFF 		bl	playMelody
 3575              	.LVL345:
 3576              		.loc 1 980 0
 3577 17b6 E8E7     		b	.L325
 3578              	.L321:
 3579              		.loc 1 977 0
 3580 17b8 0022     		movs	r2, #0
 3581 17ba 0221     		movs	r1, #2
 3582 17bc 0420     		movs	r0, #4
 3583 17be FFF7FEFF 		bl	playMelody
 3584              	.LVL346:
 3585              		.loc 1 978 0
 3586 17c2 E2E7     		b	.L325
 3587              	.L319:
 3588              		.loc 1 975 0
 3589 17c4 0022     		movs	r2, #0
 3590 17c6 0221     		movs	r1, #2
 3591 17c8 0320     		movs	r0, #3
ARM GAS  /var/folders/bw/wdbp2_bd0pn7gl5ybd33xbb80000gn/T//ccZ5cvgj.s 			page 64


 3592 17ca FFF7FEFF 		bl	playMelody
 3593              	.LVL347:
 3594              		.loc 1 976 0
 3595 17ce DCE7     		b	.L325
 3596              	.LVL348:
 3597              	.L28:
 3598              	.LBE4:
 3599              		.loc 1 247 0
 3600 17d0 644A     		ldr	r2, .L700+48
 3601 17d2 0023     		movs	r3, #0
 3602 17d4 1360     		str	r3, [r2]
 3603 17d6 644A     		ldr	r2, .L700+52
 3604 17d8 1360     		str	r3, [r2]
 3605 17da FEF7DDBD 		b	.L40
 3606              	.L11:
 3607              		.loc 1 185 0
 3608 17de 614A     		ldr	r2, .L700+48
 3609 17e0 0023     		movs	r3, #0
 3610 17e2 1360     		str	r3, [r2]
 3611 17e4 604A     		ldr	r2, .L700+52
 3612 17e6 1360     		str	r3, [r2]
 3613 17e8 FEF761BD 		b	.L23
 3614              	.LVL349:
 3615              	.L139:
 3616              		.loc 1 593 0
 3617 17ec 5648     		ldr	r0, .L700+20
 3618 17ee FFF7FEFF 		bl	e_send_uart2_char
 3619              	.LVL350:
 3620              	.L143:
 3621              		.loc 1 594 0 discriminator 1
 3622 17f2 FFF7FEFF 		bl	e_uart2_sending
 3623              	.LVL351:
 3624 17f6 0028     		cmp	r0, #0
 3625 17f8 FBD1     		bne	.L143
 3626 17fa FEF70FBD 		b	.L626
 3627              	.L68:
 3628              		.loc 1 299 0
 3629 17fe FFF7FEFF 		bl	e_read_acc_spheric
 3630              	.LVL352:
 3631 1802 5A4B     		ldr	r3, .L700+56
 3632 1804 83ED000A 		vstr.32	s0, [r3]
 3633 1808 1A78     		ldrb	r2, [r3]	@ zero_extendqisi2
 3634 180a C3ED010A 		vstr.32	s1, [r3, #4]
 3635 180e 1146     		mov	r1, r2
 3636 1810 9A79     		ldrb	r2, [r3, #6]	@ zero_extendqisi2
 3637 1812 83ED021A 		vstr.32	s2, [r3, #8]
 3638 1816 0B92     		str	r2, [sp, #44]
 3639 1818 DA79     		ldrb	r2, [r3, #7]	@ zero_extendqisi2
 3640 181a 0C92     		str	r2, [sp, #48]
 3641 181c 1A7A     		ldrb	r2, [r3, #8]	@ zero_extendqisi2
 3642 181e 0D92     		str	r2, [sp, #52]
 3643 1820 5A7A     		ldrb	r2, [r3, #9]	@ zero_extendqisi2
 3644 1822 93F801E0 		ldrb	lr, [r3, #1]	@ zero_extendqisi2
 3645 1826 93F802C0 		ldrb	ip, [r3, #2]	@ zero_extendqisi2
 3646 182a DD78     		ldrb	r5, [r3, #3]	@ zero_extendqisi2
 3647 182c 1C79     		ldrb	r4, [r3, #4]	@ zero_extendqisi2
 3648 182e 5879     		ldrb	r0, [r3, #5]	@ zero_extendqisi2
ARM GAS  /var/folders/bw/wdbp2_bd0pn7gl5ybd33xbb80000gn/T//ccZ5cvgj.s 			page 65


 3649 1830 0E92     		str	r2, [sp, #56]
 3650 1832 9A7A     		ldrb	r2, [r3, #10]	@ zero_extendqisi2
 3651 1834 DB7A     		ldrb	r3, [r3, #11]	@ zero_extendqisi2
 3652 1836 0F92     		str	r2, [sp, #60]
 3653 1838 1093     		str	r3, [sp, #64]
 3654 183a FFF795B8 		b	.L67
 3655              	.L63:
 3656              		.loc 1 272 0
 3657 183e FFF7FEFF 		bl	isEpuckVersion1_3
 3658              	.LVL353:
 3659 1842 0028     		cmp	r0, #0
 3660 1844 00F0E980 		beq	.L65
 3661              		.loc 1 273 0
 3662 1848 494B     		ldr	r3, .L700+60
 3663 184a C3F800B0 		str	fp, [r3]
 3664              		.loc 1 274 0
 3665 184e 494B     		ldr	r3, .L700+64
 3666 1850 C3F800B0 		str	fp, [r3]
 3667              		.loc 1 275 0
 3668 1854 484B     		ldr	r3, .L700+68
 3669 1856 5946     		mov	r1, fp
 3670 1858 C3F800B0 		str	fp, [r3]
 3671 185c 5D46     		mov	r5, fp
 3672 185e 5846     		mov	r0, fp
 3673 1860 DC46     		mov	ip, fp
 3674 1862 5C46     		mov	r4, fp
 3675 1864 DE46     		mov	lr, fp
 3676 1866 FEF74CBE 		b	.L64
 3677              	.L99:
 3678              		.loc 1 452 0
 3679 186a CAF800B0 		str	fp, [r10]
 3680 186e 5846     		mov	r0, fp
 3681              	.L101:
 3682              		.loc 1 453 0 discriminator 3
 3683 1870 FFF7FEFF 		bl	e_get_calibrated_prox
 3684              	.LVL354:
 3685              		.loc 1 454 0 discriminator 3
 3686 1874 D9F80020 		ldr	r2, [r9]
 3687              		.loc 1 452 0 discriminator 3
 3688 1878 DAF80030 		ldr	r3, [r10]
 3689              		.loc 1 454 0 discriminator 3
 3690 187c 08F80200 		strb	r0, [r8, r2]
 3691              		.loc 1 455 0 discriminator 3
 3692 1880 08EB0204 		add	r4, r8, r2
 3693 1884 0112     		asrs	r1, r0, #8
 3694              		.loc 1 452 0 discriminator 3
 3695 1886 581C     		adds	r0, r3, #1
 3696              		.loc 1 455 0 discriminator 3
 3697 1888 0232     		adds	r2, r2, #2
 3698              		.loc 1 452 0 discriminator 3
 3699 188a 0928     		cmp	r0, #9
 3700              		.loc 1 455 0 discriminator 3
 3701 188c 6170     		strb	r1, [r4, #1]
 3702 188e C9F80020 		str	r2, [r9]
 3703              		.loc 1 452 0 discriminator 3
 3704 1892 CAF80000 		str	r0, [r10]
 3705 1896 EBDD     		ble	.L101
ARM GAS  /var/folders/bw/wdbp2_bd0pn7gl5ybd33xbb80000gn/T//ccZ5cvgj.s 			page 66


 3706              		.loc 1 577 0
 3707 1898 3046     		mov	r0, r6
 3708 189a FFF7FEFF 		bl	e_getchar_uart2
 3709              	.LVL355:
 3710 189e 0028     		cmp	r0, #0
 3711 18a0 3EF46AAE 		beq	.L662
 3712 18a4 FEF744BE 		b	.L134
 3713              	.L102:
 3714              		.loc 1 468 0
 3715 18a8 CAF800B0 		str	fp, [r10]
 3716 18ac 5846     		mov	r0, fp
 3717              	.L105:
 3718              		.loc 1 469 0 discriminator 3
 3719 18ae FFF7FEFF 		bl	e_get_ambient_light
 3720              	.LVL356:
 3721              		.loc 1 470 0 discriminator 3
 3722 18b2 D9F80020 		ldr	r2, [r9]
 3723              		.loc 1 468 0 discriminator 3
 3724 18b6 DAF80030 		ldr	r3, [r10]
 3725              		.loc 1 470 0 discriminator 3
 3726 18ba 08F80200 		strb	r0, [r8, r2]
 3727              		.loc 1 471 0 discriminator 3
 3728 18be 08EB0204 		add	r4, r8, r2
 3729 18c2 0112     		asrs	r1, r0, #8
 3730              		.loc 1 468 0 discriminator 3
 3731 18c4 581C     		adds	r0, r3, #1
 3732              		.loc 1 471 0 discriminator 3
 3733 18c6 0232     		adds	r2, r2, #2
 3734              		.loc 1 468 0 discriminator 3
 3735 18c8 0928     		cmp	r0, #9
 3736              		.loc 1 471 0 discriminator 3
 3737 18ca 6170     		strb	r1, [r4, #1]
 3738 18cc C9F80020 		str	r2, [r9]
 3739              		.loc 1 468 0 discriminator 3
 3740 18d0 CAF80000 		str	r0, [r10]
 3741 18d4 EBDD     		ble	.L105
 3742              		.loc 1 577 0
 3743 18d6 3046     		mov	r0, r6
 3744 18d8 FFF7FEFF 		bl	e_getchar_uart2
 3745              	.LVL357:
 3746 18dc 0028     		cmp	r0, #0
 3747 18de 3EF44BAE 		beq	.L662
 3748 18e2 FEF725BE 		b	.L134
 3749              	.LVL358:
 3750              	.L671:
 3751              		.loc 1 241 0
 3752 18e6 FFF7FEFF 		bl	e_init_sound
 3753              	.LVL359:
 3754              		.loc 1 242 0
 3755 18ea 244A     		ldr	r2, .L700+72
 3756 18ec 0123     		movs	r3, #1
 3757 18ee 1370     		strb	r3, [r2]
 3758 18f0 FEF793BD 		b	.L41
 3759              	.LVL360:
 3760              	.L670:
 3761              		.loc 1 179 0
 3762 18f4 FFF7FEFF 		bl	e_init_sound
ARM GAS  /var/folders/bw/wdbp2_bd0pn7gl5ybd33xbb80000gn/T//ccZ5cvgj.s 			page 67


 3763              	.LVL361:
 3764              		.loc 1 180 0
 3765 18f8 204A     		ldr	r2, .L700+72
 3766 18fa 0123     		movs	r3, #1
 3767 18fc 1370     		strb	r3, [r2]
 3768 18fe FEF73BBD 		b	.L24
 3769              	.LVL362:
 3770              	.L417:
 3771              		.loc 1 408 0
 3772 1902 BBF1000F 		cmp	fp, #0
 3773 1906 3EF432AE 		beq	.L136
 3774              		.loc 1 409 0
 3775 190a 1D4B     		ldr	r3, .L700+76
 3776 190c 1878     		ldrb	r0, [r3]	@ zero_extendqisi2
 3777 190e FFF7FEFF 		bl	e_set_body_led
 3778              	.LVL363:
 3779 1912 FEF708BE 		b	.L133
 3780              	.L677:
 3781              		.loc 1 333 0
 3782 1916 FFF7FEFF 		bl	getBatteryValueRaw
 3783              	.LVL364:
 3784              		.loc 1 334 0
 3785 191a D9F80030 		ldr	r3, [r9]
 3786              		.loc 1 335 0
 3787 191e 08EB0302 		add	r2, r8, r3
 3788              		.loc 1 334 0
 3789 1922 08F80300 		strb	r0, [r8, r3]
 3790              		.loc 1 335 0
 3791 1926 010A     		lsrs	r1, r0, #8
 3792 1928 0233     		adds	r3, r3, #2
 3793 192a 5170     		strb	r1, [r2, #1]
 3794 192c C9F80030 		str	r3, [r9]
 3795 1930 FEF7F6BD 		b	.L44
 3796              	.L701:
 3797              		.align	2
 3798              	.L700:
 3799 1934 00000000 		.word	.LANCHOR30
 3800 1938 00000000 		.word	.LANCHOR29
 3801 193c 00000000 		.word	.LANCHOR3
 3802 1940 00000000 		.word	.LANCHOR2
 3803 1944 7C080000 		.word	.LC64
 3804 1948 00000000 		.word	buffer
 3805 194c 94080000 		.word	.LC65
 3806 1950 00000000 		.word	.LANCHOR28
 3807 1954 C0000000 		.word	.LC11
 3808 1958 C8000000 		.word	.LC12
 3809 195c 240A0000 		.word	.LC89
 3810 1960 A4090000 		.word	.LC79
 3811 1964 00000000 		.word	.LANCHOR8
 3812 1968 00000000 		.word	.LANCHOR7
 3813 196c 00000000 		.word	.LANCHOR15
 3814 1970 00000000 		.word	.LANCHOR12
 3815 1974 00000000 		.word	.LANCHOR13
 3816 1978 00000000 		.word	.LANCHOR14
 3817 197c 00000000 		.word	.LANCHOR9
 3818 1980 00000000 		.word	.LANCHOR17
 3819              	.LVL365:
ARM GAS  /var/folders/bw/wdbp2_bd0pn7gl5ybd33xbb80000gn/T//ccZ5cvgj.s 			page 68


 3820              	.L675:
 3821              		.loc 1 370 0 discriminator 1
 3822 1984 FFF7FEFF 		bl	isEpuckVersion1_3
 3823              	.LVL366:
 3824 1988 0028     		cmp	r0, #0
 3825 198a 3FF414A8 		beq	.L81
 3826              		.loc 1 371 0
 3827 198e B64A     		ldr	r2, .L702
 3828 1990 B649     		ldr	r1, .L702+4
 3829 1992 B748     		ldr	r0, .L702+8
 3830 1994 FFF7FEFF 		bl	getAllAxesGyro
 3831              	.LVL367:
 3832              		.loc 1 372 0
 3833 1998 B54B     		ldr	r3, .L702+8
 3834 199a D9F80020 		ldr	r2, [r9]
 3835 199e 1968     		ldr	r1, [r3]
 3836              		.loc 1 374 0
 3837 19a0 B24B     		ldr	r3, .L702+4
 3838              		.loc 1 372 0
 3839 19a2 08F80210 		strb	r1, [r8, r2]
 3840              		.loc 1 374 0
 3841 19a6 1C68     		ldr	r4, [r3]
 3842              		.loc 1 376 0
 3843 19a8 AF4B     		ldr	r3, .L702
 3844 19aa 1868     		ldr	r0, [r3]
 3845              		.loc 1 373 0
 3846 19ac 08EB0203 		add	r3, r8, r2
 3847 19b0 0912     		asrs	r1, r1, #8
 3848              		.loc 1 377 0
 3849 19b2 0632     		adds	r2, r2, #6
 3850              		.loc 1 373 0
 3851 19b4 5970     		strb	r1, [r3, #1]
 3852              		.loc 1 377 0
 3853 19b6 C9F80020 		str	r2, [r9]
 3854              		.loc 1 375 0
 3855 19ba 2112     		asrs	r1, r4, #8
 3856              		.loc 1 377 0
 3857 19bc 0212     		asrs	r2, r0, #8
 3858              		.loc 1 374 0
 3859 19be 9C70     		strb	r4, [r3, #2]
 3860              		.loc 1 375 0
 3861 19c0 D970     		strb	r1, [r3, #3]
 3862              		.loc 1 376 0
 3863 19c2 1871     		strb	r0, [r3, #4]
 3864              		.loc 1 377 0
 3865 19c4 5A71     		strb	r2, [r3, #5]
 3866 19c6 FEF7AEBD 		b	.L133
 3867              	.L676:
 3868              		.loc 1 506 0 discriminator 1
 3869 19ca FFF7FEFF 		bl	isEpuckVersion1_3
 3870              	.LVL368:
 3871 19ce 0028     		cmp	r0, #0
 3872 19d0 3FF447A8 		beq	.L117
 3873              		.loc 1 507 0
 3874 19d4 FFF7FEFF 		bl	getTemperature
 3875              	.LVL369:
 3876 19d8 D9F80030 		ldr	r3, [r9]
ARM GAS  /var/folders/bw/wdbp2_bd0pn7gl5ybd33xbb80000gn/T//ccZ5cvgj.s 			page 69


 3877 19dc 5A1C     		adds	r2, r3, #1
 3878 19de 08F80300 		strb	r0, [r8, r3]
 3879 19e2 C9F80020 		str	r2, [r9]
 3880 19e6 FEF79EBD 		b	.L133
 3881              	.L672:
 3882              		.loc 1 583 0
 3883 19ea A24A     		ldr	r2, .L702+12
 3884 19ec 1370     		strb	r3, [r2]
 3885              	.L141:
 3886              		.loc 1 584 0 discriminator 1
 3887 19ee FFF7FEFF 		bl	e_poxxxx_is_img_ready
 3888              	.LVL370:
 3889 19f2 0028     		cmp	r0, #0
 3890 19f4 FBD0     		beq	.L141
 3891              		.loc 1 585 0
 3892 19f6 119D     		ldr	r5, [sp, #68]
 3893 19f8 D9F80030 		ldr	r3, [r9]
 3894 19fc 2C68     		ldr	r4, [r5]
 3895 19fe 1B1B     		subs	r3, r3, r4
 3896 1a00 08EB0304 		add	r4, r8, r3
 3897 1a04 FFF7FEFF 		bl	dcmi_get_last_image_ptr
 3898              	.LVL371:
 3899 1a08 2A68     		ldr	r2, [r5]
 3900 1a0a 0146     		mov	r1, r0
 3901 1a0c 2046     		mov	r0, r4
 3902 1a0e FFF7FEFF 		bl	memcpy
 3903              	.LVL372:
 3904 1a12 D9F80010 		ldr	r1, [r9]
 3905 1a16 FEF79EBD 		b	.L140
 3906              	.L65:
 3907              		.loc 1 277 0
 3908 1a1a 0121     		movs	r1, #1
 3909 1a1c FEF754BD 		b	.L654
 3910              	.LVL373:
 3911              	.L154:
 3912              	.LBB5:
 3913              		.loc 1 636 0
 3914 1a20 FFF7FEFF 		bl	isEpuckVersion1_3
 3915              	.LVL374:
 3916 1a24 0028     		cmp	r0, #0
 3917 1a26 00F08B81 		beq	.L194
 3918              		.loc 1 637 0
 3919 1a2a FFF7FEFF 		bl	getBatteryValueRaw
 3920              	.LVL375:
 3921 1a2e 0446     		mov	r4, r0
 3922 1a30 FFF7FEFF 		bl	getBatteryValuePercentage
 3923              	.LVL376:
 3924 1a34 2246     		mov	r2, r4
 3925 1a36 0346     		mov	r3, r0
 3926 1a38 8F49     		ldr	r1, .L702+16
 3927 1a3a 9048     		ldr	r0, .L702+20
 3928 1a3c FFF7FEFF 		bl	sprintf
 3929              	.LVL377:
 3930              	.L195:
 3931 1a40 8E48     		ldr	r0, .L702+20
 3932 1a42 FFF7FEFF 		bl	strlen
 3933              	.LVL378:
ARM GAS  /var/folders/bw/wdbp2_bd0pn7gl5ybd33xbb80000gn/T//ccZ5cvgj.s 			page 70


 3934              		.loc 1 641 0
 3935 1a46 099B     		ldr	r3, [sp, #36]
 3936 1a48 0146     		mov	r1, r0
 3937              		.loc 1 642 0
 3938 1a4a 8C48     		ldr	r0, .L702+20
 3939              		.loc 1 641 0
 3940 1a4c 002B     		cmp	r3, #0
 3941 1a4e 00F06F81 		beq	.L196
 3942              		.loc 1 642 0
 3943 1a52 FFF7FEFF 		bl	e_send_uart1_char
 3944              	.LVL379:
 3945              	.L197:
 3946              		.loc 1 642 0 is_stmt 0 discriminator 2
 3947 1a56 FFF7FEFF 		bl	e_uart1_sending
 3948              	.LVL380:
 3949 1a5a 0028     		cmp	r0, #0
 3950 1a5c FBD1     		bne	.L197
 3951 1a5e FEF730BB 		b	.L4
 3952              	.LVL381:
 3953              	.L674:
 3954              	.LBE5:
 3955              		.loc 1 414 0 is_stmt 1
 3956 1a62 874B     		ldr	r3, .L702+24
 3957 1a64 1878     		ldrb	r0, [r3]	@ zero_extendqisi2
 3958 1a66 FFF7FEFF 		bl	e_set_front_led
 3959              	.LVL382:
 3960 1a6a FEF75CBD 		b	.L133
 3961              	.LVL383:
 3962              	.L215:
 3963              	.LBB6:
 3964              		.loc 1 704 0
 3965 1a6e 854B     		ldr	r3, .L702+28
 3966 1a70 93E80700 		ldm	r3, {r0, r1, r2}
 3967 1a74 814B     		ldr	r3, .L702+20
 3968 1a76 03C3     		stmia	r3!, {r0, r1}
 3969 1a78 1846     		mov	r0, r3
 3970              		.loc 1 709 0
 3971 1a7a 0921     		movs	r1, #9
 3972              		.loc 1 704 0
 3973 1a7c 20F80829 		strh	r2, [r0], #-8	@ movhi
 3974              		.loc 1 709 0
 3975 1a80 FFF7FEFF 		bl	e_send_uart2_char
 3976              	.LVL384:
 3977              	.L218:
 3978              		.loc 1 709 0 is_stmt 0 discriminator 2
 3979 1a84 FFF7FEFF 		bl	e_uart2_sending
 3980              	.LVL385:
 3981 1a88 0028     		cmp	r0, #0
 3982 1a8a FBD1     		bne	.L218
 3983 1a8c FEF7C6BB 		b	.L626
 3984              	.L328:
 3985              		.loc 1 1001 0 is_stmt 1
 3986 1a90 7D4B     		ldr	r3, .L702+32
 3987 1a92 93E80300 		ldm	r3, {r0, r1}
 3988 1a96 7D4B     		ldr	r3, .L702+36
 3989 1a98 C8F80000 		str	r0, [r8]
 3990 1a9c 1980     		strh	r1, [r3]	@ movhi
ARM GAS  /var/folders/bw/wdbp2_bd0pn7gl5ybd33xbb80000gn/T//ccZ5cvgj.s 			page 71


 3991              		.loc 1 1006 0
 3992 1a9e 181F     		subs	r0, r3, #4
 3993 1aa0 0521     		movs	r1, #5
 3994 1aa2 FFF7FEFF 		bl	e_send_uart2_char
 3995              	.LVL386:
 3996              	.L331:
 3997              		.loc 1 1006 0 is_stmt 0 discriminator 2
 3998 1aa6 FFF7FEFF 		bl	e_uart2_sending
 3999              	.LVL387:
 4000 1aaa 0028     		cmp	r0, #0
 4001 1aac FBD1     		bne	.L331
 4002 1aae FEF7B5BB 		b	.L626
 4003              	.L284:
 4004              		.loc 1 831 0 is_stmt 1
 4005 1ab2 FFF7FEFF 		bl	e_send_uart2_char
 4006              	.LVL388:
 4007              	.L287:
 4008              		.loc 1 831 0 is_stmt 0 discriminator 2
 4009 1ab6 FFF7FEFF 		bl	e_uart2_sending
 4010              	.LVL389:
 4011 1aba 0028     		cmp	r0, #0
 4012 1abc FBD1     		bne	.L287
 4013              		.loc 1 834 0 is_stmt 1
 4014 1abe 0121     		movs	r1, #1
 4015 1ac0 0820     		movs	r0, #8
 4016 1ac2 FFF7FEFF 		bl	e_set_led
 4017              	.LVL390:
 4018              		.loc 1 836 0
 4019 1ac6 4FF4C870 		mov	r0, #400
 4020 1aca FFF7FEFF 		bl	chThdSleep
 4021              	.LVL391:
 4022              		.loc 1 837 0
 4023 1ace FFF7FEFF 		bl	e_led_clear
 4024              	.LVL392:
 4025              		.loc 1 839 0
 4026 1ad2 6420     		movs	r0, #100
 4027 1ad4 FFF7FEFF 		bl	chThdSleep
 4028              	.LVL393:
 4029              		.loc 1 840 0
 4030 1ad8 FFF7FEFF 		bl	e_calibrate_ir
 4031              	.LVL394:
 4032              		.loc 1 844 0
 4033 1adc 1921     		movs	r1, #25
 4034 1ade 6C48     		ldr	r0, .L702+40
 4035 1ae0 FFF7FEFF 		bl	e_send_uart2_char
 4036              	.LVL395:
 4037              	.L290:
 4038              		.loc 1 844 0 is_stmt 0 discriminator 2
 4039 1ae4 FFF7FEFF 		bl	e_uart2_sending
 4040              	.LVL396:
 4041 1ae8 0028     		cmp	r0, #0
 4042 1aea FBD1     		bne	.L290
 4043 1aec FEF796BB 		b	.L626
 4044              	.LVL397:
 4045              	.L304:
 4046              		.loc 1 924 0 is_stmt 1
 4047 1af0 0998     		ldr	r0, [sp, #36]
ARM GAS  /var/folders/bw/wdbp2_bd0pn7gl5ybd33xbb80000gn/T//ccZ5cvgj.s 			page 72


 4048 1af2 FFF7FEFF 		bl	e_get_ambient_light
 4049              	.LVL398:
 4050 1af6 0F90     		str	r0, [sp, #60]
 4051 1af8 0120     		movs	r0, #1
 4052 1afa FFF7FEFF 		bl	e_get_ambient_light
 4053              	.LVL399:
 4054 1afe 0E90     		str	r0, [sp, #56]
 4055 1b00 0220     		movs	r0, #2
 4056 1b02 FFF7FEFF 		bl	e_get_ambient_light
 4057              	.LVL400:
 4058 1b06 0A90     		str	r0, [sp, #40]
 4059 1b08 0320     		movs	r0, #3
 4060 1b0a FFF7FEFF 		bl	e_get_ambient_light
 4061              	.LVL401:
 4062 1b0e 0D90     		str	r0, [sp, #52]
 4063 1b10 0420     		movs	r0, #4
 4064 1b12 FFF7FEFF 		bl	e_get_ambient_light
 4065              	.LVL402:
 4066 1b16 0B90     		str	r0, [sp, #44]
 4067 1b18 0520     		movs	r0, #5
 4068 1b1a FFF7FEFF 		bl	e_get_ambient_light
 4069              	.LVL403:
 4070 1b1e 0446     		mov	r4, r0
 4071 1b20 0620     		movs	r0, #6
 4072 1b22 FFF7FEFF 		bl	e_get_ambient_light
 4073              	.LVL404:
 4074 1b26 0546     		mov	r5, r0
 4075 1b28 0720     		movs	r0, #7
 4076 1b2a FFF7FEFF 		bl	e_get_ambient_light
 4077              	.LVL405:
 4078 1b2e 0646     		mov	r6, r0
 4079 1b30 0820     		movs	r0, #8
 4080 1b32 FFF7FEFF 		bl	e_get_ambient_light
 4081              	.LVL406:
 4082 1b36 0C90     		str	r0, [sp, #48]
 4083 1b38 0920     		movs	r0, #9
 4084 1b3a FFF7FEFF 		bl	e_get_ambient_light
 4085              	.LVL407:
 4086 1b3e 0A9B     		ldr	r3, [sp, #40]
 4087 1b40 0093     		str	r3, [sp]
 4088 1b42 0C9B     		ldr	r3, [sp, #48]
 4089 1b44 0D99     		ldr	r1, [sp, #52]
 4090 1b46 0790     		str	r0, [sp, #28]
 4091 1b48 CDE90563 		strd	r6, r3, [sp, #20]
 4092 1b4c 0B9B     		ldr	r3, [sp, #44]
 4093 1b4e 0293     		str	r3, [sp, #8]
 4094 1b50 0191     		str	r1, [sp, #4]
 4095 1b52 DDE90E32 		ldrd	r3, r2, [sp, #56]
 4096 1b56 4F49     		ldr	r1, .L702+44
 4097 1b58 4848     		ldr	r0, .L702+20
 4098 1b5a CDE90345 		strd	r4, r5, [sp, #12]
 4099 1b5e FFF7FEFF 		bl	sprintf
 4100              	.LVL408:
 4101              		.loc 1 928 0
 4102 1b62 4648     		ldr	r0, .L702+20
 4103 1b64 FFF7FEFF 		bl	strlen
 4104              	.LVL409:
ARM GAS  /var/folders/bw/wdbp2_bd0pn7gl5ybd33xbb80000gn/T//ccZ5cvgj.s 			page 73


 4105 1b68 0146     		mov	r1, r0
 4106 1b6a 4448     		ldr	r0, .L702+20
 4107 1b6c FFF7FEFF 		bl	e_send_uart2_char
 4108              	.LVL410:
 4109              	.L306:
 4110              		.loc 1 928 0 is_stmt 0 discriminator 2
 4111 1b70 FFF7FEFF 		bl	e_uart2_sending
 4112              	.LVL411:
 4113 1b74 0028     		cmp	r0, #0
 4114 1b76 FBD1     		bne	.L306
 4115 1b78 FEF750BB 		b	.L626
 4116              	.L335:
 4117              		.loc 1 1022 0 is_stmt 1
 4118 1b7c FFF7FEFF 		bl	e_send_uart2_char
 4119              	.LVL412:
 4120              	.L338:
 4121              		.loc 1 1022 0 is_stmt 0 discriminator 2
 4122 1b80 FFF7FEFF 		bl	e_uart2_sending
 4123              	.LVL413:
 4124 1b84 0028     		cmp	r0, #0
 4125 1b86 FBD1     		bne	.L338
 4126              		.loc 1 1024 0 is_stmt 1
 4127 1b88 434B     		ldr	r3, .L702+48
 4128 1b8a 4449     		ldr	r1, .L702+52
 4129 1b8c 1A68     		ldr	r2, [r3]
 4130 1b8e 3B48     		ldr	r0, .L702+20
 4131 1b90 FFF7FEFF 		bl	sprintf
 4132              	.LVL414:
 4133              		.loc 1 1028 0
 4134 1b94 3948     		ldr	r0, .L702+20
 4135 1b96 FFF7FEFF 		bl	strlen
 4136              	.LVL415:
 4137 1b9a 0146     		mov	r1, r0
 4138 1b9c 3748     		ldr	r0, .L702+20
 4139 1b9e FFF7FEFF 		bl	e_send_uart2_char
 4140              	.LVL416:
 4141              	.L341:
 4142              		.loc 1 1028 0 is_stmt 0 discriminator 2
 4143 1ba2 FFF7FEFF 		bl	e_uart2_sending
 4144              	.LVL417:
 4145 1ba6 0028     		cmp	r0, #0
 4146 1ba8 FBD1     		bne	.L341
 4147 1baa FEF737BB 		b	.L626
 4148              	.L310:
 4149              		.loc 1 946 0 is_stmt 1
 4150 1bae FFF7FEFF 		bl	strlen
 4151              	.LVL418:
 4152 1bb2 0146     		mov	r1, r0
 4153 1bb4 3148     		ldr	r0, .L702+20
 4154 1bb6 FFF7FEFF 		bl	e_send_uart2_char
 4155              	.LVL419:
 4156              	.L312:
 4157              		.loc 1 946 0 is_stmt 0 discriminator 2
 4158 1bba FFF7FEFF 		bl	e_uart2_sending
 4159              	.LVL420:
 4160 1bbe 0028     		cmp	r0, #0
 4161 1bc0 FBD1     		bne	.L312
ARM GAS  /var/folders/bw/wdbp2_bd0pn7gl5ybd33xbb80000gn/T//ccZ5cvgj.s 			page 74


 4162 1bc2 FEF72BBB 		b	.L626
 4163              	.L313:
 4164              		.loc 1 964 0 is_stmt 1
 4165 1bc6 FFF7FEFF 		bl	e_send_uart2_char
 4166              	.LVL421:
 4167              	.L315:
 4168              		.loc 1 964 0 is_stmt 0 discriminator 2
 4169 1bca FFF7FEFF 		bl	e_uart2_sending
 4170              	.LVL422:
 4171 1bce 0028     		cmp	r0, #0
 4172 1bd0 FBD1     		bne	.L315
 4173 1bd2 FEF723BB 		b	.L626
 4174              	.L205:
 4175              		.loc 1 672 0 is_stmt 1
 4176 1bd6 FFF7FEFF 		bl	e_send_uart2_char
 4177              	.LVL423:
 4178              	.L207:
 4179              		.loc 1 672 0 is_stmt 0 discriminator 2
 4180 1bda FFF7FEFF 		bl	e_uart2_sending
 4181              	.LVL424:
 4182 1bde 0028     		cmp	r0, #0
 4183 1be0 FBD1     		bne	.L207
 4184 1be2 FEF71BBB 		b	.L626
 4185              	.L208:
 4186              		.loc 1 680 0 is_stmt 1
 4187 1be6 FFF7FEFF 		bl	strlen
 4188              	.LVL425:
 4189 1bea 0146     		mov	r1, r0
 4190 1bec 2348     		ldr	r0, .L702+20
 4191 1bee FFF7FEFF 		bl	e_send_uart2_char
 4192              	.LVL426:
 4193              	.L210:
 4194              		.loc 1 680 0 is_stmt 0 discriminator 2
 4195 1bf2 FFF7FEFF 		bl	e_uart2_sending
 4196              	.LVL427:
 4197 1bf6 0028     		cmp	r0, #0
 4198 1bf8 FBD1     		bne	.L210
 4199 1bfa FEF70FBB 		b	.L626
 4200              	.L291:
 4201              		.loc 1 853 0 is_stmt 1
 4202 1bfe FFF7FEFF 		bl	e_send_uart2_char
 4203              	.LVL428:
 4204              	.L293:
 4205              		.loc 1 853 0 is_stmt 0 discriminator 2
 4206 1c02 FFF7FEFF 		bl	e_uart2_sending
 4207              	.LVL429:
 4208 1c06 0028     		cmp	r0, #0
 4209 1c08 FBD1     		bne	.L293
 4210 1c0a FEF707BB 		b	.L626
 4211              	.L307:
 4212              		.loc 1 938 0 is_stmt 1
 4213 1c0e FFF7FEFF 		bl	e_send_uart2_char
 4214              	.LVL430:
 4215              	.L309:
 4216              		.loc 1 938 0 is_stmt 0 discriminator 2
 4217 1c12 FFF7FEFF 		bl	e_uart2_sending
 4218              	.LVL431:
ARM GAS  /var/folders/bw/wdbp2_bd0pn7gl5ybd33xbb80000gn/T//ccZ5cvgj.s 			page 75


 4219 1c16 0028     		cmp	r0, #0
 4220 1c18 FBD1     		bne	.L309
 4221 1c1a FEF7FFBA 		b	.L626
 4222              	.L332:
 4223              		.loc 1 1015 0 is_stmt 1
 4224 1c1e FFF7FEFF 		bl	strlen
 4225              	.LVL432:
 4226 1c22 0146     		mov	r1, r0
 4227 1c24 1548     		ldr	r0, .L702+20
 4228 1c26 FFF7FEFF 		bl	e_send_uart2_char
 4229              	.LVL433:
 4230              	.L334:
 4231              		.loc 1 1015 0 is_stmt 0 discriminator 2
 4232 1c2a FFF7FEFF 		bl	e_uart2_sending
 4233              	.LVL434:
 4234 1c2e 0028     		cmp	r0, #0
 4235 1c30 FBD1     		bne	.L334
 4236 1c32 FEF7F3BA 		b	.L626
 4237              	.L189:
 4238              		.loc 1 623 0 is_stmt 1
 4239 1c36 FFF7FEFF 		bl	isEpuckVersion1_3
 4240              	.LVL435:
 4241 1c3a 0028     		cmp	r0, #0
 4242 1c3c 00F05281 		beq	.L191
 4243              		.loc 1 624 0
 4244 1c40 174B     		ldr	r3, .L702+56
 4245 1c42 93E80700 		ldm	r3, {r0, r1, r2}
 4246 1c46 0D4B     		ldr	r3, .L702+20
 4247 1c48 03C3     		stmia	r3!, {r0, r1}
 4248 1c4a 1A80     		strh	r2, [r3]	@ movhi
 4249              	.L192:
 4250              		.loc 1 632 0
 4251 1c4c 0B48     		ldr	r0, .L702+20
 4252 1c4e FFF7FEFF 		bl	strlen
 4253              	.LVL436:
 4254 1c52 0146     		mov	r1, r0
 4255 1c54 0948     		ldr	r0, .L702+20
 4256 1c56 FFF7FEFF 		bl	e_send_uart2_char
 4257              	.LVL437:
 4258              	.L193:
 4259              		.loc 1 632 0 is_stmt 0 discriminator 2
 4260 1c5a FFF7FEFF 		bl	e_uart2_sending
 4261              	.LVL438:
 4262 1c5e 0028     		cmp	r0, #0
 4263 1c60 FBD1     		bne	.L193
 4264 1c62 FEF7DBBA 		b	.L626
 4265              	.L703:
 4266 1c66 00BF     		.align	2
 4267              	.L702:
 4268 1c68 00000000 		.word	.LANCHOR18
 4269 1c6c 00000000 		.word	.LANCHOR19
 4270 1c70 00000000 		.word	.LANCHOR20
 4271 1c74 00000000 		.word	.LANCHOR21
 4272 1c78 78000000 		.word	.LC3
 4273 1c7c 00000000 		.word	buffer
 4274 1c80 00000000 		.word	.LANCHOR17
 4275 1c84 6C0A0000 		.word	.LC92
ARM GAS  /var/folders/bw/wdbp2_bd0pn7gl5ybd33xbb80000gn/T//ccZ5cvgj.s 			page 76


 4276 1c88 780A0000 		.word	.LC93
 4277 1c8c 04000000 		.word	buffer+4
 4278 1c90 3C0A0000 		.word	.LC90
 4279 1c94 58090000 		.word	.LC73
 4280 1c98 00000000 		.word	.LANCHOR1
 4281 1c9c 580A0000 		.word	.LC91
 4282 1ca0 6C000000 		.word	.LC2
 4283              	.L301:
 4284              		.loc 1 910 0 is_stmt 1
 4285 1ca4 0998     		ldr	r0, [sp, #36]
 4286 1ca6 FFF7FEFF 		bl	e_get_calibrated_prox
 4287              	.LVL439:
 4288 1caa 0F90     		str	r0, [sp, #60]
 4289 1cac 0120     		movs	r0, #1
 4290 1cae FFF7FEFF 		bl	e_get_calibrated_prox
 4291              	.LVL440:
 4292 1cb2 0E90     		str	r0, [sp, #56]
 4293 1cb4 0220     		movs	r0, #2
 4294 1cb6 FFF7FEFF 		bl	e_get_calibrated_prox
 4295              	.LVL441:
 4296 1cba 0A90     		str	r0, [sp, #40]
 4297 1cbc 0320     		movs	r0, #3
 4298 1cbe FFF7FEFF 		bl	e_get_calibrated_prox
 4299              	.LVL442:
 4300 1cc2 0D90     		str	r0, [sp, #52]
 4301 1cc4 0420     		movs	r0, #4
 4302 1cc6 FFF7FEFF 		bl	e_get_calibrated_prox
 4303              	.LVL443:
 4304 1cca 0B90     		str	r0, [sp, #44]
 4305 1ccc 0520     		movs	r0, #5
 4306 1cce FFF7FEFF 		bl	e_get_calibrated_prox
 4307              	.LVL444:
 4308 1cd2 0446     		mov	r4, r0
 4309 1cd4 0620     		movs	r0, #6
 4310 1cd6 FFF7FEFF 		bl	e_get_calibrated_prox
 4311              	.LVL445:
 4312 1cda 0546     		mov	r5, r0
 4313 1cdc 0720     		movs	r0, #7
 4314 1cde FFF7FEFF 		bl	e_get_calibrated_prox
 4315              	.LVL446:
 4316 1ce2 0646     		mov	r6, r0
 4317 1ce4 0820     		movs	r0, #8
 4318 1ce6 FFF7FEFF 		bl	e_get_calibrated_prox
 4319              	.LVL447:
 4320 1cea 0C90     		str	r0, [sp, #48]
 4321 1cec 0920     		movs	r0, #9
 4322 1cee FFF7FEFF 		bl	e_get_calibrated_prox
 4323              	.LVL448:
 4324 1cf2 0A9B     		ldr	r3, [sp, #40]
 4325 1cf4 0093     		str	r3, [sp]
 4326 1cf6 0C9B     		ldr	r3, [sp, #48]
 4327 1cf8 0D99     		ldr	r1, [sp, #52]
 4328 1cfa 0790     		str	r0, [sp, #28]
 4329 1cfc CDE90563 		strd	r6, r3, [sp, #20]
 4330 1d00 0B9B     		ldr	r3, [sp, #44]
 4331 1d02 0293     		str	r3, [sp, #8]
 4332 1d04 0191     		str	r1, [sp, #4]
ARM GAS  /var/folders/bw/wdbp2_bd0pn7gl5ybd33xbb80000gn/T//ccZ5cvgj.s 			page 77


 4333 1d06 DDE90E32 		ldrd	r3, r2, [sp, #56]
 4334 1d0a B349     		ldr	r1, .L704
 4335 1d0c B348     		ldr	r0, .L704+4
 4336 1d0e CDE90345 		strd	r4, r5, [sp, #12]
 4337 1d12 FFF7FEFF 		bl	sprintf
 4338              	.LVL449:
 4339              		.loc 1 914 0
 4340 1d16 B148     		ldr	r0, .L704+4
 4341 1d18 FFF7FEFF 		bl	strlen
 4342              	.LVL450:
 4343 1d1c 0146     		mov	r1, r0
 4344 1d1e AF48     		ldr	r0, .L704+4
 4345 1d20 FFF7FEFF 		bl	e_send_uart2_char
 4346              	.LVL451:
 4347              	.L303:
 4348              		.loc 1 914 0 is_stmt 0 discriminator 2
 4349 1d24 FFF7FEFF 		bl	e_uart2_sending
 4350              	.LVL452:
 4351 1d28 0028     		cmp	r0, #0
 4352 1d2a FBD1     		bne	.L303
 4353 1d2c FEF776BA 		b	.L626
 4354              	.L196:
 4355              		.loc 1 644 0 is_stmt 1
 4356 1d30 FFF7FEFF 		bl	e_send_uart2_char
 4357              	.LVL453:
 4358              	.L198:
 4359              		.loc 1 644 0 is_stmt 0 discriminator 2
 4360 1d34 FFF7FEFF 		bl	e_uart2_sending
 4361              	.LVL454:
 4362 1d38 0028     		cmp	r0, #0
 4363 1d3a FBD1     		bne	.L198
 4364 1d3c FEF76EBA 		b	.L626
 4365              	.L194:
 4366              		.loc 1 639 0 is_stmt 1
 4367 1d40 0246     		mov	r2, r0
 4368 1d42 A749     		ldr	r1, .L704+8
 4369 1d44 A548     		ldr	r0, .L704+4
 4370 1d46 FFF7FEFF 		bl	sprintf
 4371              	.LVL455:
 4372 1d4a 79E6     		b	.L195
 4373              	.L316:
 4374              		.loc 1 993 0
 4375 1d4c 0321     		movs	r1, #3
 4376 1d4e A548     		ldr	r0, .L704+12
 4377 1d50 FFF7FEFF 		bl	e_send_uart2_char
 4378              	.LVL456:
 4379              	.L327:
 4380              		.loc 1 993 0 is_stmt 0 discriminator 2
 4381 1d54 FFF7FEFF 		bl	e_uart2_sending
 4382              	.LVL457:
 4383 1d58 0028     		cmp	r0, #0
 4384 1d5a FBD1     		bne	.L327
 4385 1d5c FEF75EBA 		b	.L626
 4386              	.L348:
 4387              		.loc 1 1074 0 is_stmt 1
 4388 1d60 FFF7FEFF 		bl	e_send_uart2_char
 4389              	.LVL458:
ARM GAS  /var/folders/bw/wdbp2_bd0pn7gl5ybd33xbb80000gn/T//ccZ5cvgj.s 			page 78


 4390              	.L350:
 4391              		.loc 1 1074 0 is_stmt 0 discriminator 2
 4392 1d64 FFF7FEFF 		bl	e_uart2_sending
 4393              	.LVL459:
 4394 1d68 0028     		cmp	r0, #0
 4395 1d6a FBD1     		bne	.L350
 4396 1d6c FEF756BA 		b	.L626
 4397              	.L199:
 4398              		.loc 1 653 0 is_stmt 1
 4399 1d70 0321     		movs	r1, #3
 4400 1d72 9D48     		ldr	r0, .L704+16
 4401 1d74 FFF7FEFF 		bl	e_send_uart2_char
 4402              	.LVL460:
 4403              	.L201:
 4404              		.loc 1 653 0 is_stmt 0 discriminator 2
 4405 1d78 FFF7FEFF 		bl	e_uart2_sending
 4406              	.LVL461:
 4407 1d7c 0028     		cmp	r0, #0
 4408 1d7e FBD1     		bne	.L201
 4409 1d80 FEF74CBA 		b	.L626
 4410              	.L219:
 4411              		.loc 1 756 0 is_stmt 1
 4412 1d84 FFF7FEFF 		bl	e_send_uart2_char
 4413              	.LVL462:
 4414              	.L253:
 4415              		.loc 1 756 0 is_stmt 0 discriminator 2
 4416 1d88 FFF7FEFF 		bl	e_uart2_sending
 4417              	.LVL463:
 4418 1d8c 0028     		cmp	r0, #0
 4419 1d8e FBD1     		bne	.L253
 4420              		.loc 1 757 0 is_stmt 1
 4421 1d90 FFF7FEFF 		bl	isEpuckVersion1_3
 4422              	.LVL464:
 4423 1d94 0028     		cmp	r0, #0
 4424 1d96 00F0EE80 		beq	.L685
 4425              	.L254:
 4426              		.loc 1 760 0
 4427 1d9a FFF7FEFF 		bl	isEpuckVersion1_3
 4428              	.LVL465:
 4429 1d9e 0028     		cmp	r0, #0
 4430 1da0 00F0B580 		beq	.L256
 4431              		.loc 1 761 0
 4432 1da4 1921     		movs	r1, #25
 4433 1da6 9148     		ldr	r0, .L704+20
 4434 1da8 FFF7FEFF 		bl	e_send_uart2_char
 4435              	.LVL466:
 4436              	.L257:
 4437              		.loc 1 761 0 is_stmt 0 discriminator 2
 4438 1dac FFF7FEFF 		bl	e_uart2_sending
 4439              	.LVL467:
 4440 1db0 0028     		cmp	r0, #0
 4441 1db2 FBD1     		bne	.L257
 4442              	.L258:
 4443              		.loc 1 766 0 is_stmt 1
 4444 1db4 1D21     		movs	r1, #29
 4445 1db6 8E48     		ldr	r0, .L704+24
 4446 1db8 FFF7FEFF 		bl	e_send_uart2_char
ARM GAS  /var/folders/bw/wdbp2_bd0pn7gl5ybd33xbb80000gn/T//ccZ5cvgj.s 			page 79


 4447              	.LVL468:
 4448              	.L260:
 4449              		.loc 1 766 0 is_stmt 0 discriminator 2
 4450 1dbc FFF7FEFF 		bl	e_uart2_sending
 4451              	.LVL469:
 4452 1dc0 0028     		cmp	r0, #0
 4453 1dc2 FBD1     		bne	.L260
 4454              		.loc 1 767 0 is_stmt 1
 4455 1dc4 2621     		movs	r1, #38
 4456 1dc6 8B48     		ldr	r0, .L704+28
 4457 1dc8 FFF7FEFF 		bl	e_send_uart2_char
 4458              	.LVL470:
 4459              	.L261:
 4460              		.loc 1 767 0 is_stmt 0 discriminator 2
 4461 1dcc FFF7FEFF 		bl	e_uart2_sending
 4462              	.LVL471:
 4463 1dd0 0028     		cmp	r0, #0
 4464 1dd2 FBD1     		bne	.L261
 4465              		.loc 1 768 0 is_stmt 1
 4466 1dd4 2621     		movs	r1, #38
 4467 1dd6 8848     		ldr	r0, .L704+32
 4468 1dd8 FFF7FEFF 		bl	e_send_uart2_char
 4469              	.LVL472:
 4470              	.L262:
 4471              		.loc 1 768 0 is_stmt 0 discriminator 2
 4472 1ddc FFF7FEFF 		bl	e_uart2_sending
 4473              	.LVL473:
 4474 1de0 0028     		cmp	r0, #0
 4475 1de2 FBD1     		bne	.L262
 4476              		.loc 1 771 0 is_stmt 1
 4477 1de4 1721     		movs	r1, #23
 4478 1de6 8548     		ldr	r0, .L704+36
 4479 1de8 FFF7FEFF 		bl	e_send_uart2_char
 4480              	.LVL474:
 4481              	.L263:
 4482              		.loc 1 771 0 is_stmt 0 discriminator 2
 4483 1dec FFF7FEFF 		bl	e_uart2_sending
 4484              	.LVL475:
 4485 1df0 0028     		cmp	r0, #0
 4486 1df2 FBD1     		bne	.L263
 4487              		.loc 1 773 0 is_stmt 1
 4488 1df4 1021     		movs	r1, #16
 4489 1df6 8248     		ldr	r0, .L704+40
 4490 1df8 FFF7FEFF 		bl	e_send_uart2_char
 4491              	.LVL476:
 4492              	.L264:
 4493              		.loc 1 773 0 is_stmt 0 discriminator 2
 4494 1dfc FFF7FEFF 		bl	e_uart2_sending
 4495              	.LVL477:
 4496 1e00 0028     		cmp	r0, #0
 4497 1e02 FBD1     		bne	.L264
 4498              		.loc 1 776 0 is_stmt 1
 4499 1e04 2721     		movs	r1, #39
 4500 1e06 7F48     		ldr	r0, .L704+44
 4501 1e08 FFF7FEFF 		bl	e_send_uart2_char
 4502              	.LVL478:
 4503              	.L265:
ARM GAS  /var/folders/bw/wdbp2_bd0pn7gl5ybd33xbb80000gn/T//ccZ5cvgj.s 			page 80


 4504              		.loc 1 776 0 is_stmt 0 discriminator 2
 4505 1e0c FFF7FEFF 		bl	e_uart2_sending
 4506              	.LVL479:
 4507 1e10 0028     		cmp	r0, #0
 4508 1e12 FBD1     		bne	.L265
 4509              		.loc 1 777 0 is_stmt 1
 4510 1e14 2B21     		movs	r1, #43
 4511 1e16 7C48     		ldr	r0, .L704+48
 4512 1e18 FFF7FEFF 		bl	e_send_uart2_char
 4513              	.LVL480:
 4514              	.L266:
 4515              		.loc 1 777 0 is_stmt 0 discriminator 2
 4516 1e1c FFF7FEFF 		bl	e_uart2_sending
 4517              	.LVL481:
 4518 1e20 0028     		cmp	r0, #0
 4519 1e22 FBD1     		bne	.L266
 4520              		.loc 1 779 0 is_stmt 1
 4521 1e24 1921     		movs	r1, #25
 4522 1e26 7948     		ldr	r0, .L704+52
 4523 1e28 FFF7FEFF 		bl	e_send_uart2_char
 4524              	.LVL482:
 4525              	.L267:
 4526              		.loc 1 779 0 is_stmt 0 discriminator 2
 4527 1e2c FFF7FEFF 		bl	e_uart2_sending
 4528              	.LVL483:
 4529 1e30 0028     		cmp	r0, #0
 4530 1e32 FBD1     		bne	.L267
 4531              		.loc 1 781 0 is_stmt 1
 4532 1e34 1521     		movs	r1, #21
 4533 1e36 7648     		ldr	r0, .L704+56
 4534 1e38 FFF7FEFF 		bl	e_send_uart2_char
 4535              	.LVL484:
 4536              	.L268:
 4537              		.loc 1 781 0 is_stmt 0 discriminator 2
 4538 1e3c FFF7FEFF 		bl	e_uart2_sending
 4539              	.LVL485:
 4540 1e40 0028     		cmp	r0, #0
 4541 1e42 FBD1     		bne	.L268
 4542              		.loc 1 782 0 is_stmt 1
 4543 1e44 1921     		movs	r1, #25
 4544 1e46 7348     		ldr	r0, .L704+60
 4545 1e48 FFF7FEFF 		bl	e_send_uart2_char
 4546              	.LVL486:
 4547              	.L269:
 4548              		.loc 1 782 0 is_stmt 0 discriminator 2
 4549 1e4c FFF7FEFF 		bl	e_uart2_sending
 4550              	.LVL487:
 4551 1e50 0028     		cmp	r0, #0
 4552 1e52 FBD1     		bne	.L269
 4553              		.loc 1 783 0 is_stmt 1
 4554 1e54 2921     		movs	r1, #41
 4555 1e56 7048     		ldr	r0, .L704+64
 4556 1e58 FFF7FEFF 		bl	e_send_uart2_char
 4557              	.LVL488:
 4558              	.L270:
 4559              		.loc 1 783 0 is_stmt 0 discriminator 2
 4560 1e5c FFF7FEFF 		bl	e_uart2_sending
ARM GAS  /var/folders/bw/wdbp2_bd0pn7gl5ybd33xbb80000gn/T//ccZ5cvgj.s 			page 81


 4561              	.LVL489:
 4562 1e60 0028     		cmp	r0, #0
 4563 1e62 FBD1     		bne	.L270
 4564              		.loc 1 784 0 is_stmt 1
 4565 1e64 2921     		movs	r1, #41
 4566 1e66 6D48     		ldr	r0, .L704+68
 4567 1e68 FFF7FEFF 		bl	e_send_uart2_char
 4568              	.LVL490:
 4569              	.L271:
 4570              		.loc 1 784 0 is_stmt 0 discriminator 2
 4571 1e6c FFF7FEFF 		bl	e_uart2_sending
 4572              	.LVL491:
 4573 1e70 0028     		cmp	r0, #0
 4574 1e72 FBD1     		bne	.L271
 4575              		.loc 1 785 0 is_stmt 1
 4576 1e74 1821     		movs	r1, #24
 4577 1e76 6A48     		ldr	r0, .L704+72
 4578 1e78 FFF7FEFF 		bl	e_send_uart2_char
 4579              	.LVL492:
 4580              	.L272:
 4581              		.loc 1 785 0 is_stmt 0 discriminator 2
 4582 1e7c FFF7FEFF 		bl	e_uart2_sending
 4583              	.LVL493:
 4584 1e80 0028     		cmp	r0, #0
 4585 1e82 FBD1     		bne	.L272
 4586              		.loc 1 786 0 is_stmt 1
 4587 1e84 2921     		movs	r1, #41
 4588 1e86 6748     		ldr	r0, .L704+76
 4589 1e88 FFF7FEFF 		bl	e_send_uart2_char
 4590              	.LVL494:
 4591              	.L273:
 4592              		.loc 1 786 0 is_stmt 0 discriminator 2
 4593 1e8c FFF7FEFF 		bl	e_uart2_sending
 4594              	.LVL495:
 4595 1e90 0028     		cmp	r0, #0
 4596 1e92 FBD1     		bne	.L273
 4597              		.loc 1 788 0 is_stmt 1
 4598 1e94 2421     		movs	r1, #36
 4599 1e96 6448     		ldr	r0, .L704+80
 4600 1e98 FFF7FEFF 		bl	e_send_uart2_char
 4601              	.LVL496:
 4602              	.L274:
 4603              		.loc 1 788 0 is_stmt 0 discriminator 2
 4604 1e9c FFF7FEFF 		bl	e_uart2_sending
 4605              	.LVL497:
 4606 1ea0 0028     		cmp	r0, #0
 4607 1ea2 FBD1     		bne	.L274
 4608              		.loc 1 789 0 is_stmt 1
 4609 1ea4 1D21     		movs	r1, #29
 4610 1ea6 6148     		ldr	r0, .L704+84
 4611 1ea8 FFF7FEFF 		bl	e_send_uart2_char
 4612              	.LVL498:
 4613              	.L275:
 4614              		.loc 1 789 0 is_stmt 0 discriminator 2
 4615 1eac FFF7FEFF 		bl	e_uart2_sending
 4616              	.LVL499:
 4617 1eb0 0028     		cmp	r0, #0
ARM GAS  /var/folders/bw/wdbp2_bd0pn7gl5ybd33xbb80000gn/T//ccZ5cvgj.s 			page 82


 4618 1eb2 FBD1     		bne	.L275
 4619 1eb4 FEF7B2B9 		b	.L626
 4620              	.L202:
 4621              		.loc 1 662 0 is_stmt 1
 4622 1eb8 FFF7FEFF 		bl	strlen
 4623              	.LVL500:
 4624 1ebc 0146     		mov	r1, r0
 4625 1ebe 4748     		ldr	r0, .L704+4
 4626 1ec0 FFF7FEFF 		bl	e_send_uart2_char
 4627              	.LVL501:
 4628              	.L204:
 4629              		.loc 1 662 0 is_stmt 0 discriminator 2
 4630 1ec4 FFF7FEFF 		bl	e_uart2_sending
 4631              	.LVL502:
 4632 1ec8 0028     		cmp	r0, #0
 4633 1eca FBD1     		bne	.L204
 4634 1ecc FEF7A6B9 		b	.L626
 4635              	.L211:
 4636              		.loc 1 689 0 is_stmt 1
 4637 1ed0 0321     		movs	r1, #3
 4638 1ed2 5748     		ldr	r0, .L704+88
 4639 1ed4 FFF7FEFF 		bl	e_send_uart2_char
 4640              	.LVL503:
 4641              	.L213:
 4642              		.loc 1 689 0 is_stmt 0 discriminator 2
 4643 1ed8 FFF7FEFF 		bl	e_uart2_sending
 4644              	.LVL504:
 4645 1edc 0028     		cmp	r0, #0
 4646 1ede FBD1     		bne	.L213
 4647 1ee0 FEF79CB9 		b	.L626
 4648              	.L191:
 4649              		.loc 1 626 0 is_stmt 1
 4650 1ee4 0121     		movs	r1, #1
 4651 1ee6 FFF7FEFF 		bl	e_get_acc_filtered
 4652              	.LVL505:
 4653 1eea 0121     		movs	r1, #1
 4654 1eec 0446     		mov	r4, r0
 4655 1eee 0846     		mov	r0, r1
 4656 1ef0 FFF7FEFF 		bl	e_get_acc_filtered
 4657              	.LVL506:
 4658 1ef4 0121     		movs	r1, #1
 4659 1ef6 0546     		mov	r5, r0
 4660 1ef8 0220     		movs	r0, #2
 4661 1efa FFF7FEFF 		bl	e_get_acc_filtered
 4662              	.LVL507:
 4663 1efe 2B46     		mov	r3, r5
 4664 1f00 0090     		str	r0, [sp]
 4665 1f02 2246     		mov	r2, r4
 4666 1f04 4B49     		ldr	r1, .L704+92
 4667 1f06 3548     		ldr	r0, .L704+4
 4668 1f08 FFF7FEFF 		bl	sprintf
 4669              	.LVL508:
 4670 1f0c 9EE6     		b	.L192
 4671              	.L256:
 4672              		.loc 1 763 0
 4673 1f0e 2721     		movs	r1, #39
 4674 1f10 4948     		ldr	r0, .L704+96
ARM GAS  /var/folders/bw/wdbp2_bd0pn7gl5ybd33xbb80000gn/T//ccZ5cvgj.s 			page 83


 4675 1f12 FFF7FEFF 		bl	e_send_uart2_char
 4676              	.LVL509:
 4677              	.L259:
 4678              		.loc 1 763 0 is_stmt 0 discriminator 2
 4679 1f16 FFF7FEFF 		bl	e_uart2_sending
 4680              	.LVL510:
 4681 1f1a 0028     		cmp	r0, #0
 4682 1f1c FBD1     		bne	.L259
 4683 1f1e 49E7     		b	.L258
 4684              	.L223:
 4685              		.loc 1 721 0 is_stmt 1
 4686 1f20 2F21     		movs	r1, #47
 4687 1f22 4648     		ldr	r0, .L704+100
 4688 1f24 FFF7FEFF 		bl	e_send_uart1_char
 4689              	.LVL511:
 4690              	.L226:
 4691              		.loc 1 721 0 is_stmt 0 discriminator 2
 4692 1f28 FFF7FEFF 		bl	e_uart1_sending
 4693              	.LVL512:
 4694 1f2c 0028     		cmp	r0, #0
 4695 1f2e FBD1     		bne	.L226
 4696 1f30 FFF793BA 		b	.L225
 4697              	.L682:
 4698              		.loc 1 971 0 is_stmt 1
 4699 1f34 FFF7FEFF 		bl	e_init_sound
 4700              	.LVL513:
 4701              		.loc 1 972 0
 4702 1f38 414A     		ldr	r2, .L704+104
 4703 1f3a 0123     		movs	r3, #1
 4704 1f3c 1370     		strb	r3, [r2]
 4705 1f3e FEF7BCBF 		b	.L317
 4706              	.L667:
 4707              		.loc 1 702 0
 4708 1f42 FFF7FEFF 		bl	getXAxisGyro
 4709              	.LVL514:
 4710 1f46 0446     		mov	r4, r0
 4711 1f48 FFF7FEFF 		bl	getYAxisGyro
 4712              	.LVL515:
 4713 1f4c 0546     		mov	r5, r0
 4714 1f4e FFF7FEFF 		bl	getZAxisGyro
 4715              	.LVL516:
 4716 1f52 2B46     		mov	r3, r5
 4717 1f54 0090     		str	r0, [sp]
 4718 1f56 2246     		mov	r2, r4
 4719 1f58 3A49     		ldr	r1, .L704+108
 4720 1f5a 2048     		ldr	r0, .L704+4
 4721 1f5c FFF7FEFF 		bl	sprintf
 4722              	.LVL517:
 4723 1f60 FEF74DB9 		b	.L353
 4724              	.L681:
 4725              		.loc 1 999 0
 4726 1f64 FFF7FEFF 		bl	getTemperature
 4727              	.LVL518:
 4728 1f68 3749     		ldr	r1, .L704+112
 4729 1f6a 0246     		mov	r2, r0
 4730 1f6c 1B48     		ldr	r0, .L704+4
 4731 1f6e FFF7FEFF 		bl	sprintf
ARM GAS  /var/folders/bw/wdbp2_bd0pn7gl5ybd33xbb80000gn/T//ccZ5cvgj.s 			page 84


 4732              	.LVL519:
 4733 1f72 FEF79FBE 		b	.L354
 4734              	.L685:
 4735              		.loc 1 758 0
 4736 1f76 1921     		movs	r1, #25
 4737 1f78 3448     		ldr	r0, .L704+116
 4738 1f7a FFF7FEFF 		bl	e_send_uart2_char
 4739              	.LVL520:
 4740              	.L255:
 4741              		.loc 1 758 0 is_stmt 0 discriminator 2
 4742 1f7e FFF7FEFF 		bl	e_uart2_sending
 4743              	.LVL521:
 4744 1f82 0028     		cmp	r0, #0
 4745 1f84 FBD1     		bne	.L255
 4746 1f86 08E7     		b	.L254
 4747              	.L277:
 4748              		.loc 1 808 0 is_stmt 1
 4749 1f88 129B     		ldr	r3, [sp, #72]
 4750 1f8a 1A68     		ldr	r2, [r3]
 4751 1f8c 139B     		ldr	r3, [sp, #76]
 4752 1f8e 1B68     		ldr	r3, [r3]
 4753 1f90 03FB02F3 		mul	r3, r3, r2
 4754 1f94 119A     		ldr	r2, [sp, #68]
 4755 1f96 5B00     		lsls	r3, r3, #1
 4756 1f98 1360     		str	r3, [r2]
 4757 1f9a FFF786BB 		b	.L278
 4758              	.L684:
 4759              		.loc 1 749 0
 4760 1f9e 1F21     		movs	r1, #31
 4761 1fa0 2B48     		ldr	r0, .L704+120
 4762 1fa2 FFF7FEFF 		bl	e_send_uart1_char
 4763              	.LVL522:
 4764              	.L248:
 4765              		.loc 1 749 0 is_stmt 0 discriminator 2
 4766 1fa6 FFF7FEFF 		bl	e_uart1_sending
 4767              	.LVL523:
 4768 1faa 0028     		cmp	r0, #0
 4769 1fac FBD1     		bne	.L248
 4770 1fae FFF7EEBA 		b	.L247
 4771              	.L683:
 4772              		.loc 1 731 0 is_stmt 1
 4773 1fb2 1821     		movs	r1, #24
 4774 1fb4 2748     		ldr	r0, .L704+124
 4775 1fb6 FFF7FEFF 		bl	e_send_uart1_char
 4776              	.LVL524:
 4777              	.L233:
 4778              		.loc 1 731 0 is_stmt 0 discriminator 2
 4779 1fba FFF7FEFF 		bl	e_uart1_sending
 4780              	.LVL525:
 4781 1fbe 0028     		cmp	r0, #0
 4782 1fc0 FBD1     		bne	.L233
 4783 1fc2 FFF777BA 		b	.L232
 4784              	.L318:
 4785              		.loc 1 986 0 is_stmt 1
 4786 1fc6 FFF7FEFF 		bl	e_close_sound
 4787              	.LVL526:
 4788              		.loc 1 987 0
ARM GAS  /var/folders/bw/wdbp2_bd0pn7gl5ybd33xbb80000gn/T//ccZ5cvgj.s 			page 85


 4789 1fca FFF7FEFF 		bl	stopCurrentMelody
 4790              	.LVL527:
 4791              		.loc 1 988 0
 4792 1fce 1C4A     		ldr	r2, .L704+104
 4793 1fd0 0023     		movs	r3, #0
 4794 1fd2 1370     		strb	r3, [r2]
 4795              		.loc 1 989 0
 4796 1fd4 FFF7D9BB 		b	.L325
 4797              	.L705:
 4798              		.align	2
 4799              	.L704:
 4800 1fd8 18090000 		.word	.LC71
 4801 1fdc 00000000 		.word	buffer
 4802 1fe0 88000000 		.word	.LC4
 4803 1fe4 A4090000 		.word	.LC79
 4804 1fe8 98000000 		.word	.LC6
 4805 1fec FC050000 		.word	.LC45
 4806 1ff0 40060000 		.word	.LC47
 4807 1ff4 60060000 		.word	.LC48
 4808 1ff8 88060000 		.word	.LC49
 4809 1ffc B0060000 		.word	.LC50
 4810 2000 C8060000 		.word	.LC51
 4811 2004 DC060000 		.word	.LC52
 4812 2008 04070000 		.word	.LC53
 4813 200c 30070000 		.word	.LC54
 4814 2010 4C070000 		.word	.LC55
 4815 2014 64070000 		.word	.LC56
 4816 2018 80070000 		.word	.LC57
 4817 201c AC070000 		.word	.LC58
 4818 2020 D8070000 		.word	.LC59
 4819 2024 F4070000 		.word	.LC60
 4820 2028 20080000 		.word	.LC61
 4821 202c 48080000 		.word	.LC62
 4822 2030 C8000000 		.word	.LC12
 4823 2034 5C000000 		.word	.LC1
 4824 2038 18060000 		.word	.LC46
 4825 203c 90010000 		.word	.LC19
 4826 2040 00000000 		.word	.LANCHOR9
 4827 2044 00010000 		.word	.LC14
 4828 2048 A8090000 		.word	.LC80
 4829 204c E0050000 		.word	.LC44
 4830 2050 10050000 		.word	.LC39
 4831 2054 9C020000 		.word	.LC25
 4832              	.LBE6:
 4833              		.cfi_endproc
 4834              	.LFE259:
 4835              		.size	run_asercom, .-run_asercom
 4836              		.global	e_ambient_and_reflected_ir
 4837              		.global	e_ambient_ir
 4838              		.global	c
 4839              		.global	selector
 4840              		.global	buffer
 4841              		.section	.bss.LED_action.13175,"aw",%nobits
 4842              		.align	2
 4843              		.set	.LANCHOR28,. + 0
 4844              		.type	LED_action.13175, %object
 4845              		.size	LED_action.13175, 4
ARM GAS  /var/folders/bw/wdbp2_bd0pn7gl5ybd33xbb80000gn/T//ccZ5cvgj.s 			page 86


 4846              	LED_action.13175:
 4847 0000 00000000 		.space	4
 4848              		.section	.bss.LED_nbr.13174,"aw",%nobits
 4849              		.align	2
 4850              		.set	.LANCHOR31,. + 0
 4851              		.type	LED_nbr.13174, %object
 4852              		.size	LED_nbr.13174, 4
 4853              	LED_nbr.13174:
 4854 0000 00000000 		.space	4
 4855              		.section	.bss.accelero.13198,"aw",%nobits
 4856              		.align	2
 4857              		.set	.LANCHOR15,. + 0
 4858              		.type	accelero.13198, %object
 4859              		.size	accelero.13198, 12
 4860              	accelero.13198:
 4861 0000 00000000 		.space	12
 4861      00000000 
 4861      00000000 
 4862              		.section	.bss.accx.13176,"aw",%nobits
 4863              		.align	2
 4864              		.set	.LANCHOR12,. + 0
 4865              		.type	accx.13176, %object
 4866              		.size	accx.13176, 4
 4867              	accx.13176:
 4868 0000 00000000 		.space	4
 4869              		.section	.bss.accy.13177,"aw",%nobits
 4870              		.align	2
 4871              		.set	.LANCHOR13,. + 0
 4872              		.type	accy.13177, %object
 4873              		.size	accy.13177, 4
 4874              	accy.13177:
 4875 0000 00000000 		.space	4
 4876              		.section	.bss.accz.13178,"aw",%nobits
 4877              		.align	2
 4878              		.set	.LANCHOR14,. + 0
 4879              		.type	accz.13178, %object
 4880              		.size	accz.13178, 4
 4881              	accz.13178:
 4882 0000 00000000 		.space	4
 4883              		.section	.bss.buffer,"aw",%nobits
 4884              		.align	2
 4885              		.type	buffer, %object
 4886              		.size	buffer, 4139
 4887              	buffer:
 4888 0000 00000000 		.space	4139
 4888      00000000 
 4888      00000000 
 4888      00000000 
 4888      00000000 
 4889              		.section	.bss.c,"aw",%nobits
 4890              		.set	.LANCHOR10,. + 0
 4891              		.type	c, %object
 4892              		.size	c, 1
 4893              	c:
 4894 0000 00       		.space	1
 4895              		.section	.bss.c1.13164,"aw",%nobits
 4896              		.set	.LANCHOR16,. + 0
ARM GAS  /var/folders/bw/wdbp2_bd0pn7gl5ybd33xbb80000gn/T//ccZ5cvgj.s 			page 87


 4897              		.type	c1.13164, %object
 4898              		.size	c1.13164, 1
 4899              	c1.13164:
 4900 0000 00       		.space	1
 4901              		.section	.bss.c2.13165,"aw",%nobits
 4902              		.set	.LANCHOR17,. + 0
 4903              		.type	c2.13165, %object
 4904              		.size	c2.13165, 1
 4905              	c2.13165:
 4906 0000 00       		.space	1
 4907              		.section	.bss.cam_heigth.13185,"aw",%nobits
 4908              		.align	2
 4909              		.set	.LANCHOR4,. + 0
 4910              		.type	cam_heigth.13185, %object
 4911              		.size	cam_heigth.13185, 4
 4912              	cam_heigth.13185:
 4913 0000 00000000 		.space	4
 4914              		.section	.bss.cam_mode.13183,"aw",%nobits
 4915              		.align	2
 4916              		.set	.LANCHOR2,. + 0
 4917              		.type	cam_mode.13183, %object
 4918              		.size	cam_mode.13183, 4
 4919              	cam_mode.13183:
 4920 0000 00000000 		.space	4
 4921              		.section	.bss.cam_size.13187,"aw",%nobits
 4922              		.align	2
 4923              		.set	.LANCHOR6,. + 0
 4924              		.type	cam_size.13187, %object
 4925              		.size	cam_size.13187, 4
 4926              	cam_size.13187:
 4927 0000 00000000 		.space	4
 4928              		.section	.bss.cam_width.13184,"aw",%nobits
 4929              		.align	2
 4930              		.set	.LANCHOR3,. + 0
 4931              		.type	cam_width.13184, %object
 4932              		.size	cam_width.13184, 4
 4933              	cam_width.13184:
 4934 0000 00000000 		.space	4
 4935              		.section	.bss.cam_x1.13188,"aw",%nobits
 4936              		.align	2
 4937              		.set	.LANCHOR29,. + 0
 4938              		.type	cam_x1.13188, %object
 4939              		.size	cam_x1.13188, 4
 4940              	cam_x1.13188:
 4941 0000 00000000 		.space	4
 4942              		.section	.bss.cam_y1.13189,"aw",%nobits
 4943              		.align	2
 4944              		.set	.LANCHOR30,. + 0
 4945              		.type	cam_y1.13189, %object
 4946              		.size	cam_y1.13189, 4
 4947              	cam_y1.13189:
 4948 0000 00000000 		.space	4
 4949              		.section	.bss.cam_zoom.13186,"aw",%nobits
 4950              		.align	2
 4951              		.set	.LANCHOR5,. + 0
 4952              		.type	cam_zoom.13186, %object
 4953              		.size	cam_zoom.13186, 4
ARM GAS  /var/folders/bw/wdbp2_bd0pn7gl5ybd33xbb80000gn/T//ccZ5cvgj.s 			page 88


 4954              	cam_zoom.13186:
 4955 0000 00000000 		.space	4
 4956              		.section	.bss.e_ambient_and_reflected_ir,"aw",%nobits
 4957              		.align	2
 4958              		.type	e_ambient_and_reflected_ir, %object
 4959              		.size	e_ambient_and_reflected_ir, 40
 4960              	e_ambient_and_reflected_ir:
 4961 0000 00000000 		.space	40
 4961      00000000 
 4961      00000000 
 4961      00000000 
 4961      00000000 
 4962              		.section	.bss.e_ambient_ir,"aw",%nobits
 4963              		.align	2
 4964              		.type	e_ambient_ir, %object
 4965              		.size	e_ambient_ir, 40
 4966              	e_ambient_ir:
 4967 0000 00000000 		.space	40
 4967      00000000 
 4967      00000000 
 4967      00000000 
 4967      00000000 
 4968              		.section	.bss.first.13190,"aw",%nobits
 4969              		.set	.LANCHOR9,. + 0
 4970              		.type	first.13190, %object
 4971              		.size	first.13190, 1
 4972              	first.13190:
 4973 0000 00       		.space	1
 4974              		.section	.bss.gyrox.13180,"aw",%nobits
 4975              		.align	2
 4976              		.set	.LANCHOR20,. + 0
 4977              		.type	gyrox.13180, %object
 4978              		.size	gyrox.13180, 4
 4979              	gyrox.13180:
 4980 0000 00000000 		.space	4
 4981              		.section	.bss.gyroy.13181,"aw",%nobits
 4982              		.align	2
 4983              		.set	.LANCHOR19,. + 0
 4984              		.type	gyroy.13181, %object
 4985              		.size	gyroy.13181, 4
 4986              	gyroy.13181:
 4987 0000 00000000 		.space	4
 4988              		.section	.bss.gyroz.13182,"aw",%nobits
 4989              		.align	2
 4990              		.set	.LANCHOR18,. + 0
 4991              		.type	gyroz.13182, %object
 4992              		.size	gyroz.13182, 4
 4993              	gyroz.13182:
 4994 0000 00000000 		.space	4
 4995              		.section	.bss.i.13167,"aw",%nobits
 4996              		.align	2
 4997              		.set	.LANCHOR11,. + 0
 4998              		.type	i.13167, %object
 4999              		.size	i.13167, 4
 5000              	i.13167:
 5001 0000 00000000 		.space	4
 5002              		.section	.bss.j.13168,"aw",%nobits
ARM GAS  /var/folders/bw/wdbp2_bd0pn7gl5ybd33xbb80000gn/T//ccZ5cvgj.s 			page 89


 5003              		.align	2
 5004              		.set	.LANCHOR22,. + 0
 5005              		.type	j.13168, %object
 5006              		.size	j.13168, 4
 5007              	j.13168:
 5008 0000 00000000 		.space	4
 5009              		.section	.bss.mod.13192,"aw",%nobits
 5010              		.align	2
 5011              		.set	.LANCHOR25,. + 0
 5012              		.type	mod.13192, %object
 5013              		.size	mod.13192, 4
 5014              	mod.13192:
 5015 0000 00000000 		.space	4
 5016              		.section	.bss.positionl.13173,"aw",%nobits
 5017              		.align	2
 5018              		.set	.LANCHOR24,. + 0
 5019              		.type	positionl.13173, %object
 5020              		.size	positionl.13173, 4
 5021              	positionl.13173:
 5022 0000 00000000 		.space	4
 5023              		.section	.bss.positionr.13172,"aw",%nobits
 5024              		.align	2
 5025              		.set	.LANCHOR23,. + 0
 5026              		.type	positionr.13172, %object
 5027              		.size	positionr.13172, 4
 5028              	positionr.13172:
 5029 0000 00000000 		.space	4
 5030              		.section	.bss.reg.13193,"aw",%nobits
 5031              		.align	2
 5032              		.set	.LANCHOR26,. + 0
 5033              		.type	reg.13193, %object
 5034              		.size	reg.13193, 4
 5035              	reg.13193:
 5036 0000 00000000 		.space	4
 5037              		.section	.bss.selector,"aw",%nobits
 5038              		.align	2
 5039              		.set	.LANCHOR0,. + 0
 5040              		.type	selector, %object
 5041              		.size	selector, 4
 5042              	selector:
 5043 0000 00000000 		.space	4
 5044              		.section	.bss.sound.13179,"aw",%nobits
 5045              		.align	2
 5046              		.set	.LANCHOR32,. + 0
 5047              		.type	sound.13179, %object
 5048              		.size	sound.13179, 4
 5049              	sound.13179:
 5050 0000 00000000 		.space	4
 5051              		.section	.bss.speedl.13171,"aw",%nobits
 5052              		.align	2
 5053              		.set	.LANCHOR8,. + 0
 5054              		.type	speedl.13171, %object
 5055              		.size	speedl.13171, 4
 5056              	speedl.13171:
 5057 0000 00000000 		.space	4
 5058              		.section	.bss.speedr.13170,"aw",%nobits
 5059              		.align	2
ARM GAS  /var/folders/bw/wdbp2_bd0pn7gl5ybd33xbb80000gn/T//ccZ5cvgj.s 			page 90


 5060              		.set	.LANCHOR7,. + 0
 5061              		.type	speedr.13170, %object
 5062              		.size	speedr.13170, 4
 5063              	speedr.13170:
 5064 0000 00000000 		.space	4
 5065              		.section	.bss.val.13194,"aw",%nobits
 5066              		.align	2
 5067              		.set	.LANCHOR27,. + 0
 5068              		.type	val.13194, %object
 5069              		.size	val.13194, 4
 5070              	val.13194:
 5071 0000 00000000 		.space	4
 5072              		.section	.bss.wait_cam.13166,"aw",%nobits
 5073              		.set	.LANCHOR21,. + 0
 5074              		.type	wait_cam.13166, %object
 5075              		.size	wait_cam.13166, 1
 5076              	wait_cam.13166:
 5077 0000 00       		.space	1
 5078              		.section	.data.HWversion.13201,"aw",%progbits
 5079              		.align	2
 5080              		.set	.LANCHOR1,. + 0
 5081              		.type	HWversion.13201, %object
 5082              		.size	HWversion.13201, 4
 5083              	HWversion.13201:
 5084 0000 FFFF0000 		.word	65535
 5085              		.section	.rodata.run_asercom.str1.4,"aMS",%progbits,1
 5086              		.align	2
 5087              	.LC0:
 5088 0000 0C075745 		.ascii	"\014\007WELCOME to the SerCom protocol on e-Puck\015"
 5088      4C434F4D 
 5088      4520746F 
 5088      20746865 
 5088      20536572 
 5089 002b 0A746865 		.ascii	"\012the EPFL education robot type \"H\" for help\015"
 5089      20455046 
 5089      4C206564 
 5089      75636174 
 5089      696F6E20 
 5090 0057 0A00     		.ascii	"\012\000"
 5091 0059 000000   		.space	3
 5092              	.LC1:
 5093 005c 612C2564 		.ascii	"a,%d,%d,%d\015\012\000"
 5093      2C25642C 
 5093      25640D0A 
 5093      00
 5094 0069 000000   		.space	3
 5095              	.LC2:
 5096 006c 612C302C 		.ascii	"a,0,0,0\015\012\000"
 5096      302C300D 
 5096      0A00
 5097 0076 0000     		.space	2
 5098              	.LC3:
 5099 0078 622C2564 		.ascii	"b,%d (%d%%)\015\012\000"
 5099      20282564 
 5099      2525290D 
 5099      0A00
 5100 0086 0000     		.space	2
ARM GAS  /var/folders/bw/wdbp2_bd0pn7gl5ybd33xbb80000gn/T//ccZ5cvgj.s 			page 91


 5101              	.LC4:
 5102 0088 622C2564 		.ascii	"b,%d\015\012\000"
 5102      0D0A00
 5103 008f 00       		.space	1
 5104              	.LC5:
 5105 0090 422C2564 		.ascii	"B,%d\015\000"
 5105      0D00
 5106 0096 0000     		.space	2
 5107              	.LC6:
 5108 0098 620D0A00 		.ascii	"b\015\012\000"
 5109              	.LC7:
 5110 009c 632C2564 		.ascii	"c,%d\015\012\000"
 5110      0D0A00
 5111 00a3 00       		.space	1
 5112              	.LC8:
 5113 00a4 442C2564 		.ascii	"D,%d,%d\015\000"
 5113      2C25640D 
 5113      00
 5114 00ad 000000   		.space	3
 5115              	.LC9:
 5116 00b0 640D0A00 		.ascii	"d\015\012\000"
 5117              	.LC10:
 5118 00b4 652C2564 		.ascii	"e,%d,%d\015\012\000"
 5118      2C25640D 
 5118      0A00
 5119 00be 0000     		.space	2
 5120              	.LC11:
 5121 00c0 462C2564 		.ascii	"F,%d\015\000"
 5121      0D00
 5122 00c6 0000     		.space	2
 5123              	.LC12:
 5124 00c8 660D0A00 		.ascii	"f\015\012\000"
 5125              	.LC13:
 5126 00cc 67204952 		.ascii	"g IR check : 0x%x, address : 0x%x, data : 0x%x\015\012"
 5126      20636865 
 5126      636B203A 
 5126      20307825 
 5126      782C2061 
 5127 00fc 00       		.ascii	"\000"
 5128 00fd 000000   		.space	3
 5129              	.LC14:
 5130 0100 672C2564 		.ascii	"g,%d,%d,%d\015\012\000"
 5130      2C25642C 
 5130      25640D0A 
 5130      00
 5131 010d 000000   		.space	3
 5132              	.LC15:
 5133 0110 0A00     		.ascii	"\012\000"
 5134 0112 0000     		.space	2
 5135              	.LC16:
 5136 0114 22412220 		.ascii	"\"A\"               Accelerometer\015\012\000"
 5136      20202020 
 5136      20202020 
 5136      20202020 
 5136      20204163 
 5137 0136 0000     		.space	2
 5138              	.LC17:
ARM GAS  /var/folders/bw/wdbp2_bd0pn7gl5ybd33xbb80000gn/T//ccZ5cvgj.s 			page 92


 5139 0138 22422C23 		.ascii	"\"B,#\"             Body led 0=off 1=on 2=inverse\015"
 5139      22202020 
 5139      20202020 
 5139      20202020 
 5139      2020426F 
 5140 0168 0A00     		.ascii	"\012\000"
 5141 016a 0000     		.space	2
 5142              	.LC18:
 5143 016c 22622220 		.ascii	"\"b\"               Battery value\015\012\000"
 5143      20202020 
 5143      20202020 
 5143      20202020 
 5143      20204261 
 5144 018e 0000     		.space	2
 5145              	.LC19:
 5146 0190 22622220 		.ascii	"\"b\"               Battery state (1=ok, 0=low)\015"
 5146      20202020 
 5146      20202020 
 5146      20202020 
 5146      20204261 
 5147 01be 0A00     		.ascii	"\012\000"
 5148              	.LC20:
 5149 01c0 22432220 		.ascii	"\"C\"               Selector position\015\012\000"
 5149      20202020 
 5149      20202020 
 5149      20202020 
 5149      20205365 
 5150 01e6 0000     		.space	2
 5151              	.LC21:
 5152 01e8 22442C23 		.ascii	"\"D,#,#\"           Set motor speed left,right\015\012"
 5152      2C232220 
 5152      20202020 
 5152      20202020 
 5152      20205365 
 5153 0216 00       		.ascii	"\000"
 5154 0217 00       		.space	1
 5155              	.LC22:
 5156 0218 22452220 		.ascii	"\"E\"               Get motor speed left,right\015\012"
 5156      20202020 
 5156      20202020 
 5156      20202020 
 5156      20204765 
 5157 0246 00       		.ascii	"\000"
 5158 0247 00       		.space	1
 5159              	.LC23:
 5160 0248 22462C23 		.ascii	"\"F,#\"             Front led 0=off 1=on 2=inverse\015"
 5160      22202020 
 5160      20202020 
 5160      20202020 
 5160      20204672 
 5161 0279 0A00     		.ascii	"\012\000"
 5162 027b 00       		.space	1
 5163              	.LC24:
 5164 027c 22472220 		.ascii	"\"G\"               IR receiver\015\012\000"
 5164      20202020 
 5164      20202020 
 5164      20202020 
ARM GAS  /var/folders/bw/wdbp2_bd0pn7gl5ybd33xbb80000gn/T//ccZ5cvgj.s 			page 93


 5164      20204952 
 5165              	.LC25:
 5166 029c 22672220 		.ascii	"\"g\"               Gyro\015\012\000"
 5166      20202020 
 5166      20202020 
 5166      20202020 
 5166      20204779 
 5167 02b5 000000   		.space	3
 5168              	.LC26:
 5169 02b8 22482220 		.ascii	"\"H\"               Help\015\012\000"
 5169      20202020 
 5169      20202020 
 5169      20202020 
 5169      20204865 
 5170 02d1 000000   		.space	3
 5171              	.LC27:
 5172 02d4 22492220 		.ascii	"\"I\"               Get camera parameter\015\012\000"
 5172      20202020 
 5172      20202020 
 5172      20202020 
 5172      20204765 
 5173 02fd 000000   		.space	3
 5174              	.LC28:
 5175 0300 224A2C23 		.ascii	"\"J,#,#,#,#,#,#\"   Set camera parameter mode,width"
 5175      2C232C23 
 5175      2C232C23 
 5175      2C232220 
 5175      20205365 
 5176 0331 2C686569 		.ascii	",heigth,zoom(1,4 or 8),x1,y1\015\012\000"
 5176      6774682C 
 5176      7A6F6F6D 
 5176      28312C34 
 5176      206F7220 
 5177              	.LC29:
 5178 0350 224B2220 		.ascii	"\"K\"               Calibrate proximity sensors\015"
 5178      20202020 
 5178      20202020 
 5178      20202020 
 5178      20204361 
 5179 037e 0A00     		.ascii	"\012\000"
 5180              	.LC30:
 5181 0380 224C2C23 		.ascii	"\"L,#,#\"           Led number,0=off 1=on 2=inverse"
 5181      2C232220 
 5181      20202020 
 5181      20202020 
 5181      20204C65 
 5182 03b1 0D0A00   		.ascii	"\015\012\000"
 5183              	.LC31:
 5184 03b4 224D2220 		.ascii	"\"M\"               Floor sensors\015\012\000"
 5184      20202020 
 5184      20202020 
 5184      20202020 
 5184      2020466C 
 5185 03d6 0000     		.space	2
 5186              	.LC32:
 5187 03d8 224E2220 		.ascii	"\"N\"               Proximity\015\012\000"
 5187      20202020 
ARM GAS  /var/folders/bw/wdbp2_bd0pn7gl5ybd33xbb80000gn/T//ccZ5cvgj.s 			page 94


 5187      20202020 
 5187      20202020 
 5187      20205072 
 5188 03f6 0000     		.space	2
 5189              	.LC33:
 5190 03f8 224F2220 		.ascii	"\"O\"               Light sensors\015\012\000"
 5190      20202020 
 5190      20202020 
 5190      20202020 
 5190      20204C69 
 5191 041a 0000     		.space	2
 5192              	.LC34:
 5193 041c 22502C23 		.ascii	"\"P,#,#\"           Set motor position left,right\015"
 5193      2C232220 
 5193      20202020 
 5193      20202020 
 5193      20205365 
 5194 044c 0A00     		.ascii	"\012\000"
 5195 044e 0000     		.space	2
 5196              	.LC35:
 5197 0450 22512220 		.ascii	"\"Q\"               Get motor position left,right\015"
 5197      20202020 
 5197      20202020 
 5197      20202020 
 5197      20204765 
 5198 0480 0A00     		.ascii	"\012\000"
 5199 0482 0000     		.space	2
 5200              	.LC36:
 5201 0484 22522220 		.ascii	"\"R\"               Reset e-puck\015\012\000"
 5201      20202020 
 5201      20202020 
 5201      20202020 
 5201      20205265 
 5202 04a5 000000   		.space	3
 5203              	.LC37:
 5204 04a8 22532220 		.ascii	"\"S\"               Stop e-puck and turn off leds\015"
 5204      20202020 
 5204      20202020 
 5204      20202020 
 5204      20205374 
 5205 04d8 0A00     		.ascii	"\012\000"
 5206 04da 0000     		.space	2
 5207              	.LC38:
 5208 04dc 22542C23 		.ascii	"\"T,#\"             Play sound 1-5 else stop sound\015"
 5208      22202020 
 5208      20202020 
 5208      20202020 
 5208      2020506C 
 5209 050d 0A00     		.ascii	"\012\000"
 5210 050f 00       		.space	1
 5211              	.LC39:
 5212 0510 22742220 		.ascii	"\"t\"               Temperature\015\012\000"
 5212      20202020 
 5212      20202020 
 5212      20202020 
 5212      20205465 
 5213              	.LC40:
ARM GAS  /var/folders/bw/wdbp2_bd0pn7gl5ybd33xbb80000gn/T//ccZ5cvgj.s 			page 95


 5214 0530 22552220 		.ascii	"\"U\"               Get microphone amplitude\015\012"
 5214      20202020 
 5214      20202020 
 5214      20202020 
 5214      20204765 
 5215 055c 00       		.ascii	"\000"
 5216 055d 000000   		.space	3
 5217              	.LC41:
 5218 0560 22562220 		.ascii	"\"V\"               Version of SerCom\015\012\000"
 5218      20202020 
 5218      20202020 
 5218      20202020 
 5218      20205665 
 5219 0586 0000     		.space	2
 5220              	.LC42:
 5221 0588 22572220 		.ascii	"\"W\"               Write I2C (mod,reg,val)\015\012"
 5221      20202020 
 5221      20202020 
 5221      20202020 
 5221      20205772 
 5222 05b3 00       		.ascii	"\000"
 5223              	.LC43:
 5224 05b4 22592220 		.ascii	"\"Y\"               Read I2C val=(mod,reg)\015\012\000"
 5224      20202020 
 5224      20202020 
 5224      20202020 
 5224      20205265 
 5225 05df 00       		.space	1
 5226              	.LC44:
 5227 05e0 22412220 		.ascii	"\"A\"       Accelerometer\015\012\000"
 5227      20202020 
 5227      20204163 
 5227      63656C65 
 5227      726F6D65 
 5228 05fa 0000     		.space	2
 5229              	.LC45:
 5230 05fc 22622220 		.ascii	"\"b\"       Battery value\015\012\000"
 5230      20202020 
 5230      20204261 
 5230      74746572 
 5230      79207661 
 5231 0616 0000     		.space	2
 5232              	.LC46:
 5233 0618 22622220 		.ascii	"\"b\"       Battery state (1=ok, 0=low)\015\012\000"
 5233      20202020 
 5233      20204261 
 5233      74746572 
 5233      79207374 
 5234              	.LC47:
 5235 0640 22432220 		.ascii	"\"C\"       Selector position\015\012\000"
 5235      20202020 
 5235      20205365 
 5235      6C656374 
 5235      6F722070 
 5236 065e 0000     		.space	2
 5237              	.LC48:
 5238 0660 22442C23 		.ascii	"\"D,#,#\"   Set motor speed left,right\015\012\000"
ARM GAS  /var/folders/bw/wdbp2_bd0pn7gl5ybd33xbb80000gn/T//ccZ5cvgj.s 			page 96


 5238      2C232220 
 5238      20205365 
 5238      74206D6F 
 5238      746F7220 
 5239 0687 00       		.space	1
 5240              	.LC49:
 5241 0688 22452220 		.ascii	"\"E\"       Get motor speed left,right\015\012\000"
 5241      20202020 
 5241      20204765 
 5241      74206D6F 
 5241      746F7220 
 5242 06af 00       		.space	1
 5243              	.LC50:
 5244 06b0 22472220 		.ascii	"\"G\"       IR receiver\015\012\000"
 5244      20202020 
 5244      20204952 
 5244      20726563 
 5244      65697665 
 5245              	.LC51:
 5246 06c8 22482220 		.ascii	"\"H\"       Help\015\012\000"
 5246      20202020 
 5246      20204865 
 5246      6C700D0A 
 5246      00
 5247 06d9 000000   		.space	3
 5248              	.LC52:
 5249 06dc 224B2220 		.ascii	"\"K\"       Calibrate proximity sensors\015\012\000"
 5249      20202020 
 5249      20204361 
 5249      6C696272 
 5249      61746520 
 5250              	.LC53:
 5251 0704 224C2C23 		.ascii	"\"L,#,#\"   Led number,0=off 1=on 2=inverse\015\012"
 5251      2C232220 
 5251      20204C65 
 5251      64206E75 
 5251      6D626572 
 5252 072f 00       		.ascii	"\000"
 5253              	.LC54:
 5254 0730 224D2220 		.ascii	"\"M\"       Floor sensors\015\012\000"
 5254      20202020 
 5254      2020466C 
 5254      6F6F7220 
 5254      73656E73 
 5255 074a 0000     		.space	2
 5256              	.LC55:
 5257 074c 224E2220 		.ascii	"\"N\"       Proximity\015\012\000"
 5257      20202020 
 5257      20205072 
 5257      6F78696D 
 5257      6974790D 
 5258 0762 0000     		.space	2
 5259              	.LC56:
 5260 0764 224F2220 		.ascii	"\"O\"       Light sensors\015\012\000"
 5260      20202020 
 5260      20204C69 
 5260      67687420 
ARM GAS  /var/folders/bw/wdbp2_bd0pn7gl5ybd33xbb80000gn/T//ccZ5cvgj.s 			page 97


 5260      73656E73 
 5261 077e 0000     		.space	2
 5262              	.LC57:
 5263 0780 22502C23 		.ascii	"\"P,#,#\"   Set motor position left,right\015\012\000"
 5263      2C232220 
 5263      20205365 
 5263      74206D6F 
 5263      746F7220 
 5264 07aa 0000     		.space	2
 5265              	.LC58:
 5266 07ac 22512220 		.ascii	"\"Q\"       Get motor position left,right\015\012\000"
 5266      20202020 
 5266      20204765 
 5266      74206D6F 
 5266      746F7220 
 5267 07d6 0000     		.space	2
 5268              	.LC59:
 5269 07d8 22522220 		.ascii	"\"R\"       Reset e-puck\015\012\000"
 5269      20202020 
 5269      20205265 
 5269      73657420 
 5269      652D7075 
 5270 07f1 000000   		.space	3
 5271              	.LC60:
 5272 07f4 22532220 		.ascii	"\"S\"       Stop e-puck and turn off leds\015\012\000"
 5272      20202020 
 5272      20205374 
 5272      6F702065 
 5272      2D707563 
 5273 081e 0000     		.space	2
 5274              	.LC61:
 5275 0820 22552220 		.ascii	"\"U\"       Get microphone amplitude\015\012\000"
 5275      20202020 
 5275      20204765 
 5275      74206D69 
 5275      63726F70 
 5276 0845 000000   		.space	3
 5277              	.LC62:
 5278 0848 22562220 		.ascii	"\"V\"       Version of SerCom\015\012\000"
 5278      20202020 
 5278      20205665 
 5278      7273696F 
 5278      6E206F66 
 5279 0866 0000     		.space	2
 5280              	.LC63:
 5281 0868 692C2564 		.ascii	"i,%d,%d,%d,%d,%d\015\012\000"
 5281      2C25642C 
 5281      25642C25 
 5281      642C2564 
 5281      0D0A00
 5282 087b 00       		.space	1
 5283              	.LC64:
 5284 087c 4A2C2564 		.ascii	"J,%d,%d,%d,%d,%d,%d\015\000"
 5284      2C25642C 
 5284      25642C25 
 5284      642C2564 
 5284      2C25640D 
ARM GAS  /var/folders/bw/wdbp2_bd0pn7gl5ybd33xbb80000gn/T//ccZ5cvgj.s 			page 98


 5285 0891 000000   		.space	3
 5286              	.LC65:
 5287 0894 6A0D0A00 		.ascii	"j\015\012\000"
 5288              	.LC66:
 5289 0898 6B2C2053 		.ascii	"k, Starting calibration - Remove any object in sens"
 5289      74617274 
 5289      696E6720 
 5289      63616C69 
 5289      62726174 
 5290 08cb 6F727320 		.ascii	"ors range\015\012\000"
 5290      72616E67 
 5290      650D0A00 
 5291 08d7 00       		.space	1
 5292              	.LC67:
 5293 08d8 4C2C2564 		.ascii	"L,%d,%d\015\000"
 5293      2C25640D 
 5293      00
 5294 08e1 000000   		.space	3
 5295              	.LC68:
 5296 08e4 6C0D0A00 		.ascii	"l\015\012\000"
 5297              	.LC69:
 5298 08e8 6D2C2564 		.ascii	"m,%d,%d,%d,%d,%d\015\012\000"
 5298      2C25642C 
 5298      25642C25 
 5298      642C2564 
 5298      0D0A00
 5299 08fb 00       		.space	1
 5300              	.LC70:
 5301 08fc 6E2C2564 		.ascii	"n,%d,%d,%d,%d,%d,%d,%d,%d\015\012\000"
 5301      2C25642C 
 5301      25642C25 
 5301      642C2564 
 5301      2C25642C 
 5302              	.LC71:
 5303 0918 6E2C2564 		.ascii	"n,%d,%d,%d,%d,%d,%d,%d,%d,%d,%d\015\012\000"
 5303      2C25642C 
 5303      25642C25 
 5303      642C2564 
 5303      2C25642C 
 5304 093a 0000     		.space	2
 5305              	.LC72:
 5306 093c 6F2C2564 		.ascii	"o,%d,%d,%d,%d,%d,%d,%d,%d\015\012\000"
 5306      2C25642C 
 5306      25642C25 
 5306      642C2564 
 5306      2C25642C 
 5307              	.LC73:
 5308 0958 6F2C2564 		.ascii	"o,%d,%d,%d,%d,%d,%d,%d,%d,%d,%d\015\012\000"
 5308      2C25642C 
 5308      25642C25 
 5308      642C2564 
 5308      2C25642C 
 5309 097a 0000     		.space	2
 5310              	.LC74:
 5311 097c 502C2564 		.ascii	"P,%d,%d\015\000"
 5311      2C25640D 
 5311      00
ARM GAS  /var/folders/bw/wdbp2_bd0pn7gl5ybd33xbb80000gn/T//ccZ5cvgj.s 			page 99


 5312 0985 000000   		.space	3
 5313              	.LC75:
 5314 0988 700D0A00 		.ascii	"p\015\012\000"
 5315              	.LC76:
 5316 098c 712C2564 		.ascii	"q,%d,%d\015\012\000"
 5316      2C25640D 
 5316      0A00
 5317 0996 0000     		.space	2
 5318              	.LC77:
 5319 0998 730D0A00 		.ascii	"s\015\012\000"
 5320              	.LC78:
 5321 099c 542C2564 		.ascii	"T,%d\000"
 5321      00
 5322 09a1 000000   		.space	3
 5323              	.LC79:
 5324 09a4 740D0A00 		.ascii	"t\015\012\000"
 5325              	.LC80:
 5326 09a8 742C2564 		.ascii	"t,%d\015\012\000"
 5326      0D0A00
 5327 09af 00       		.space	1
 5328              	.LC81:
 5329 09b0 752C2564 		.ascii	"u,%d,%d,%d\015\012\000"
 5329      2C25642C 
 5329      25640D0A 
 5329      00
 5330 09bd 000000   		.space	3
 5331              	.LC82:
 5332 09c0 762C5665 		.ascii	"v,Version 1.2.2 August 2008 GCtronic\015\012\000"
 5332      7273696F 
 5332      6E20312E 
 5332      322E3220 
 5332      41756775 
 5333 09e7 00       		.space	1
 5334              	.LC83:
 5335 09e8 572C2564 		.ascii	"W,%d,%d,%d\015\000"
 5335      2C25642C 
 5335      25640D00 
 5336              	.LC84:
 5337 09f4 770D0A00 		.ascii	"w\015\012\000"
 5338              	.LC85:
 5339 09f8 592C2564 		.ascii	"Y,%d,%d\015\000"
 5339      2C25640D 
 5339      00
 5340 0a01 000000   		.space	3
 5341              	.LC86:
 5342 0a04 792C2564 		.ascii	"y,%d,%d\015\012\000"
 5342      2C25640D 
 5342      0A00
 5343 0a0e 0000     		.space	2
 5344              	.LC87:
 5345 0a10 792C2564 		.ascii	"y,%d\015\012\000"
 5345      0D0A00
 5346 0a17 00       		.space	1
 5347              	.LC88:
 5348 0a18 25643A20 		.ascii	"%d: %d\015\012\000"
 5348      25640D0A 
 5348      00
ARM GAS  /var/folders/bw/wdbp2_bd0pn7gl5ybd33xbb80000gn/T//ccZ5cvgj.s 			page 100


 5349 0a21 000000   		.space	3
 5350              	.LC89:
 5351 0a24 7A2C436F 		.ascii	"z,Command not found\015\012\000"
 5351      6D6D616E 
 5351      64206E6F 
 5351      7420666F 
 5351      756E640D 
 5352 0a3a 0000     		.space	2
 5353              	.LC90:
 5354 0a3c 6B2C2043 		.ascii	"k, Calibration finished\015\012\000"
 5354      616C6962 
 5354      72617469 
 5354      6F6E2066 
 5354      696E6973 
 5355 0a56 0000     		.space	2
 5356              	.LC91:
 5357 0a58 48572076 		.ascii	"HW version: %X\015\012\000"
 5357      65727369 
 5357      6F6E3A20 
 5357      25580D0A 
 5357      00
 5358 0a69 000000   		.space	3
 5359              	.LC92:
 5360 0a6c 672C302C 		.ascii	"g,0,0,0\015\012\000"
 5360      302C300D 
 5360      0A00
 5361 0a76 0000     		.space	2
 5362              	.LC93:
 5363 0a78 742C300D 		.ascii	"t,0\015\012\000"
 5363      0A00
 5364              		.text
 5365              	.Letext0:
 5366              		.file 2 "/Applications/Eclipse_e-puck2.app/Contents/Eclipse_e-puck2/Tools/gcc-arm-none-eabi-7-2017
 5367              		.file 3 "/Applications/Eclipse_e-puck2.app/Contents/Eclipse_e-puck2/Tools/gcc-arm-none-eabi-7-2017
 5368              		.file 4 "/Applications/Eclipse_e-puck2.app/Contents/Eclipse_e-puck2/Tools/gcc-arm-none-eabi-7-2017
 5369              		.file 5 "../../lib/e-puck2_main-processor/ChibiOS//os/rt/ports/ARMCMx/compilers/GCC/chtypes.h"
 5370              		.file 6 "../../lib/e-puck2_main-processor/ChibiOS//os/rt/include/chsystypes.h"
 5371              		.file 7 "../../lib/e-puck2_main-processor/ChibiOS//os/rt/include/chschd.h"
 5372              		.file 8 "../../lib/e-puck2_main-processor/ChibiOS//os/ext/CMSIS/include/core_cm4.h"
 5373              		.file 9 "../../lib/e-puck2_main-processor/ChibiOS//os/ext/CMSIS/ST/system_stm32f4xx.h"
 5374              		.file 10 "../../lib/e-puck2_main-processor/ChibiOS//os/ext/CMSIS/ST/stm32f407xx.h"
 5375              		.file 11 "../../lib/e-puck2_main-processor/ChibiOS//os/rt/ports/ARMCMx/chcore.h"
 5376              		.file 12 "../../lib/e-puck2_main-processor/ChibiOS//os/rt/ports/ARMCMx/chcore_v7m.h"
 5377              		.file 13 "../../lib/e-puck2_main-processor/ChibiOS//os/rt/include/chdebug.h"
 5378              		.file 14 "../../lib/e-puck2_main-processor/ChibiOS//os/rt/include/chtm.h"
 5379              		.file 15 "../../lib/e-puck2_main-processor/ChibiOS//os/rt/include/chstats.h"
 5380              		.file 16 "../../lib/e-puck2_main-processor/ChibiOS//os/rt/include/chsem.h"
 5381              		.file 17 "../../lib/e-puck2_main-processor/ChibiOS//os/rt/include/chmtx.h"
 5382              		.file 18 "../../lib/e-puck2_main-processor/ChibiOS//os/rt/include/chregistry.h"
 5383              		.file 19 "../../lib/e-puck2_main-processor/ChibiOS//os/rt/include/chevents.h"
 5384              		.file 20 "../../lib/e-puck2_main-processor/ChibiOS//os/rt/include/chqueues.h"
 5385              		.file 21 "../../lib/e-puck2_main-processor/ChibiOS//os/hal/ports/STM32/STM32F4xx/stm32_dma.h"
 5386              		.file 22 "../../lib/e-puck2_main-processor/ChibiOS//os/hal/include/hal_ioblock.h"
 5387              		.file 23 "../../lib/e-puck2_main-processor/ChibiOS//os/hal/ports/STM32/LLD/GPIOv2/pal_lld.h"
 5388              		.file 24 "../../lib/e-puck2_main-processor/ChibiOS//os/hal/include/adc.h"
 5389              		.file 25 "../../lib/e-puck2_main-processor/ChibiOS//os/hal/ports/STM32/STM32F4xx/adc_lld.h"
 5390              		.file 26 "../../lib/e-puck2_main-processor/ChibiOS//os/hal/include/can.h"
ARM GAS  /var/folders/bw/wdbp2_bd0pn7gl5ybd33xbb80000gn/T//ccZ5cvgj.s 			page 101


 5391              		.file 27 "../../lib/e-puck2_main-processor/ChibiOS//os/hal/ports/STM32/LLD/can_lld.h"
 5392              		.file 28 "../../lib/e-puck2_main-processor/ChibiOS//os/hal/include/dac.h"
 5393              		.file 29 "../../lib/e-puck2_main-processor/ChibiOS//os/hal/ports/STM32/LLD/DACv1/dac_lld.h"
 5394              		.file 30 "../../lib/e-puck2_main-processor/ChibiOS//os/hal/include/ext.h"
 5395              		.file 31 "../../lib/e-puck2_main-processor/ChibiOS//os/hal/ports/STM32/LLD/ext_lld.h"
 5396              		.file 32 "../../lib/e-puck2_main-processor/ChibiOS//os/hal/include/gpt.h"
 5397              		.file 33 "../../lib/e-puck2_main-processor/ChibiOS//os/hal/ports/STM32/LLD/TIMv1/gpt_lld.h"
 5398              		.file 34 "../../lib/e-puck2_main-processor/ChibiOS//os/hal/ports/STM32/LLD/TIMv1/stm32_tim.h"
 5399              		.file 35 "../../lib/e-puck2_main-processor/ChibiOS//os/hal/include/i2c.h"
 5400              		.file 36 "../../lib/e-puck2_main-processor/ChibiOS//os/hal/ports/STM32/LLD/I2Cv1/i2c_lld.h"
 5401              		.file 37 "../../lib/e-puck2_main-processor/ChibiOS//os/hal/include/i2s.h"
 5402              		.file 38 "../../lib/e-puck2_main-processor/ChibiOS//os/hal/ports/STM32/LLD/SPIv1/i2s_lld.h"
 5403              		.file 39 "../../lib/e-puck2_main-processor/ChibiOS//os/hal/include/pwm.h"
 5404              		.file 40 "../../lib/e-puck2_main-processor/ChibiOS//os/hal/ports/STM32/LLD/TIMv1/pwm_lld.h"
 5405              		.file 41 "../../lib/e-puck2_main-processor/ChibiOS//os/hal/include/serial.h"
 5406              		.file 42 "../../lib/e-puck2_main-processor/ChibiOS//os/hal/ports/STM32/LLD/USARTv1/serial_lld.h"
 5407              		.file 43 "../../lib/e-puck2_main-processor/ChibiOS//os/hal/include/sdc.h"
 5408              		.file 44 "../../lib/e-puck2_main-processor/ChibiOS//os/hal/ports/STM32/LLD/sdc_lld.h"
 5409              		.file 45 "../../lib/e-puck2_main-processor/ChibiOS//os/hal/include/spi.h"
 5410              		.file 46 "../../lib/e-puck2_main-processor/ChibiOS//os/hal/ports/STM32/LLD/SPIv1/spi_lld.h"
 5411              		.file 47 "../../lib/e-puck2_main-processor/ChibiOS//os/hal/include/usb.h"
 5412              		.file 48 "../../lib/e-puck2_main-processor/ChibiOS//os/hal/ports/STM32/LLD/OTGv1/usb_lld.h"
 5413              		.file 49 "../../lib/e-puck2_main-processor/ChibiOS//os/hal/ports/STM32/LLD/OTGv1/stm32_otg.h"
 5414              		.file 50 "../../lib/e-puck2_main-processor/ChibiOS_ext/os/hal/include/../ports/STM32/STM32F4xx/dcm
 5415              		.file 51 "/Applications/Eclipse_e-puck2.app/Contents/Eclipse_e-puck2/Tools/gcc-arm-none-eabi-7-201
 5416              		.file 52 "/Applications/Eclipse_e-puck2.app/Contents/Eclipse_e-puck2/Tools/gcc-arm-none-eabi-7-201
 5417              		.file 53 "/Applications/Eclipse_e-puck2.app/Contents/Eclipse_e-puck2/Tools/gcc-arm-none-eabi-7-201
 5418              		.file 54 "../../lib/e-puck2_main-processor/src/msgbus/messagebus.h"
 5419              		.file 55 "/Applications/Eclipse_e-puck2.app/Contents/Eclipse_e-puck2/Tools/gcc-arm-none-eabi-7-201
 5420              		.file 56 "/Applications/Eclipse_e-puck2.app/Contents/Eclipse_e-puck2/Tools/gcc-arm-none-eabi-7-201
 5421              		.file 57 "../../lib/e-puck2_main-processor/src/parameter/parameter.h"
 5422              		.file 58 "/Applications/Eclipse_e-puck2.app/Contents/Eclipse_e-puck2/Tools/gcc-arm-none-eabi-7-201
 5423              		.file 59 "./main.h"
 5424              		.file 60 "../../lib/e-puck2_main-processor/src/audio/play_melody.h"
 5425              		.file 61 "/Applications/Eclipse_e-puck2.app/Contents/Eclipse_e-puck2/Tools/gcc-arm-none-eabi-7-201
 5426              		.file 62 "../../lib/e-puck2_main-processor/src/epuck1x/a_d/advance_ad_scan/e_acc.h"
 5427              		.file 63 "../../lib/e-puck2_main-processor/src/epuck1x/motor_led/e_init_port.h"
 5428              		.file 64 "/Applications/Eclipse_e-puck2.app/Contents/Eclipse_e-puck2/Tools/gcc-arm-none-eabi-7-201
 5429              		.file 65 "../../lib/e-puck2_main-processor/src/epuck1x/uart/e_uart_char.h"
 5430              		.file 66 "../../lib/e-puck2_main-processor/src/epuck1x/I2C/e_I2C_protocol.h"
 5431              		.file 67 "/Applications/Eclipse_e-puck2.app/Contents/Eclipse_e-puck2/Tools/gcc-arm-none-eabi-7-201
 5432              		.file 68 "../../lib/e-puck2_main-processor/src/epuck1x/motor_led/advance_one_timer/e_motors.h"
 5433              		.file 69 "../../lib/e-puck2_main-processor/src/epuck1x/a_d/advance_ad_scan/e_prox.h"
 5434              		.file 70 "../../lib/e-puck2_main-processor/src/epuck1x/a_d/advance_ad_scan/e_micro.h"
 5435              		.file 71 "../../lib/e-puck2_main-processor/src/epuck1x/motor_led/advance_one_timer/e_led.h"
 5436              		.file 72 "../../lib/e-puck2_main-processor/ChibiOS//os/rt/include/chthreads.h"
 5437              		.file 73 "../../lib/e-puck2_main-processor/src/epuck1x/motor_led/advance_one_timer/e_remote_contro
 5438              		.file 74 "../../lib/e-puck2_main-processor/src/epuck1x/camera/fast_2_timer/e_poxxxx.h"
 5439              		.file 75 "../../lib/e-puck2_main-processor/src/epuck1x/codec/e_sound.h"
 5440              		.file 76 "../../lib/e-puck2_main-processor/src/epuck1x/utility/utility.h"
 5441              		.file 77 "../../lib/e-puck2_main-processor/src/epuck1x/acc_gyro/e_lsm330.h"
 5442              		.file 78 "../../lib/e-puck2_main-processor/src/epuck1x/DataEEPROM.h"
 5443              		.file 79 "../../lib/e-puck2_main-processor/src/camera/dcmi_camera.h"
 5444              		.file 80 "<built-in>"