ARM GAS  /var/folders/bw/wdbp2_bd0pn7gl5ybd33xbb80000gn/T//ccZ5cvgj.s 			page 1


   1              		.cpu cortex-m4
   2              		.eabi_attribute 27, 1
   3              		.eabi_attribute 28, 1
   4              		.eabi_attribute 20, 1
   5              		.eabi_attribute 21, 1
   6              		.eabi_attribute 23, 3
   7              		.eabi_attribute 24, 1
   8              		.eabi_attribute 25, 1
   9              		.eabi_attribute 26, 1
  10              		.eabi_attribute 30, 2
  11              		.eabi_attribute 34, 1
  12              		.eabi_attribute 18, 4
  13              		.file	"Asercom.c"
  14              		.text
  15              	.Ltext0:
  16              		.cfi_sections	.debug_frame
  17              		.section	.text.run_asercom,"ax",%progbits
  18              		.align	1
  19              		.p2align 4,,15
  20              		.global	run_asercom
  21              		.syntax unified
  22              		.thumb
  23              		.thumb_func
  24              		.fpu fpv4-sp-d16
  25              		.type	run_asercom, %function
  26              	run_asercom:
  27              	.LFB259:
  28              		.file 1 "../../lib/e-puck2_main-processor/src/epuck1x/Asercom.c"
  29              		.loc 1 59 0
  30              		.cfi_startproc
  31              		@ args = 0, pretend = 0, frame = 64
  32              		@ frame_needed = 0, uses_anonymous_args = 0
  33 0000 2DE9F04F 		push	{r4, r5, r6, r7, r8, r9, r10, fp, lr}
  34              		.cfi_def_cfa_offset 36
  35              		.cfi_offset 4, -36
  36              		.cfi_offset 5, -32
  37              		.cfi_offset 6, -28
  38              		.cfi_offset 7, -24
  39              		.cfi_offset 8, -20
  40              		.cfi_offset 9, -16
  41              		.cfi_offset 10, -12
  42              		.cfi_offset 11, -8
  43              		.cfi_offset 14, -4
  44 0004 2DED028B 		vpush.64	{d8}
  45              		.cfi_def_cfa_offset 44
  46              		.cfi_offset 80, -44
  47              		.cfi_offset 81, -40
  48 0008 AD4B     		ldr	r3, .L686
  49 000a 99B0     		sub	sp, sp, #100
  50              		.cfi_def_cfa_offset 144
  51              		.loc 1 59 0
  52 000c 1B68     		ldr	r3, [r3]
  53 000e 1793     		str	r3, [sp, #92]
  54              	.LVL0:
  55              		.loc 1 76 0
  56 0010 FFF7FEFF 		bl	e_init_motors
  57              	.LVL1:
ARM GAS  /var/folders/bw/wdbp2_bd0pn7gl5ybd33xbb80000gn/T//ccZ5cvgj.s 			page 2


  58              		.loc 1 80 0
  59 0014 FFF7FEFF 		bl	getselector
  60              	.LVL2:
  61 0018 AA4B     		ldr	r3, .L686+4
  62              		.loc 1 81 0
  63 001a 0A28     		cmp	r0, #10
  64              		.loc 1 80 0
  65 001c 1860     		str	r0, [r3]
  66              		.loc 1 81 0
  67 001e 74D0     		beq	.L2
  68              	.LVL3:
  69              		.loc 1 89 0
  70 0020 FFF7FEFF 		bl	e_i2cp_init
  71              	.LVL4:
  72              		.loc 1 105 0
  73 0024 A84C     		ldr	r4, .L686+8
  74              		.loc 1 107 0
  75 0026 A94E     		ldr	r6, .L686+12
  76              		.loc 1 108 0
  77 0028 A94F     		ldr	r7, .L686+16
  78              		.loc 1 110 0
  79 002a AA4B     		ldr	r3, .L686+20
  80              		.loc 1 109 0
  81 002c AA4D     		ldr	r5, .L686+24
  82              		.loc 1 105 0
  83 002e 1494     		str	r4, [sp, #80]
  84              		.loc 1 109 0
  85 0030 1595     		str	r5, [sp, #84]
  86              		.loc 1 110 0
  87 0032 1193     		str	r3, [sp, #68]
  88              		.loc 1 107 0
  89 0034 1296     		str	r6, [sp, #72]
  90              		.loc 1 108 0
  91 0036 1397     		str	r7, [sp, #76]
  92              		.loc 1 94 0
  93 0038 FFF7FEFF 		bl	e_init_remote_control
  94              	.LVL5:
  95              		.loc 1 102 0
  96 003c 0123     		movs	r3, #1
  97 003e A74A     		ldr	r2, .L686+28
  98              		.loc 1 109 0
  99 0040 A54D     		ldr	r5, .L686+24
 100              		.loc 1 102 0
 101 0042 4FF6FE71 		movw	r1, #65534
 102 0046 7F20     		movs	r0, #127
 103 0048 FFF7FEFF 		bl	ReadEE
 104              	.LVL6:
 105              		.loc 1 107 0
 106 004c 2823     		movs	r3, #40
 107 004e 3360     		str	r3, [r6]
 108              		.loc 1 108 0
 109 0050 3B60     		str	r3, [r7]
 110              		.loc 1 110 0
 111 0052 A04B     		ldr	r3, .L686+20
 112              		.loc 1 109 0
 113 0054 0821     		movs	r1, #8
 114              		.loc 1 110 0
ARM GAS  /var/folders/bw/wdbp2_bd0pn7gl5ybd33xbb80000gn/T//ccZ5cvgj.s 			page 3


 115 0056 4FF44862 		mov	r2, #3200
 116              		.loc 1 105 0
 117 005a 0120     		movs	r0, #1
 118              		.loc 1 109 0
 119 005c 2960     		str	r1, [r5]
 120              		.loc 1 110 0
 121 005e 1A60     		str	r2, [r3]
 122              		.loc 1 105 0
 123 0060 2060     		str	r0, [r4]
 124              		.loc 1 113 0
 125 0062 FFF7FEFF 		bl	e_poxxxx_init_cam
 126              	.LVL7:
 127              		.loc 1 114 0
 128 0066 2D68     		ldr	r5, [r5]
 129 0068 3268     		ldr	r2, [r6]
 130 006a 3B68     		ldr	r3, [r7]
 131 006c 2468     		ldr	r4, [r4]
 132 006e 0294     		str	r4, [sp, #8]
 133 0070 02FB05F2 		mul	r2, r2, r5
 134 0074 03FB05F3 		mul	r3, r3, r5
 135 0078 C3F5F071 		rsb	r1, r3, #480
 136 007c C2F52070 		rsb	r0, r2, #640
 137 0080 01EBD171 		add	r1, r1, r1, lsr #31
 138 0084 00EBD070 		add	r0, r0, r0, lsr #31
 139 0088 4910     		asrs	r1, r1, #1
 140 008a 0195     		str	r5, [sp, #4]
 141 008c 0095     		str	r5, [sp]
 142 008e 4010     		asrs	r0, r0, #1
 143 0090 FFF7FEFF 		bl	e_poxxxx_config_cam
 144              	.LVL8:
 145              		.loc 1 115 0
 146 0094 FFF7FEFF 		bl	e_poxxxx_write_cam_registers
 147              	.LVL9:
 148              		.loc 1 119 0
 149 0098 FFF7FEFF 		bl	e_acc_calibr
 150              	.LVL10:
 151              		.loc 1 120 0
 152 009c 5821     		movs	r1, #88
 153 009e 9048     		ldr	r0, .L686+32
 154 00a0 FFF7FEFF 		bl	e_send_uart1_char
 155              	.LVL11:
 156              	.L3:
 157              		.loc 1 120 0 is_stmt 0 discriminator 2
 158 00a4 FFF7FEFF 		bl	e_uart1_sending
 159              	.LVL12:
 160 00a8 0028     		cmp	r0, #0
 161 00aa FBD1     		bne	.L3
 162              		.loc 1 84 0 is_stmt 1
 163 00ac 0123     		movs	r3, #1
 164 00ae 0993     		str	r3, [sp, #36]
 165              	.LVL13:
 166              	.L6:
 167 00b0 DFF83882 		ldr	r8, .L686+44
 168 00b4 8B4F     		ldr	r7, .L686+36
 169 00b6 DFF84892 		ldr	r9, .L686+64
 170 00ba DFF848A2 		ldr	r10, .L686+68
 171 00be 4FF0000B 		mov	fp, #0
ARM GAS  /var/folders/bw/wdbp2_bd0pn7gl5ybd33xbb80000gn/T//ccZ5cvgj.s 			page 4


 172              	.LVL14:
 173              	.L4:
 174              		.loc 1 133 0
 175 00c2 099B     		ldr	r3, [sp, #36]
 176 00c4 002B     		cmp	r3, #0
 177 00c6 00F0A980 		beq	.L626
 178              	.L668:
 179              		.loc 1 134 0
 180 00ca 864D     		ldr	r5, .L686+36
 181              	.LVL15:
 182              	.L8:
 183 00cc 2846     		mov	r0, r5
 184 00ce FFF7FEFF 		bl	e_getchar_uart1
 185              	.LVL16:
 186 00d2 0446     		mov	r4, r0
 187 00d4 0028     		cmp	r0, #0
 188 00d6 44D1     		bne	.L26
 189              		.loc 1 137 0
 190 00d8 FFF7FEFF 		bl	e_get_data
 191              	.LVL17:
 192 00dc 0646     		mov	r6, r0
 193              	.LVL18:
 194              		.loc 1 138 0
 195 00de FFF7FEFF 		bl	e_get_address
 196              	.LVL19:
 197              		.loc 1 139 0
 198 00e2 10F0F70F 		tst	r0, #247
 199 00e6 F1D1     		bne	.L8
 200              		.loc 1 139 0 is_stmt 0 discriminator 3
 201 00e8 B345     		cmp	fp, r6
 202 00ea EFD0     		beq	.L8
 203              		.loc 1 140 0 is_stmt 1
 204 00ec 092E     		cmp	r6, #9
 205 00ee 01F27683 		bhi	.L11
 206 00f2 DFE816F0 		tbh	[pc, r6, lsl #1]
 207              	.L13:
 208 00f6 3C01     		.2byte	(.L12-.L13)/2
 209 00f8 3301     		.2byte	(.L14-.L13)/2
 210 00fa 2C01     		.2byte	(.L15-.L13)/2
 211 00fc 2301     		.2byte	(.L16-.L13)/2
 212 00fe 2001     		.2byte	(.L17-.L13)/2
 213 0100 1A01     		.2byte	(.L18-.L13)/2
 214 0102 1701     		.2byte	(.L19-.L13)/2
 215 0104 1001     		.2byte	(.L20-.L13)/2
 216 0106 0901     		.2byte	(.L21-.L13)/2
 217 0108 D500     		.2byte	(.L22-.L13)/2
 218              	.LVL20:
 219              		.p2align 1
 220              	.L2:
 221              		.loc 1 94 0
 222 010a FFF7FEFF 		bl	e_init_remote_control
 223              	.LVL21:
 224              		.loc 1 105 0
 225 010e 6E4C     		ldr	r4, .L686+8
 226              		.loc 1 102 0
 227 0110 724A     		ldr	r2, .L686+28
 228              		.loc 1 107 0
ARM GAS  /var/folders/bw/wdbp2_bd0pn7gl5ybd33xbb80000gn/T//ccZ5cvgj.s 			page 5


 229 0112 6E4D     		ldr	r5, .L686+12
 230              		.loc 1 108 0
 231 0114 6E4E     		ldr	r6, .L686+16
 232              		.loc 1 109 0
 233 0116 704F     		ldr	r7, .L686+24
 234              		.loc 1 105 0
 235 0118 1494     		str	r4, [sp, #80]
 236              		.loc 1 102 0
 237 011a 0123     		movs	r3, #1
 238 011c 4FF6FE71 		movw	r1, #65534
 239 0120 7F20     		movs	r0, #127
 240              		.loc 1 107 0
 241 0122 1295     		str	r5, [sp, #72]
 242              		.loc 1 108 0
 243 0124 1396     		str	r6, [sp, #76]
 244              		.loc 1 109 0
 245 0126 1597     		str	r7, [sp, #84]
 246              		.loc 1 102 0
 247 0128 FFF7FEFF 		bl	ReadEE
 248              	.LVL22:
 249              		.loc 1 107 0
 250 012c 2823     		movs	r3, #40
 251              		.loc 1 110 0
 252 012e 6949     		ldr	r1, .L686+20
 253              		.loc 1 107 0
 254 0130 2B60     		str	r3, [r5]
 255              		.loc 1 105 0
 256 0132 0122     		movs	r2, #1
 257 0134 2260     		str	r2, [r4]
 258              		.loc 1 108 0
 259 0136 3360     		str	r3, [r6]
 260              		.loc 1 109 0
 261 0138 0822     		movs	r2, #8
 262              		.loc 1 110 0
 263 013a 4FF44863 		mov	r3, #3200
 264 013e 1191     		str	r1, [sp, #68]
 265              		.loc 1 109 0
 266 0140 3A60     		str	r2, [r7]
 267              		.loc 1 110 0
 268 0142 0B60     		str	r3, [r1]
 269              		.loc 1 124 0
 270 0144 FFF7FEFF 		bl	isEpuckVersion1_3
 271              	.LVL23:
 272 0148 08B9     		cbnz	r0, .L352
 273              		.loc 1 125 0
 274 014a FFF7FEFF 		bl	e_acc_calibr
 275              	.LVL24:
 276              	.L352:
 277              		.loc 1 127 0
 278 014e 5821     		movs	r1, #88
 279 0150 6348     		ldr	r0, .L686+32
 280 0152 FFF7FEFF 		bl	e_send_uart2_char
 281              	.LVL25:
 282              	.L5:
 283              		.loc 1 127 0 is_stmt 0 discriminator 2
 284 0156 FFF7FEFF 		bl	e_uart2_sending
 285              	.LVL26:
ARM GAS  /var/folders/bw/wdbp2_bd0pn7gl5ybd33xbb80000gn/T//ccZ5cvgj.s 			page 6


 286 015a 0990     		str	r0, [sp, #36]
 287 015c 0028     		cmp	r0, #0
 288 015e FAD1     		bne	.L5
 289 0160 A6E7     		b	.L6
 290              	.LVL27:
 291              	.L26:
 292              		.loc 1 259 0 is_stmt 1
 293 0162 3B78     		ldrb	r3, [r7]	@ zero_extendqisi2
 294 0164 1A06     		lsls	r2, r3, #24
 295 0166 00F16181 		bmi	.L664
 296              		.loc 1 598 0
 297 016a 002B     		cmp	r3, #0
 298 016c A9D0     		beq	.L4
 299              		.loc 1 599 0
 300 016e 099A     		ldr	r2, [sp, #36]
 301              		.loc 1 600 0
 302 0170 5C4C     		ldr	r4, .L686+36
 303              		.loc 1 599 0
 304 0172 002A     		cmp	r2, #0
 305 0174 76D0     		beq	.L145
 306 0176 03E0     		b	.L144
 307              	.L146:
 308              		.loc 1 600 0 discriminator 4
 309 0178 2046     		mov	r0, r4
 310 017a FFF7FEFF 		bl	e_getchar_uart1
 311              	.LVL28:
 312 017e 3B78     		ldrb	r3, [r7]	@ zero_extendqisi2
 313              	.L144:
 314              		.loc 1 600 0 is_stmt 0 discriminator 1
 315 0180 0A2B     		cmp	r3, #10
 316 0182 F9D0     		beq	.L146
 317              		.loc 1 600 0 discriminator 3
 318 0184 0D2B     		cmp	r3, #13
 319 0186 F7D0     		beq	.L146
 320              		.loc 1 605 0 is_stmt 1
 321 0188 0122     		movs	r2, #1
 322              		.loc 1 604 0
 323 018a 88F80030 		strb	r3, [r8]
 324              		.loc 1 605 0
 325 018e C9F80020 		str	r2, [r9]
 326              		.loc 1 607 0
 327 0192 544C     		ldr	r4, .L686+36
 328 0194 04E0     		b	.L155
 329              	.L665:
 330 0196 3B78     		ldrb	r3, [r7]	@ zero_extendqisi2
 331              		.loc 1 608 0
 332 0198 0A2B     		cmp	r3, #10
 333 019a 11D0     		beq	.L156
 334              	.L152:
 335              		.loc 1 608 0 is_stmt 0 discriminator 1
 336 019c 0D2B     		cmp	r3, #13
 337 019e 0FD0     		beq	.L156
 338              	.L155:
 339              		.loc 1 607 0 is_stmt 1
 340 01a0 2046     		mov	r0, r4
 341 01a2 FFF7FEFF 		bl	e_getchar_uart1
 342              	.LVL29:
ARM GAS  /var/folders/bw/wdbp2_bd0pn7gl5ybd33xbb80000gn/T//ccZ5cvgj.s 			page 7


 343 01a6 0028     		cmp	r0, #0
 344 01a8 F5D0     		beq	.L665
 345              		.loc 1 607 0 is_stmt 0 discriminator 1
 346 01aa D9F80020 		ldr	r2, [r9]
 347 01ae 3B78     		ldrb	r3, [r7]	@ zero_extendqisi2
 348 01b0 08F80230 		strb	r3, [r8, r2]
 349              		.loc 1 608 0 is_stmt 1 discriminator 1
 350 01b4 0A2B     		cmp	r3, #10
 351              		.loc 1 607 0 discriminator 1
 352 01b6 02F10102 		add	r2, r2, #1
 353 01ba C9F80020 		str	r2, [r9]
 354              		.loc 1 608 0 discriminator 1
 355 01be EDD1     		bne	.L152
 356              	.L156:
 357              		.loc 1 613 0
 358 01c0 D9F80030 		ldr	r3, [r9]
 359 01c4 0022     		movs	r2, #0
 360 01c6 08F80320 		strb	r2, [r8, r3]
 361              		.loc 1 615 0
 362 01ca 98F80040 		ldrb	r4, [r8]	@ zero_extendqisi2
 363              		.loc 1 613 0
 364 01ce 0133     		adds	r3, r3, #1
 365              		.loc 1 615 0
 366 01d0 622C     		cmp	r4, #98
 367              		.loc 1 613 0
 368 01d2 C9F80030 		str	r3, [r9]
 369              		.loc 1 615 0
 370 01d6 01F02384 		beq	.L154
 371              		.loc 1 615 0 is_stmt 0 discriminator 1
 372 01da 672C     		cmp	r4, #103
 373 01dc 40F0DE84 		bne	.L666
 374              	.L160:
 375              	.LBB2:
 376              		.loc 1 701 0 is_stmt 1
 377 01e0 099B     		ldr	r3, [sp, #36]
 378 01e2 002B     		cmp	r3, #0
 379 01e4 01F04384 		beq	.L215
 380              		.loc 1 701 0 is_stmt 0 discriminator 1
 381 01e8 FFF7FEFF 		bl	isEpuckVersion1_3
 382              	.LVL30:
 383 01ec 0028     		cmp	r0, #0
 384 01ee 41F0A886 		bne	.L667
 385              		.loc 1 704 0 is_stmt 1
 386 01f2 3D4B     		ldr	r3, .L686+40
 387 01f4 93E80700 		ldm	r3, {r0, r1, r2}
 388 01f8 3C4B     		ldr	r3, .L686+44
 389 01fa 03C3     		stmia	r3!, {r0, r1}
 390 01fc 1A80     		strh	r2, [r3]	@ movhi
 391              	.L353:
 392              		.loc 1 707 0
 393 01fe 3B48     		ldr	r0, .L686+44
 394 0200 FFF7FEFF 		bl	strlen
 395              	.LVL31:
 396 0204 0146     		mov	r1, r0
 397 0206 3948     		ldr	r0, .L686+44
 398 0208 FFF7FEFF 		bl	e_send_uart1_char
 399              	.LVL32:
ARM GAS  /var/folders/bw/wdbp2_bd0pn7gl5ybd33xbb80000gn/T//ccZ5cvgj.s 			page 8


 400              	.L217:
 401              		.loc 1 707 0 is_stmt 0 discriminator 2
 402 020c FFF7FEFF 		bl	e_uart1_sending
 403              	.LVL33:
 404 0210 0028     		cmp	r0, #0
 405 0212 FBD1     		bne	.L217
 406              	.LBE2:
 407              		.loc 1 133 0 is_stmt 1
 408 0214 099B     		ldr	r3, [sp, #36]
 409 0216 002B     		cmp	r3, #0
 410 0218 7FF457AF 		bne	.L668
 411              	.LVL34:
 412              	.L626:
 413              		.loc 1 196 0
 414 021c 314D     		ldr	r5, .L686+36
 415              	.L9:
 416              	.LVL35:
 417 021e 2846     		mov	r0, r5
 418 0220 FFF7FEFF 		bl	e_getchar_uart2
 419              	.LVL36:
 420 0224 0446     		mov	r4, r0
 421 0226 0028     		cmp	r0, #0
 422 0228 9BD1     		bne	.L26
 423              		.loc 1 199 0
 424 022a FFF7FEFF 		bl	e_get_data
 425              	.LVL37:
 426 022e 0646     		mov	r6, r0
 427              	.LVL38:
 428              		.loc 1 200 0
 429 0230 FFF7FEFF 		bl	e_get_address
 430              	.LVL39:
 431              		.loc 1 201 0
 432 0234 10F0F70F 		tst	r0, #247
 433 0238 F1D1     		bne	.L9
 434              		.loc 1 201 0 is_stmt 0 discriminator 3
 435 023a B345     		cmp	fp, r6
 436 023c EFD0     		beq	.L9
 437              		.loc 1 202 0 is_stmt 1
 438 023e 092E     		cmp	r6, #9
 439 0240 01F2C682 		bhi	.L28
 440 0244 DFE816F0 		tbh	[pc, r6, lsl #1]
 441              	.L30:
 442 0248 E400     		.2byte	(.L29-.L30)/2
 443 024a DB00     		.2byte	(.L31-.L30)/2
 444 024c D400     		.2byte	(.L32-.L30)/2
 445 024e CB00     		.2byte	(.L33-.L30)/2
 446 0250 C800     		.2byte	(.L34-.L30)/2
 447 0252 C200     		.2byte	(.L35-.L30)/2
 448 0254 BF00     		.2byte	(.L36-.L30)/2
 449 0256 B800     		.2byte	(.L37-.L30)/2
 450 0258 B100     		.2byte	(.L38-.L30)/2
 451 025a A100     		.2byte	(.L39-.L30)/2
 452              	.LVL40:
 453              		.p2align 1
 454              	.L148:
 455              		.loc 1 602 0 discriminator 4
 456 025c 2046     		mov	r0, r4
ARM GAS  /var/folders/bw/wdbp2_bd0pn7gl5ybd33xbb80000gn/T//ccZ5cvgj.s 			page 9


 457 025e FFF7FEFF 		bl	e_getchar_uart2
 458              	.LVL41:
 459 0262 3B78     		ldrb	r3, [r7]	@ zero_extendqisi2
 460              	.L145:
 461              		.loc 1 602 0 is_stmt 0 discriminator 1
 462 0264 0A2B     		cmp	r3, #10
 463 0266 F9D0     		beq	.L148
 464              		.loc 1 602 0 discriminator 3
 465 0268 0D2B     		cmp	r3, #13
 466 026a F7D0     		beq	.L148
 467              		.loc 1 605 0 is_stmt 1
 468 026c 0122     		movs	r2, #1
 469              		.loc 1 604 0
 470 026e 88F80030 		strb	r3, [r8]
 471              		.loc 1 605 0
 472 0272 C9F80020 		str	r2, [r9]
 473              		.loc 1 610 0
 474 0276 1B4C     		ldr	r4, .L686+36
 475 0278 04E0     		b	.L159
 476              	.L669:
 477 027a 3B78     		ldrb	r3, [r7]	@ zero_extendqisi2
 478              	.L158:
 479              		.loc 1 611 0
 480 027c 0A2B     		cmp	r3, #10
 481 027e 9FD0     		beq	.L156
 482              		.loc 1 611 0 is_stmt 0 discriminator 1
 483 0280 0D2B     		cmp	r3, #13
 484 0282 9DD0     		beq	.L156
 485              	.L159:
 486              		.loc 1 610 0 is_stmt 1
 487 0284 2046     		mov	r0, r4
 488 0286 FFF7FEFF 		bl	e_getchar_uart2
 489              	.LVL42:
 490 028a 0028     		cmp	r0, #0
 491 028c F5D0     		beq	.L669
 492              		.loc 1 610 0 is_stmt 0 discriminator 1
 493 028e D9F80020 		ldr	r2, [r9]
 494 0292 3B78     		ldrb	r3, [r7]	@ zero_extendqisi2
 495 0294 08F80230 		strb	r3, [r8, r2]
 496 0298 0132     		adds	r2, r2, #1
 497 029a C9F80020 		str	r2, [r9]
 498 029e EDE7     		b	.L158
 499              	.LVL43:
 500              	.L22:
 501              		.loc 1 174 0 is_stmt 1
 502 02a0 134B     		ldr	r3, .L686+48
 503              	.L650:
 504              		.loc 1 175 0
 505 02a2 144A     		ldr	r2, .L686+52
 506 02a4 1449     		ldr	r1, .L686+56
 507 02a6 1160     		str	r1, [r2]
 508              		.loc 1 174 0
 509 02a8 144A     		ldr	r2, .L686+60
 510              		.loc 1 176 0
 511 02aa 0C46     		mov	r4, r1
 512              		.loc 1 174 0
 513 02ac 1360     		str	r3, [r2]
ARM GAS  /var/folders/bw/wdbp2_bd0pn7gl5ybd33xbb80000gn/T//ccZ5cvgj.s 			page 10


 514              	.LVL44:
 515              	.L23:
 516              		.loc 1 188 0
 517 02ae 2046     		mov	r0, r4
 518 02b0 FFF7FEFF 		bl	e_set_speed_left
 519              	.LVL45:
 520              		.loc 1 189 0
 521 02b4 114B     		ldr	r3, .L686+60
 522 02b6 1868     		ldr	r0, [r3]
 523 02b8 FFF7FEFF 		bl	e_set_speed_right
 524              	.LVL46:
 525 02bc B346     		mov	fp, r6
 526 02be 05E7     		b	.L8
 527              	.L687:
 528              		.align	2
 529              	.L686:
 530 02c0 00000000 		.word	__stack_chk_guard
 531 02c4 00000000 		.word	.LANCHOR0
 532 02c8 00000000 		.word	.LANCHOR2
 533 02cc 00000000 		.word	.LANCHOR3
 534 02d0 00000000 		.word	.LANCHOR4
 535 02d4 00000000 		.word	.LANCHOR6
 536 02d8 00000000 		.word	.LANCHOR5
 537 02dc 00000000 		.word	.LANCHOR1
 538 02e0 00000000 		.word	.LC0
 539 02e4 00000000 		.word	.LANCHOR10
 540 02e8 6C0A0000 		.word	.LC92
 541 02ec 00000000 		.word	buffer
 542 02f0 D4FEFFFF 		.word	-300
 543 02f4 00000000 		.word	.LANCHOR8
 544 02f8 A8FDFFFF 		.word	-600
 545 02fc 00000000 		.word	.LANCHOR7
 546 0300 00000000 		.word	.LANCHOR11
 547 0304 00000000 		.word	.LANCHOR22
 548              	.LVL47:
 549              	.L21:
 550              		.loc 1 170 0
 551 0308 9E4A     		ldr	r2, .L688
 552 030a 9F4B     		ldr	r3, .L688+4
 553 030c 1360     		str	r3, [r2]
 554              		.loc 1 171 0
 555 030e 9F4A     		ldr	r2, .L688+8
 556              		.loc 1 172 0
 557 0310 1C46     		mov	r4, r3
 558              		.loc 1 171 0
 559 0312 1360     		str	r3, [r2]
 560              		.loc 1 172 0
 561 0314 CBE7     		b	.L23
 562              	.L20:
 563              		.loc 1 167 0
 564 0316 9E4C     		ldr	r4, .L688+12
 565              	.L651:
 566              		.loc 1 166 0
 567 0318 9A4B     		ldr	r3, .L688
 568 031a 9B4A     		ldr	r2, .L688+4
 569 031c 1A60     		str	r2, [r3]
 570              		.loc 1 167 0
ARM GAS  /var/folders/bw/wdbp2_bd0pn7gl5ybd33xbb80000gn/T//ccZ5cvgj.s 			page 11


 571 031e 9B4B     		ldr	r3, .L688+8
 572 0320 1C60     		str	r4, [r3]
 573              		.loc 1 168 0
 574 0322 C4E7     		b	.L23
 575              	.L19:
 576              		.loc 1 163 0
 577 0324 4FF41674 		mov	r4, #600
 578 0328 F6E7     		b	.L651
 579              	.L18:
 580              		.loc 1 158 0
 581 032a 964A     		ldr	r2, .L688
 582 032c 0023     		movs	r3, #0
 583 032e 1360     		str	r3, [r2]
 584              		.loc 1 159 0
 585 0330 964A     		ldr	r2, .L688+8
 586 0332 1360     		str	r3, [r2]
 587              		.loc 1 160 0
 588 0334 BBE7     		b	.L23
 589              	.L17:
 590              		.loc 1 154 0
 591 0336 4FF41673 		mov	r3, #600
 592 033a B2E7     		b	.L650
 593              	.L16:
 594              		.loc 1 150 0
 595 033c 914A     		ldr	r2, .L688
 596 033e 4FF49673 		mov	r3, #300
 597 0342 1360     		str	r3, [r2]
 598              		.loc 1 151 0
 599 0344 914B     		ldr	r3, .L688+8
 600 0346 4FF41674 		mov	r4, #600
 601 034a 1C60     		str	r4, [r3]
 602              		.loc 1 152 0
 603 034c AFE7     		b	.L23
 604              	.L15:
 605              		.loc 1 146 0
 606 034e 8D4B     		ldr	r3, .L688
 607 0350 4FF41674 		mov	r4, #600
 608 0354 1C60     		str	r4, [r3]
 609              		.loc 1 147 0
 610 0356 8D4B     		ldr	r3, .L688+8
 611 0358 1C60     		str	r4, [r3]
 612              		.loc 1 148 0
 613 035a A8E7     		b	.L23
 614              	.L14:
 615              		.loc 1 142 0
 616 035c 894A     		ldr	r2, .L688
 617 035e 4FF41673 		mov	r3, #600
 618 0362 1360     		str	r3, [r2]
 619              		.loc 1 143 0
 620 0364 894B     		ldr	r3, .L688+8
 621 0366 4FF49674 		mov	r4, #300
 622 036a 1C60     		str	r4, [r3]
 623              		.loc 1 144 0
 624 036c 9FE7     		b	.L23
 625              	.L12:
 626              		.loc 1 178 0
 627 036e 894B     		ldr	r3, .L688+16
ARM GAS  /var/folders/bw/wdbp2_bd0pn7gl5ybd33xbb80000gn/T//ccZ5cvgj.s 			page 12


 628 0370 1B78     		ldrb	r3, [r3]	@ zero_extendqisi2
 629 0372 002B     		cmp	r3, #0
 630 0374 01F0BE82 		beq	.L670
 631              	.LVL48:
 632              	.L24:
 633              		.loc 1 182 0
 634 0378 41F65071 		movw	r1, #8016
 635 037c 42F61430 		movw	r0, #11028
 636 0380 FFF7FEFF 		bl	e_play_sound
 637              	.LVL49:
 638 0384 814B     		ldr	r3, .L688+8
 639 0386 1C68     		ldr	r4, [r3]
 640              		.loc 1 183 0
 641 0388 91E7     		b	.L23
 642              	.LVL50:
 643              	.L39:
 644              		.loc 1 236 0
 645 038a 814B     		ldr	r3, .L688+12
 646              	.L652:
 647              		.loc 1 237 0
 648 038c 7F4A     		ldr	r2, .L688+8
 649 038e 7E49     		ldr	r1, .L688+4
 650 0390 1160     		str	r1, [r2]
 651              		.loc 1 236 0
 652 0392 7C4A     		ldr	r2, .L688
 653              		.loc 1 238 0
 654 0394 0C46     		mov	r4, r1
 655              		.loc 1 236 0
 656 0396 1360     		str	r3, [r2]
 657              	.LVL51:
 658              	.L40:
 659              		.loc 1 250 0
 660 0398 2046     		mov	r0, r4
 661 039a FFF7FEFF 		bl	e_set_speed_left
 662              	.LVL52:
 663              		.loc 1 251 0
 664 039e 794B     		ldr	r3, .L688
 665 03a0 1868     		ldr	r0, [r3]
 666 03a2 FFF7FEFF 		bl	e_set_speed_right
 667              	.LVL53:
 668 03a6 B346     		mov	fp, r6
 669 03a8 39E7     		b	.L9
 670              	.LVL54:
 671              	.L38:
 672              		.loc 1 232 0
 673 03aa 764A     		ldr	r2, .L688
 674 03ac 764B     		ldr	r3, .L688+4
 675 03ae 1360     		str	r3, [r2]
 676              		.loc 1 233 0
 677 03b0 764A     		ldr	r2, .L688+8
 678              		.loc 1 234 0
 679 03b2 1C46     		mov	r4, r3
 680              		.loc 1 233 0
 681 03b4 1360     		str	r3, [r2]
 682              		.loc 1 234 0
 683 03b6 EFE7     		b	.L40
 684              	.L37:
ARM GAS  /var/folders/bw/wdbp2_bd0pn7gl5ybd33xbb80000gn/T//ccZ5cvgj.s 			page 13


 685              		.loc 1 229 0
 686 03b8 754C     		ldr	r4, .L688+12
 687              	.L653:
 688              		.loc 1 228 0
 689 03ba 724B     		ldr	r3, .L688
 690 03bc 724A     		ldr	r2, .L688+4
 691 03be 1A60     		str	r2, [r3]
 692              		.loc 1 229 0
 693 03c0 724B     		ldr	r3, .L688+8
 694 03c2 1C60     		str	r4, [r3]
 695              		.loc 1 230 0
 696 03c4 E8E7     		b	.L40
 697              	.L36:
 698              		.loc 1 225 0
 699 03c6 4FF41674 		mov	r4, #600
 700 03ca F6E7     		b	.L653
 701              	.L35:
 702              		.loc 1 220 0
 703 03cc 6D4A     		ldr	r2, .L688
 704 03ce 0023     		movs	r3, #0
 705 03d0 1360     		str	r3, [r2]
 706              		.loc 1 221 0
 707 03d2 6E4A     		ldr	r2, .L688+8
 708 03d4 1360     		str	r3, [r2]
 709              		.loc 1 222 0
 710 03d6 DFE7     		b	.L40
 711              	.L34:
 712              		.loc 1 216 0
 713 03d8 4FF41673 		mov	r3, #600
 714 03dc D6E7     		b	.L652
 715              	.L33:
 716              		.loc 1 212 0
 717 03de 694A     		ldr	r2, .L688
 718 03e0 4FF49673 		mov	r3, #300
 719 03e4 1360     		str	r3, [r2]
 720              		.loc 1 213 0
 721 03e6 694B     		ldr	r3, .L688+8
 722 03e8 4FF41674 		mov	r4, #600
 723 03ec 1C60     		str	r4, [r3]
 724              		.loc 1 214 0
 725 03ee D3E7     		b	.L40
 726              	.L32:
 727              		.loc 1 208 0
 728 03f0 644B     		ldr	r3, .L688
 729 03f2 4FF41674 		mov	r4, #600
 730 03f6 1C60     		str	r4, [r3]
 731              		.loc 1 209 0
 732 03f8 644B     		ldr	r3, .L688+8
 733 03fa 1C60     		str	r4, [r3]
 734              		.loc 1 210 0
 735 03fc CCE7     		b	.L40
 736              	.L31:
 737              		.loc 1 204 0
 738 03fe 614A     		ldr	r2, .L688
 739 0400 4FF41673 		mov	r3, #600
 740 0404 1360     		str	r3, [r2]
 741              		.loc 1 205 0
ARM GAS  /var/folders/bw/wdbp2_bd0pn7gl5ybd33xbb80000gn/T//ccZ5cvgj.s 			page 14


 742 0406 614B     		ldr	r3, .L688+8
 743 0408 4FF49674 		mov	r4, #300
 744 040c 1C60     		str	r4, [r3]
 745              		.loc 1 206 0
 746 040e C3E7     		b	.L40
 747              	.L29:
 748              		.loc 1 240 0
 749 0410 604B     		ldr	r3, .L688+16
 750 0412 1B78     		ldrb	r3, [r3]	@ zero_extendqisi2
 751 0414 002B     		cmp	r3, #0
 752 0416 01F06682 		beq	.L671
 753              	.LVL55:
 754              	.L41:
 755              		.loc 1 244 0
 756 041a 41F65071 		movw	r1, #8016
 757 041e 42F61430 		movw	r0, #11028
 758 0422 FFF7FEFF 		bl	e_play_sound
 759              	.LVL56:
 760 0426 594B     		ldr	r3, .L688+8
 761 0428 1C68     		ldr	r4, [r3]
 762              		.loc 1 245 0
 763 042a B5E7     		b	.L40
 764              	.LVL57:
 765              	.L664:
 766              		.loc 1 260 0
 767 042c 0022     		movs	r2, #0
 768 042e CDF828B0 		str	fp, [sp, #40]
 769              		.loc 1 577 0
 770 0432 594E     		ldr	r6, .L688+20
 771              		.loc 1 295 0
 772 0434 9FED598A 		vldr.32	s16, .L688+24
 773              		.loc 1 260 0
 774 0438 DDF824B0 		ldr	fp, [sp, #36]
 775              	.LVL58:
 776 043c C9F80020 		str	r2, [r9]
 777              	.L137:
 778              		.loc 1 262 0
 779 0440 5B42     		negs	r3, r3
 780 0442 DBB2     		uxtb	r3, r3
 781 0444 413B     		subs	r3, r3, #65
 782 0446 362B     		cmp	r3, #54
 783 0448 6AD8     		bhi	.L44
 784 044a DFE813F0 		tbh	[pc, r3, lsl #1]
 785              	.L46:
 786 044e 7102     		.2byte	(.L45-.L46)/2
 787 0450 6900     		.2byte	(.L44-.L46)/2
 788 0452 6900     		.2byte	(.L44-.L46)/2
 789 0454 0F02     		.2byte	(.L47-.L46)/2
 790 0456 DA01     		.2byte	(.L48-.L46)/2
 791 0458 6900     		.2byte	(.L44-.L46)/2
 792 045a 6900     		.2byte	(.L44-.L46)/2
 793 045c 6900     		.2byte	(.L44-.L46)/2
 794 045e ED01     		.2byte	(.L49-.L46)/2
 795 0460 6900     		.2byte	(.L44-.L46)/2
 796 0462 6900     		.2byte	(.L44-.L46)/2
 797 0464 5A01     		.2byte	(.L50-.L46)/2
 798 0466 8F01     		.2byte	(.L51-.L46)/2
ARM GAS  /var/folders/bw/wdbp2_bd0pn7gl5ybd33xbb80000gn/T//ccZ5cvgj.s 			page 15


 799 0468 3E01     		.2byte	(.L52-.L46)/2
 800 046a 2201     		.2byte	(.L53-.L46)/2
 801 046c CE00     		.2byte	(.L54-.L46)/2
 802 046e B300     		.2byte	(.L55-.L46)/2
 803 0470 6900     		.2byte	(.L44-.L46)/2
 804 0472 6900     		.2byte	(.L44-.L46)/2
 805 0474 6900     		.2byte	(.L44-.L46)/2
 806 0476 6900     		.2byte	(.L44-.L46)/2
 807 0478 6900     		.2byte	(.L44-.L46)/2
 808 047a E402     		.2byte	(.L56-.L46)/2
 809 047c 6900     		.2byte	(.L44-.L46)/2
 810 047e 6900     		.2byte	(.L44-.L46)/2
 811 0480 6900     		.2byte	(.L44-.L46)/2
 812 0482 6900     		.2byte	(.L44-.L46)/2
 813 0484 6900     		.2byte	(.L44-.L46)/2
 814 0486 6900     		.2byte	(.L44-.L46)/2
 815 0488 6900     		.2byte	(.L44-.L46)/2
 816 048a 6900     		.2byte	(.L44-.L46)/2
 817 048c 6900     		.2byte	(.L44-.L46)/2
 818 048e 3700     		.2byte	(.L57-.L46)/2
 819 0490 1303     		.2byte	(.L58-.L46)/2
 820 0492 6900     		.2byte	(.L44-.L46)/2
 821 0494 6900     		.2byte	(.L44-.L46)/2
 822 0496 6900     		.2byte	(.L44-.L46)/2
 823 0498 6900     		.2byte	(.L44-.L46)/2
 824 049a B002     		.2byte	(.L59-.L46)/2
 825 049c 6900     		.2byte	(.L44-.L46)/2
 826 049e 6900     		.2byte	(.L44-.L46)/2
 827 04a0 6900     		.2byte	(.L44-.L46)/2
 828 04a2 6900     		.2byte	(.L44-.L46)/2
 829 04a4 6900     		.2byte	(.L44-.L46)/2
 830 04a6 6900     		.2byte	(.L44-.L46)/2
 831 04a8 6900     		.2byte	(.L44-.L46)/2
 832 04aa 6900     		.2byte	(.L44-.L46)/2
 833 04ac 6900     		.2byte	(.L44-.L46)/2
 834 04ae 6900     		.2byte	(.L44-.L46)/2
 835 04b0 6900     		.2byte	(.L44-.L46)/2
 836 04b2 6900     		.2byte	(.L44-.L46)/2
 837 04b4 0603     		.2byte	(.L60-.L46)/2
 838 04b6 C402     		.2byte	(.L61-.L46)/2
 839 04b8 6900     		.2byte	(.L44-.L46)/2
 840 04ba 8C00     		.2byte	(.L62-.L46)/2
 841              		.p2align 1
 842              	.L57:
 843              		.loc 1 264 0
 844 04bc BBF1000F 		cmp	fp, #0
 845 04c0 01F0BD81 		beq	.L63
 846              		.loc 1 265 0
 847 04c4 0121     		movs	r1, #1
 848 04c6 0020     		movs	r0, #0
 849              	.L654:
 850              		.loc 1 277 0
 851 04c8 FFF7FEFF 		bl	e_get_acc_filtered
 852              	.LVL59:
 853 04cc 344C     		ldr	r4, .L688+28
 854              		.loc 1 278 0
 855 04ce 354D     		ldr	r5, .L688+32
ARM GAS  /var/folders/bw/wdbp2_bd0pn7gl5ybd33xbb80000gn/T//ccZ5cvgj.s 			page 16


 856              		.loc 1 277 0
 857 04d0 2060     		str	r0, [r4]
 858              		.loc 1 278 0
 859 04d2 0121     		movs	r1, #1
 860 04d4 0846     		mov	r0, r1
 861 04d6 FFF7FEFF 		bl	e_get_acc_filtered
 862              	.LVL60:
 863              		.loc 1 279 0
 864 04da 0121     		movs	r1, #1
 865              		.loc 1 278 0
 866 04dc 2860     		str	r0, [r5]
 867              		.loc 1 279 0
 868 04de 0220     		movs	r0, #2
 869 04e0 FFF7FEFF 		bl	e_get_acc_filtered
 870              	.LVL61:
 871 04e4 2B68     		ldr	r3, [r5]
 872 04e6 2468     		ldr	r4, [r4]
 873 04e8 2F4A     		ldr	r2, .L688+36
 874 04ea C5B2     		uxtb	r5, r0
 875 04ec 1060     		str	r0, [r2]
 876 04ee C0F30721 		ubfx	r1, r0, #8, #8
 877 04f2 5FFA84FE 		uxtb	lr, r4
 878 04f6 5FFA83FC 		uxtb	ip, r3
 879 04fa C4F30724 		ubfx	r4, r4, #8, #8
 880 04fe C3F30720 		ubfx	r0, r3, #8, #8
 881              	.L64:
 882              		.loc 1 282 0
 883 0502 D9F80030 		ldr	r3, [r9]
 884              		.loc 1 283 0
 885 0506 08EB0302 		add	r2, r8, r3
 886              		.loc 1 282 0
 887 050a 08F803E0 		strb	lr, [r8, r3]
 888              		.loc 1 287 0
 889 050e 0633     		adds	r3, r3, #6
 890              		.loc 1 283 0
 891 0510 5470     		strb	r4, [r2, #1]
 892              		.loc 1 284 0
 893 0512 82F802C0 		strb	ip, [r2, #2]
 894              		.loc 1 285 0
 895 0516 D070     		strb	r0, [r2, #3]
 896              		.loc 1 286 0
 897 0518 1571     		strb	r5, [r2, #4]
 898              		.loc 1 287 0
 899 051a 5171     		strb	r1, [r2, #5]
 900 051c C9F80030 		str	r3, [r9]
 901              	.L44:
 902              		.loc 1 574 0
 903 0520 BBF1000F 		cmp	fp, #0
 904 0524 23D0     		beq	.L136
 905              	.L133:
 906              		.loc 1 575 0 discriminator 1
 907 0526 3046     		mov	r0, r6
 908 0528 FFF7FEFF 		bl	e_getchar_uart1
 909              	.LVL62:
 910 052c 0028     		cmp	r0, #0
 911 052e FAD0     		beq	.L133
 912              	.L134:
ARM GAS  /var/folders/bw/wdbp2_bd0pn7gl5ybd33xbb80000gn/T//ccZ5cvgj.s 			page 17


 913              		.loc 1 579 0
 914 0530 3B78     		ldrb	r3, [r7]	@ zero_extendqisi2
 915 0532 002B     		cmp	r3, #0
 916 0534 84D1     		bne	.L137
 917              		.loc 1 580 0
 918 0536 D9F80010 		ldr	r1, [r9]
 919 053a DDF828B0 		ldr	fp, [sp, #40]
 920 053e 0029     		cmp	r1, #0
 921 0540 3FF4BFAD 		beq	.L4
 922              		.loc 1 581 0
 923 0544 099A     		ldr	r2, [sp, #36]
 924 0546 002A     		cmp	r2, #0
 925 0548 01F05081 		beq	.L139
 926              		.loc 1 582 0
 927 054c 174A     		ldr	r2, .L688+40
 928 054e 1278     		ldrb	r2, [r2]	@ zero_extendqisi2
 929 0550 002A     		cmp	r2, #0
 930 0552 41F04A82 		bne	.L672
 931              	.L140:
 932              		.loc 1 590 0
 933 0556 1648     		ldr	r0, .L688+44
 934 0558 FFF7FEFF 		bl	e_send_uart1_char
 935              	.LVL63:
 936              	.L142:
 937              		.loc 1 591 0 discriminator 1
 938 055c FFF7FEFF 		bl	e_uart1_sending
 939              	.LVL64:
 940 0560 0028     		cmp	r0, #0
 941 0562 FBD1     		bne	.L142
 942 0564 ADE5     		b	.L4
 943              	.L62:
 944              		.loc 1 547 0
 945 0566 BBF1000F 		cmp	fp, #0
 946 056a 40F09382 		bne	.L673
 947              	.L136:
 948              		.loc 1 577 0 discriminator 1
 949 056e 3046     		mov	r0, r6
 950 0570 FFF7FEFF 		bl	e_getchar_uart2
 951              	.LVL65:
 952 0574 0028     		cmp	r0, #0
 953 0576 DBD1     		bne	.L134
 954              	.L662:
 955              		.loc 1 577 0 is_stmt 0
 956 0578 3046     		mov	r0, r6
 957 057a FFF7FEFF 		bl	e_getchar_uart2
 958              	.LVL66:
 959 057e 0028     		cmp	r0, #0
 960 0580 F5D0     		beq	.L136
 961 0582 D5E7     		b	.L134
 962              	.L689:
 963              		.align	2
 964              	.L688:
 965 0584 00000000 		.word	.LANCHOR7
 966 0588 A8FDFFFF 		.word	-600
 967 058c 00000000 		.word	.LANCHOR8
 968 0590 D4FEFFFF 		.word	-300
 969 0594 00000000 		.word	.LANCHOR9
ARM GAS  /var/folders/bw/wdbp2_bd0pn7gl5ybd33xbb80000gn/T//ccZ5cvgj.s 			page 18


 970 0598 00000000 		.word	.LANCHOR10
 971 059c 00000000 		.word	0
 972 05a0 00000000 		.word	.LANCHOR12
 973 05a4 00000000 		.word	.LANCHOR13
 974 05a8 00000000 		.word	.LANCHOR14
 975 05ac 00000000 		.word	.LANCHOR21
 976 05b0 00000000 		.word	buffer
 977              	.L55:
 978              		.loc 1 497 0 is_stmt 1
 979 05b4 FFF7FEFF 		bl	e_get_steps_left
 980              	.LVL67:
 981              		.loc 1 498 0
 982 05b8 D9F80030 		ldr	r3, [r9]
 983              		.loc 1 499 0
 984 05bc 08EB0302 		add	r2, r8, r3
 985              		.loc 1 498 0
 986 05c0 08F80300 		strb	r0, [r8, r3]
 987              		.loc 1 499 0
 988 05c4 0112     		asrs	r1, r0, #8
 989 05c6 0233     		adds	r3, r3, #2
 990 05c8 5170     		strb	r1, [r2, #1]
 991 05ca C9F80030 		str	r3, [r9]
 992              		.loc 1 500 0
 993 05ce FFF7FEFF 		bl	e_get_steps_right
 994              	.LVL68:
 995              	.L657:
 996              		.loc 1 523 0
 997 05d2 D9F80030 		ldr	r3, [r9]
 998              		.loc 1 524 0
 999 05d6 08EB0302 		add	r2, r8, r3
 1000              		.loc 1 523 0
 1001 05da 08F80300 		strb	r0, [r8, r3]
 1002              		.loc 1 524 0
 1003 05de 0112     		asrs	r1, r0, #8
 1004 05e0 0233     		adds	r3, r3, #2
 1005 05e2 5170     		strb	r1, [r2, #1]
 1006 05e4 C9F80030 		str	r3, [r9]
 1007              		.loc 1 525 0
 1008 05e8 9AE7     		b	.L44
 1009              	.L54:
 1010              		.loc 1 478 0
 1011 05ea BA4C     		ldr	r4, .L690
 1012              		.loc 1 477 0
 1013 05ec BBF1000F 		cmp	fp, #0
 1014 05f0 2FD0     		beq	.L106
 1015              	.L107:
 1016              		.loc 1 478 0 discriminator 1
 1017 05f2 2046     		mov	r0, r4
 1018 05f4 FFF7FEFF 		bl	e_getchar_uart1
 1019              	.LVL69:
 1020 05f8 0028     		cmp	r0, #0
 1021 05fa FAD0     		beq	.L107
 1022              		.loc 1 479 0
 1023 05fc B64C     		ldr	r4, .L690+4
 1024              	.L108:
 1025              		.loc 1 479 0 is_stmt 0 discriminator 1
 1026 05fe 2046     		mov	r0, r4
ARM GAS  /var/folders/bw/wdbp2_bd0pn7gl5ybd33xbb80000gn/T//ccZ5cvgj.s 			page 19


 1027 0600 FFF7FEFF 		bl	e_getchar_uart1
 1028              	.LVL70:
 1029 0604 0028     		cmp	r0, #0
 1030 0606 FAD0     		beq	.L108
 1031              		.loc 1 484 0 is_stmt 1
 1032 0608 B34B     		ldr	r3, .L690+4
 1033              		.loc 1 486 0
 1034 060a B24C     		ldr	r4, .L690
 1035              		.loc 1 484 0
 1036 060c 1A78     		ldrb	r2, [r3]	@ zero_extendqisi2
 1037 060e B14B     		ldr	r3, .L690
 1038 0610 1B78     		ldrb	r3, [r3]	@ zero_extendqisi2
 1039 0612 03EB0223 		add	r3, r3, r2, lsl #8
 1040 0616 B14A     		ldr	r2, .L690+8
 1041 0618 1360     		str	r3, [r2]
 1042              	.L112:
 1043              		.loc 1 486 0 discriminator 1
 1044 061a 2046     		mov	r0, r4
 1045 061c FFF7FEFF 		bl	e_getchar_uart1
 1046              	.LVL71:
 1047 0620 0028     		cmp	r0, #0
 1048 0622 FAD0     		beq	.L112
 1049              		.loc 1 487 0
 1050 0624 AC4C     		ldr	r4, .L690+4
 1051              	.L113:
 1052              		.loc 1 487 0 is_stmt 0 discriminator 1
 1053 0626 2046     		mov	r0, r4
 1054 0628 FFF7FEFF 		bl	e_getchar_uart1
 1055              	.LVL72:
 1056 062c 0028     		cmp	r0, #0
 1057 062e FAD0     		beq	.L113
 1058              	.L114:
 1059              		.loc 1 492 0 is_stmt 1
 1060 0630 A94B     		ldr	r3, .L690+4
 1061              		.loc 1 493 0
 1062 0632 AA49     		ldr	r1, .L690+8
 1063              		.loc 1 492 0
 1064 0634 1A78     		ldrb	r2, [r3]	@ zero_extendqisi2
 1065 0636 A74B     		ldr	r3, .L690
 1066              		.loc 1 493 0
 1067 0638 0868     		ldr	r0, [r1]
 1068              		.loc 1 492 0
 1069 063a 1B78     		ldrb	r3, [r3]	@ zero_extendqisi2
 1070 063c 03EB0223 		add	r3, r3, r2, lsl #8
 1071 0640 A74A     		ldr	r2, .L690+12
 1072 0642 1446     		mov	r4, r2
 1073 0644 1360     		str	r3, [r2]
 1074              		.loc 1 493 0
 1075 0646 FFF7FEFF 		bl	e_set_steps_left
 1076              	.LVL73:
 1077              		.loc 1 494 0
 1078 064a 2068     		ldr	r0, [r4]
 1079 064c FFF7FEFF 		bl	e_set_steps_right
 1080              	.LVL74:
 1081              		.loc 1 495 0
 1082 0650 66E7     		b	.L44
 1083              	.L106:
ARM GAS  /var/folders/bw/wdbp2_bd0pn7gl5ybd33xbb80000gn/T//ccZ5cvgj.s 			page 20


 1084              		.loc 1 481 0 discriminator 1
 1085 0652 2046     		mov	r0, r4
 1086 0654 FFF7FEFF 		bl	e_getchar_uart2
 1087              	.LVL75:
 1088 0658 0028     		cmp	r0, #0
 1089 065a FAD0     		beq	.L106
 1090              		.loc 1 482 0
 1091 065c 9E4C     		ldr	r4, .L690+4
 1092              	.L110:
 1093              		.loc 1 482 0 is_stmt 0 discriminator 1
 1094 065e 2046     		mov	r0, r4
 1095 0660 FFF7FEFF 		bl	e_getchar_uart2
 1096              	.LVL76:
 1097 0664 0028     		cmp	r0, #0
 1098 0666 FAD0     		beq	.L110
 1099              		.loc 1 484 0 is_stmt 1
 1100 0668 9B4B     		ldr	r3, .L690+4
 1101              		.loc 1 489 0
 1102 066a 9A4C     		ldr	r4, .L690
 1103              		.loc 1 484 0
 1104 066c 1A78     		ldrb	r2, [r3]	@ zero_extendqisi2
 1105 066e 994B     		ldr	r3, .L690
 1106 0670 1B78     		ldrb	r3, [r3]	@ zero_extendqisi2
 1107 0672 03EB0223 		add	r3, r3, r2, lsl #8
 1108 0676 994A     		ldr	r2, .L690+8
 1109 0678 1360     		str	r3, [r2]
 1110              	.L115:
 1111              		.loc 1 489 0 discriminator 1
 1112 067a 2046     		mov	r0, r4
 1113 067c FFF7FEFF 		bl	e_getchar_uart2
 1114              	.LVL77:
 1115 0680 0028     		cmp	r0, #0
 1116 0682 FAD0     		beq	.L115
 1117              		.loc 1 490 0
 1118 0684 944C     		ldr	r4, .L690+4
 1119              	.L116:
 1120              		.loc 1 490 0 is_stmt 0 discriminator 1
 1121 0686 2046     		mov	r0, r4
 1122 0688 FFF7FEFF 		bl	e_getchar_uart2
 1123              	.LVL78:
 1124 068c 0028     		cmp	r0, #0
 1125 068e FAD0     		beq	.L116
 1126 0690 CEE7     		b	.L114
 1127              	.L53:
 1128              		.loc 1 460 0 is_stmt 1
 1129 0692 BBF1000F 		cmp	fp, #0
 1130 0696 01F00781 		beq	.L102
 1131              		.loc 1 461 0
 1132 069a 0020     		movs	r0, #0
 1133 069c CAF80000 		str	r0, [r10]
 1134              	.L103:
 1135              		.loc 1 463 0 discriminator 3
 1136 06a0 FFF7FEFF 		bl	e_get_ambient_light
 1137              	.LVL79:
 1138              		.loc 1 464 0 discriminator 3
 1139 06a4 D9F80020 		ldr	r2, [r9]
 1140              		.loc 1 461 0 discriminator 3
ARM GAS  /var/folders/bw/wdbp2_bd0pn7gl5ybd33xbb80000gn/T//ccZ5cvgj.s 			page 21


 1141 06a8 DAF80030 		ldr	r3, [r10]
 1142              		.loc 1 464 0 discriminator 3
 1143 06ac 08F80200 		strb	r0, [r8, r2]
 1144              		.loc 1 465 0 discriminator 3
 1145 06b0 08EB0204 		add	r4, r8, r2
 1146 06b4 0112     		asrs	r1, r0, #8
 1147              		.loc 1 461 0 discriminator 3
 1148 06b6 581C     		adds	r0, r3, #1
 1149              		.loc 1 465 0 discriminator 3
 1150 06b8 0232     		adds	r2, r2, #2
 1151              		.loc 1 461 0 discriminator 3
 1152 06ba 0728     		cmp	r0, #7
 1153              		.loc 1 465 0 discriminator 3
 1154 06bc 6170     		strb	r1, [r4, #1]
 1155 06be C9F80020 		str	r2, [r9]
 1156              		.loc 1 461 0 discriminator 3
 1157 06c2 CAF80000 		str	r0, [r10]
 1158 06c6 EBDD     		ble	.L103
 1159 06c8 2DE7     		b	.L133
 1160              	.L52:
 1161              		.loc 1 445 0
 1162 06ca BBF1000F 		cmp	fp, #0
 1163 06ce 01F0CC80 		beq	.L99
 1164              		.loc 1 446 0
 1165 06d2 0020     		movs	r0, #0
 1166 06d4 CAF80000 		str	r0, [r10]
 1167              	.L100:
 1168              		.loc 1 447 0 discriminator 3
 1169 06d8 FFF7FEFF 		bl	e_get_calibrated_prox
 1170              	.LVL80:
 1171              		.loc 1 448 0 discriminator 3
 1172 06dc D9F80020 		ldr	r2, [r9]
 1173              		.loc 1 446 0 discriminator 3
 1174 06e0 DAF80030 		ldr	r3, [r10]
 1175              		.loc 1 448 0 discriminator 3
 1176 06e4 08F80200 		strb	r0, [r8, r2]
 1177              		.loc 1 449 0 discriminator 3
 1178 06e8 08EB0204 		add	r4, r8, r2
 1179 06ec 0112     		asrs	r1, r0, #8
 1180              		.loc 1 446 0 discriminator 3
 1181 06ee 581C     		adds	r0, r3, #1
 1182              		.loc 1 449 0 discriminator 3
 1183 06f0 0232     		adds	r2, r2, #2
 1184              		.loc 1 446 0 discriminator 3
 1185 06f2 0728     		cmp	r0, #7
 1186              		.loc 1 449 0 discriminator 3
 1187 06f4 6170     		strb	r1, [r4, #1]
 1188 06f6 C9F80020 		str	r2, [r9]
 1189              		.loc 1 446 0 discriminator 3
 1190 06fa CAF80000 		str	r0, [r10]
 1191 06fe EBDD     		ble	.L100
 1192 0700 11E7     		b	.L133
 1193              	.L50:
 1194              		.loc 1 400 0
 1195 0702 744C     		ldr	r4, .L690
 1196              		.loc 1 399 0
 1197 0704 BBF1000F 		cmp	fp, #0
ARM GAS  /var/folders/bw/wdbp2_bd0pn7gl5ybd33xbb80000gn/T//ccZ5cvgj.s 			page 22


 1198 0708 17D0     		beq	.L84
 1199              	.L85:
 1200              		.loc 1 400 0 discriminator 1
 1201 070a 2046     		mov	r0, r4
 1202 070c FFF7FEFF 		bl	e_getchar_uart1
 1203              	.LVL81:
 1204 0710 0028     		cmp	r0, #0
 1205 0712 FAD0     		beq	.L85
 1206              		.loc 1 401 0
 1207 0714 704C     		ldr	r4, .L690+4
 1208              	.L86:
 1209              		.loc 1 401 0 is_stmt 0 discriminator 1
 1210 0716 2046     		mov	r0, r4
 1211 0718 FFF7FEFF 		bl	e_getchar_uart1
 1212              	.LVL82:
 1213 071c 0028     		cmp	r0, #0
 1214 071e FAD0     		beq	.L86
 1215              		.loc 1 406 0 is_stmt 1
 1216 0720 6C4B     		ldr	r3, .L690
 1217 0722 1878     		ldrb	r0, [r3]	@ zero_extendqisi2
 1218 0724 0828     		cmp	r0, #8
 1219 0726 01F0EC80 		beq	.L417
 1220 072a 0928     		cmp	r0, #9
 1221 072c 01F09981 		beq	.L674
 1222              	.L92:
 1223              		.loc 1 418 0
 1224 0730 694B     		ldr	r3, .L690+4
 1225 0732 1978     		ldrb	r1, [r3]	@ zero_extendqisi2
 1226 0734 FFF7FEFF 		bl	e_set_led
 1227              	.LVL83:
 1228              		.loc 1 419 0
 1229 0738 F2E6     		b	.L44
 1230              	.L84:
 1231              		.loc 1 403 0 discriminator 1
 1232 073a 2046     		mov	r0, r4
 1233 073c FFF7FEFF 		bl	e_getchar_uart2
 1234              	.LVL84:
 1235 0740 0028     		cmp	r0, #0
 1236 0742 FAD0     		beq	.L84
 1237              		.loc 1 404 0
 1238 0744 644C     		ldr	r4, .L690+4
 1239              	.L88:
 1240              		.loc 1 404 0 is_stmt 0 discriminator 1
 1241 0746 2046     		mov	r0, r4
 1242 0748 FFF7FEFF 		bl	e_getchar_uart2
 1243              	.LVL85:
 1244 074c 0028     		cmp	r0, #0
 1245 074e FAD0     		beq	.L88
 1246              		.loc 1 406 0 is_stmt 1
 1247 0750 604B     		ldr	r3, .L690
 1248 0752 1878     		ldrb	r0, [r3]	@ zero_extendqisi2
 1249 0754 0828     		cmp	r0, #8
 1250 0756 3FF40AAF 		beq	.L136
 1251 075a 0928     		cmp	r0, #9
 1252 075c E8D1     		bne	.L92
 1253              		.loc 1 577 0
 1254 075e 3046     		mov	r0, r6
ARM GAS  /var/folders/bw/wdbp2_bd0pn7gl5ybd33xbb80000gn/T//ccZ5cvgj.s 			page 23


 1255 0760 FFF7FEFF 		bl	e_getchar_uart2
 1256              	.LVL86:
 1257 0764 0028     		cmp	r0, #0
 1258 0766 3FF407AF 		beq	.L662
 1259 076a E1E6     		b	.L134
 1260              	.L51:
 1261              		.loc 1 424 0
 1262 076c BBF1000F 		cmp	fp, #0
 1263 0770 3FF4FDAE 		beq	.L136
 1264              		.loc 1 425 0
 1265 0774 FFF7FEFF 		bl	e_i2cp_init
 1266              	.LVL87:
 1267              		.loc 1 426 0
 1268 0778 FFF7FEFF 		bl	e_i2cp_enable
 1269              	.LVL88:
 1270              		.loc 1 427 0
 1271 077c 0021     		movs	r1, #0
 1272 077e C020     		movs	r0, #192
 1273 0780 FFF7FEFF 		bl	e_i2cp_read
 1274              	.LVL89:
 1275              		.loc 1 428 0
 1276 0784 0023     		movs	r3, #0
 1277 0786 CAF80030 		str	r3, [r10]
 1278              	.L95:
 1279 078a DAB2     		uxtb	r2, r3
 1280 078c D9F80040 		ldr	r4, [r9]
 1281              		.loc 1 429 0
 1282 0790 DB07     		lsls	r3, r3, #31
 1283 0792 02F10101 		add	r1, r2, #1
 1284              		.loc 1 430 0
 1285 0796 02F1FF32 		add	r2, r2, #-1
 1286              		.loc 1 429 0
 1287 079a 4FF0C000 		mov	r0, #192
 1288 079e C9B2     		uxtb	r1, r1
 1289              		.loc 1 430 0
 1290 07a0 44BF     		itt	mi
 1291 07a2 C020     		movmi	r0, #192
 1292 07a4 D1B2     		uxtbmi	r1, r2
 1293 07a6 651C     		adds	r5, r4, #1
 1294 07a8 C9F80050 		str	r5, [r9]
 1295 07ac FFF7FEFF 		bl	e_i2cp_read
 1296              	.LVL90:
 1297              		.loc 1 428 0
 1298 07b0 DAF80030 		ldr	r3, [r10]
 1299              		.loc 1 430 0
 1300 07b4 08F80400 		strb	r0, [r8, r4]
 1301              		.loc 1 428 0
 1302 07b8 0133     		adds	r3, r3, #1
 1303 07ba 052B     		cmp	r3, #5
 1304 07bc CAF80030 		str	r3, [r10]
 1305 07c0 E3DD     		ble	.L95
 1306              		.loc 1 433 0
 1307 07c2 0D23     		movs	r3, #13
 1308 07c4 CAF80030 		str	r3, [r10]
 1309              	.L98:
 1310 07c8 DAB2     		uxtb	r2, r3
 1311 07ca D9F80040 		ldr	r4, [r9]
ARM GAS  /var/folders/bw/wdbp2_bd0pn7gl5ybd33xbb80000gn/T//ccZ5cvgj.s 			page 24


 1312              		.loc 1 434 0
 1313 07ce DB07     		lsls	r3, r3, #31
 1314 07d0 02F1FF31 		add	r1, r2, #-1
 1315              		.loc 1 435 0
 1316 07d4 02F10102 		add	r2, r2, #1
 1317              		.loc 1 434 0
 1318 07d8 4FF0C000 		mov	r0, #192
 1319 07dc C9B2     		uxtb	r1, r1
 1320              		.loc 1 435 0
 1321 07de 44BF     		itt	mi
 1322 07e0 C020     		movmi	r0, #192
 1323 07e2 D1B2     		uxtbmi	r1, r2
 1324 07e4 651C     		adds	r5, r4, #1
 1325 07e6 C9F80050 		str	r5, [r9]
 1326 07ea FFF7FEFF 		bl	e_i2cp_read
 1327              	.LVL91:
 1328              		.loc 1 433 0
 1329 07ee DAF80030 		ldr	r3, [r10]
 1330              		.loc 1 435 0
 1331 07f2 08F80400 		strb	r0, [r8, r4]
 1332              		.loc 1 433 0
 1333 07f6 0133     		adds	r3, r3, #1
 1334 07f8 102B     		cmp	r3, #16
 1335 07fa CAF80030 		str	r3, [r10]
 1336 07fe E3DD     		ble	.L98
 1337 0800 28E1     		b	.L658
 1338              	.L48:
 1339              		.loc 1 363 0
 1340 0802 384A     		ldr	r2, .L690+16
 1341 0804 D9F80030 		ldr	r3, [r9]
 1342              		.loc 1 365 0
 1343 0808 3749     		ldr	r1, .L690+20
 1344              		.loc 1 363 0
 1345 080a 1268     		ldr	r2, [r2]
 1346              		.loc 1 365 0
 1347 080c 0868     		ldr	r0, [r1]
 1348              		.loc 1 363 0
 1349 080e 08F80320 		strb	r2, [r8, r3]
 1350              		.loc 1 364 0
 1351 0812 08EB0301 		add	r1, r8, r3
 1352 0816 1212     		asrs	r2, r2, #8
 1353              		.loc 1 366 0
 1354 0818 0433     		adds	r3, r3, #4
 1355              		.loc 1 364 0
 1356 081a 4A70     		strb	r2, [r1, #1]
 1357              		.loc 1 366 0
 1358 081c 0212     		asrs	r2, r0, #8
 1359 081e C9F80030 		str	r3, [r9]
 1360              		.loc 1 365 0
 1361 0822 8870     		strb	r0, [r1, #2]
 1362              		.loc 1 366 0
 1363 0824 CA70     		strb	r2, [r1, #3]
 1364              		.loc 1 367 0
 1365 0826 7BE6     		b	.L44
 1366              	.L49:
 1367              		.loc 1 389 0
 1368 0828 BBF1000F 		cmp	fp, #0
ARM GAS  /var/folders/bw/wdbp2_bd0pn7gl5ybd33xbb80000gn/T//ccZ5cvgj.s 			page 25


 1369 082c 3FF49FAE 		beq	.L136
 1370              		.loc 1 390 0
 1371 0830 D9F80030 		ldr	r3, [r9]
 1372 0834 0333     		adds	r3, r3, #3
 1373 0836 08EB0300 		add	r0, r8, r3
 1374 083a FFF7FEFF 		bl	e_poxxxx_launch_capture
 1375              	.LVL92:
 1376              		.loc 1 392 0
 1377 083e 1499     		ldr	r1, [sp, #80]
 1378              		.loc 1 395 0
 1379 0840 119A     		ldr	r2, [sp, #68]
 1380              		.loc 1 392 0
 1381 0842 D9F80030 		ldr	r3, [r9]
 1382 0846 0868     		ldr	r0, [r1]
 1383              		.loc 1 395 0
 1384 0848 1268     		ldr	r2, [r2]
 1385              		.loc 1 392 0
 1386 084a 08F80300 		strb	r0, [r8, r3]
 1387              		.loc 1 394 0
 1388 084e D81C     		adds	r0, r3, #3
 1389              		.loc 1 395 0
 1390 0850 0244     		add	r2, r2, r0
 1391              		.loc 1 393 0
 1392 0852 1299     		ldr	r1, [sp, #72]
 1393              		.loc 1 394 0
 1394 0854 1398     		ldr	r0, [sp, #76]
 1395              		.loc 1 393 0
 1396 0856 0968     		ldr	r1, [r1]
 1397              		.loc 1 394 0
 1398 0858 0068     		ldr	r0, [r0]
 1399              		.loc 1 395 0
 1400 085a C9F80020 		str	r2, [r9]
 1401              		.loc 1 393 0
 1402 085e 4344     		add	r3, r3, r8
 1403              		.loc 1 391 0
 1404 0860 0122     		movs	r2, #1
 1405              		.loc 1 393 0
 1406 0862 5970     		strb	r1, [r3, #1]
 1407              		.loc 1 394 0
 1408 0864 9870     		strb	r0, [r3, #2]
 1409              		.loc 1 391 0
 1410 0866 214B     		ldr	r3, .L690+24
 1411 0868 1A70     		strb	r2, [r3]
 1412 086a 5CE6     		b	.L133
 1413              	.L47:
 1414              		.loc 1 344 0
 1415 086c 194C     		ldr	r4, .L690
 1416              		.loc 1 343 0
 1417 086e BBF1000F 		cmp	fp, #0
 1418 0872 3DD0     		beq	.L70
 1419              	.L71:
 1420              		.loc 1 344 0 discriminator 1
 1421 0874 2046     		mov	r0, r4
 1422 0876 FFF7FEFF 		bl	e_getchar_uart1
 1423              	.LVL93:
 1424 087a 0028     		cmp	r0, #0
 1425 087c FAD0     		beq	.L71
ARM GAS  /var/folders/bw/wdbp2_bd0pn7gl5ybd33xbb80000gn/T//ccZ5cvgj.s 			page 26


 1426              		.loc 1 345 0
 1427 087e 164C     		ldr	r4, .L690+4
 1428              	.L72:
 1429              		.loc 1 345 0 is_stmt 0 discriminator 1
 1430 0880 2046     		mov	r0, r4
 1431 0882 FFF7FEFF 		bl	e_getchar_uart1
 1432              	.LVL94:
 1433 0886 0028     		cmp	r0, #0
 1434 0888 FAD0     		beq	.L72
 1435              		.loc 1 350 0 is_stmt 1
 1436 088a 134B     		ldr	r3, .L690+4
 1437              		.loc 1 352 0
 1438 088c 114C     		ldr	r4, .L690
 1439              		.loc 1 350 0
 1440 088e 1A78     		ldrb	r2, [r3]	@ zero_extendqisi2
 1441 0890 104B     		ldr	r3, .L690
 1442 0892 1B78     		ldrb	r3, [r3]	@ zero_extendqisi2
 1443 0894 03EB0223 		add	r3, r3, r2, lsl #8
 1444 0898 124A     		ldr	r2, .L690+16
 1445 089a 1360     		str	r3, [r2]
 1446              	.L76:
 1447              		.loc 1 352 0 discriminator 1
 1448 089c 2046     		mov	r0, r4
 1449 089e FFF7FEFF 		bl	e_getchar_uart1
 1450              	.LVL95:
 1451 08a2 0028     		cmp	r0, #0
 1452 08a4 FAD0     		beq	.L76
 1453              		.loc 1 353 0
 1454 08a6 0C4C     		ldr	r4, .L690+4
 1455              	.L77:
 1456              		.loc 1 353 0 is_stmt 0 discriminator 1
 1457 08a8 2046     		mov	r0, r4
 1458 08aa FFF7FEFF 		bl	e_getchar_uart1
 1459              	.LVL96:
 1460 08ae 0028     		cmp	r0, #0
 1461 08b0 FAD0     		beq	.L77
 1462              	.L78:
 1463              		.loc 1 358 0 is_stmt 1
 1464 08b2 094B     		ldr	r3, .L690+4
 1465              		.loc 1 359 0
 1466 08b4 0B49     		ldr	r1, .L690+16
 1467              		.loc 1 358 0
 1468 08b6 1A78     		ldrb	r2, [r3]	@ zero_extendqisi2
 1469 08b8 064B     		ldr	r3, .L690
 1470              		.loc 1 359 0
 1471 08ba 0868     		ldr	r0, [r1]
 1472              		.loc 1 358 0
 1473 08bc 1B78     		ldrb	r3, [r3]	@ zero_extendqisi2
 1474 08be 03EB0223 		add	r3, r3, r2, lsl #8
 1475 08c2 094A     		ldr	r2, .L690+20
 1476 08c4 1446     		mov	r4, r2
 1477 08c6 1360     		str	r3, [r2]
 1478              		.loc 1 359 0
 1479 08c8 FFF7FEFF 		bl	e_set_speed_left
 1480              	.LVL97:
 1481              		.loc 1 360 0
 1482 08cc 2068     		ldr	r0, [r4]
ARM GAS  /var/folders/bw/wdbp2_bd0pn7gl5ybd33xbb80000gn/T//ccZ5cvgj.s 			page 27


 1483 08ce FFF7FEFF 		bl	e_set_speed_right
 1484              	.LVL98:
 1485              		.loc 1 361 0
 1486 08d2 25E6     		b	.L44
 1487              	.L691:
 1488              		.align	2
 1489              	.L690:
 1490 08d4 00000000 		.word	.LANCHOR16
 1491 08d8 00000000 		.word	.LANCHOR17
 1492 08dc 00000000 		.word	.LANCHOR24
 1493 08e0 00000000 		.word	.LANCHOR23
 1494 08e4 00000000 		.word	.LANCHOR8
 1495 08e8 00000000 		.word	.LANCHOR7
 1496 08ec 00000000 		.word	.LANCHOR21
 1497              	.L70:
 1498              		.loc 1 347 0 discriminator 1
 1499 08f0 2046     		mov	r0, r4
 1500 08f2 FFF7FEFF 		bl	e_getchar_uart2
 1501              	.LVL99:
 1502 08f6 0028     		cmp	r0, #0
 1503 08f8 FAD0     		beq	.L70
 1504              		.loc 1 348 0
 1505 08fa A14C     		ldr	r4, .L692
 1506              	.L74:
 1507              		.loc 1 348 0 is_stmt 0 discriminator 1
 1508 08fc 2046     		mov	r0, r4
 1509 08fe FFF7FEFF 		bl	e_getchar_uart2
 1510              	.LVL100:
 1511 0902 0028     		cmp	r0, #0
 1512 0904 FAD0     		beq	.L74
 1513              		.loc 1 350 0 is_stmt 1
 1514 0906 9E4B     		ldr	r3, .L692
 1515              		.loc 1 355 0
 1516 0908 9E4C     		ldr	r4, .L692+4
 1517              		.loc 1 350 0
 1518 090a 1A78     		ldrb	r2, [r3]	@ zero_extendqisi2
 1519 090c 9D4B     		ldr	r3, .L692+4
 1520 090e 1B78     		ldrb	r3, [r3]	@ zero_extendqisi2
 1521 0910 03EB0223 		add	r3, r3, r2, lsl #8
 1522 0914 9C4A     		ldr	r2, .L692+8
 1523 0916 1360     		str	r3, [r2]
 1524              	.L79:
 1525              		.loc 1 355 0 discriminator 1
 1526 0918 2046     		mov	r0, r4
 1527 091a FFF7FEFF 		bl	e_getchar_uart2
 1528              	.LVL101:
 1529 091e 0028     		cmp	r0, #0
 1530 0920 FAD0     		beq	.L79
 1531              		.loc 1 356 0
 1532 0922 974C     		ldr	r4, .L692
 1533              	.L80:
 1534              		.loc 1 356 0 is_stmt 0 discriminator 1
 1535 0924 2046     		mov	r0, r4
 1536 0926 FFF7FEFF 		bl	e_getchar_uart2
 1537              	.LVL102:
 1538 092a 0028     		cmp	r0, #0
 1539 092c FAD0     		beq	.L80
ARM GAS  /var/folders/bw/wdbp2_bd0pn7gl5ybd33xbb80000gn/T//ccZ5cvgj.s 			page 28


 1540 092e C0E7     		b	.L78
 1541              	.L45:
 1542              		.loc 1 291 0 is_stmt 1
 1543 0930 BBF1000F 		cmp	fp, #0
 1544 0934 40F06387 		bne	.L68
 1545              		.loc 1 294 0
 1546 0938 FFF7FEFF 		bl	isEpuckVersion1_3
 1547              	.LVL103:
 1548 093c 0028     		cmp	r0, #0
 1549 093e 00F05E87 		beq	.L68
 1550              		.loc 1 295 0
 1551 0942 924B     		ldr	r3, .L692+12
 1552 0944 CDE90FBB 		strd	fp, fp, [sp, #60]
 1553 0948 CDE90DBB 		strd	fp, fp, [sp, #52]
 1554 094c CDE90BBB 		strd	fp, fp, [sp, #44]
 1555 0950 83ED008A 		vstr.32	s16, [r3]
 1556              		.loc 1 296 0
 1557 0954 83ED028A 		vstr.32	s16, [r3, #8]
 1558              		.loc 1 297 0
 1559 0958 83ED018A 		vstr.32	s16, [r3, #4]
 1560 095c 5846     		mov	r0, fp
 1561 095e 5C46     		mov	r4, fp
 1562 0960 5D46     		mov	r5, fp
 1563 0962 DC46     		mov	ip, fp
 1564 0964 DE46     		mov	lr, fp
 1565 0966 5946     		mov	r1, fp
 1566              	.L67:
 1567              	.LVL104:
 1568              		.loc 1 303 0
 1569 0968 D9F80020 		ldr	r2, [r9]
 1570              		.loc 1 305 0
 1571 096c 08EB0203 		add	r3, r8, r2
 1572              		.loc 1 303 0
 1573 0970 08F80210 		strb	r1, [r8, r2]
 1574              	.LVL105:
 1575              		.loc 1 316 0
 1576 0974 9DF82C10 		ldrb	r1, [sp, #44]	@ zero_extendqisi2
 1577 0978 9971     		strb	r1, [r3, #6]
 1578              		.loc 1 318 0
 1579 097a 9DF83010 		ldrb	r1, [sp, #48]	@ zero_extendqisi2
 1580 097e D971     		strb	r1, [r3, #7]
 1581              		.loc 1 321 0
 1582 0980 9DF83410 		ldrb	r1, [sp, #52]	@ zero_extendqisi2
 1583 0984 1972     		strb	r1, [r3, #8]
 1584              		.loc 1 323 0
 1585 0986 9DF83810 		ldrb	r1, [sp, #56]	@ zero_extendqisi2
 1586 098a 5972     		strb	r1, [r3, #9]
 1587              		.loc 1 325 0
 1588 098c 9DF83C10 		ldrb	r1, [sp, #60]	@ zero_extendqisi2
 1589 0990 9972     		strb	r1, [r3, #10]
 1590              		.loc 1 327 0
 1591 0992 0C32     		adds	r2, r2, #12
 1592 0994 9DF84010 		ldrb	r1, [sp, #64]	@ zero_extendqisi2
 1593              		.loc 1 305 0
 1594 0998 83F801E0 		strb	lr, [r3, #1]
 1595              	.LVL106:
 1596              		.loc 1 307 0
ARM GAS  /var/folders/bw/wdbp2_bd0pn7gl5ybd33xbb80000gn/T//ccZ5cvgj.s 			page 29


 1597 099c 83F802C0 		strb	ip, [r3, #2]
 1598              	.LVL107:
 1599              		.loc 1 309 0
 1600 09a0 DD70     		strb	r5, [r3, #3]
 1601              	.LVL108:
 1602              		.loc 1 312 0
 1603 09a2 1C71     		strb	r4, [r3, #4]
 1604              	.LVL109:
 1605              		.loc 1 314 0
 1606 09a4 5871     		strb	r0, [r3, #5]
 1607              	.LVL110:
 1608              		.loc 1 327 0
 1609 09a6 D972     		strb	r1, [r3, #11]
 1610 09a8 C9F80020 		str	r2, [r9]
 1611              		.loc 1 328 0
 1612 09ac B8E5     		b	.L44
 1613              	.LVL111:
 1614              	.L59:
 1615              		.loc 1 370 0
 1616 09ae BBF1000F 		cmp	fp, #0
 1617 09b2 40F0E787 		bne	.L675
 1618              	.L81:
 1619              		.loc 1 379 0
 1620 09b6 D9F80010 		ldr	r1, [r9]
 1621              		.loc 1 380 0
 1622 09ba 08EB0102 		add	r2, r8, r1
 1623              		.loc 1 379 0
 1624 09be 0023     		movs	r3, #0
 1625              		.loc 1 384 0
 1626 09c0 881D     		adds	r0, r1, #6
 1627              		.loc 1 379 0
 1628 09c2 08F80130 		strb	r3, [r8, r1]
 1629              		.loc 1 384 0
 1630 09c6 C9F80000 		str	r0, [r9]
 1631              		.loc 1 380 0
 1632 09ca 5370     		strb	r3, [r2, #1]
 1633              		.loc 1 381 0
 1634 09cc 9370     		strb	r3, [r2, #2]
 1635              		.loc 1 382 0
 1636 09ce D370     		strb	r3, [r2, #3]
 1637              		.loc 1 383 0
 1638 09d0 1371     		strb	r3, [r2, #4]
 1639              		.loc 1 384 0
 1640 09d2 5371     		strb	r3, [r2, #5]
 1641 09d4 A4E5     		b	.L44
 1642              	.L61:
 1643              		.loc 1 514 0
 1644 09d6 0020     		movs	r0, #0
 1645 09d8 FFF7FEFF 		bl	e_get_micro_volume
 1646              	.LVL112:
 1647              		.loc 1 515 0
 1648 09dc D9F80030 		ldr	r3, [r9]
 1649              		.loc 1 516 0
 1650 09e0 08EB0302 		add	r2, r8, r3
 1651              		.loc 1 515 0
 1652 09e4 08F80300 		strb	r0, [r8, r3]
 1653              		.loc 1 516 0
ARM GAS  /var/folders/bw/wdbp2_bd0pn7gl5ybd33xbb80000gn/T//ccZ5cvgj.s 			page 30


 1654 09e8 0112     		asrs	r1, r0, #8
 1655 09ea 0233     		adds	r3, r3, #2
 1656              		.loc 1 518 0
 1657 09ec 0120     		movs	r0, #1
 1658              		.loc 1 516 0
 1659 09ee 5170     		strb	r1, [r2, #1]
 1660 09f0 C9F80030 		str	r3, [r9]
 1661              		.loc 1 518 0
 1662 09f4 FFF7FEFF 		bl	e_get_micro_volume
 1663              	.LVL113:
 1664              		.loc 1 519 0
 1665 09f8 D9F80030 		ldr	r3, [r9]
 1666              		.loc 1 520 0
 1667 09fc 08EB0302 		add	r2, r8, r3
 1668              		.loc 1 519 0
 1669 0a00 08F80300 		strb	r0, [r8, r3]
 1670              		.loc 1 520 0
 1671 0a04 0112     		asrs	r1, r0, #8
 1672 0a06 0233     		adds	r3, r3, #2
 1673              		.loc 1 522 0
 1674 0a08 0220     		movs	r0, #2
 1675              		.loc 1 520 0
 1676 0a0a 5170     		strb	r1, [r2, #1]
 1677 0a0c C9F80030 		str	r3, [r9]
 1678              		.loc 1 522 0
 1679 0a10 FFF7FEFF 		bl	e_get_micro_volume
 1680              	.LVL114:
 1681 0a14 DDE5     		b	.L657
 1682              	.L56:
 1683              		.loc 1 537 0
 1684 0a16 BBF1000F 		cmp	fp, #0
 1685 0a1a 3FF4A8AD 		beq	.L136
 1686              	.L118:
 1687              		.loc 1 538 0 discriminator 1
 1688 0a1e 5C48     		ldr	r0, .L692+16
 1689 0a20 FFF7FEFF 		bl	e_getchar_uart1
 1690              	.LVL115:
 1691 0a24 0028     		cmp	r0, #0
 1692 0a26 FAD0     		beq	.L118
 1693              		.loc 1 539 0
 1694 0a28 5A4C     		ldr	r4, .L692+20
 1695              	.L119:
 1696              		.loc 1 539 0 is_stmt 0 discriminator 1
 1697 0a2a 2046     		mov	r0, r4
 1698 0a2c FFF7FEFF 		bl	e_getchar_uart1
 1699              	.LVL116:
 1700 0a30 0028     		cmp	r0, #0
 1701 0a32 FAD0     		beq	.L119
 1702              		.loc 1 540 0 is_stmt 1
 1703 0a34 584C     		ldr	r4, .L692+24
 1704              	.L120:
 1705              		.loc 1 540 0 is_stmt 0 discriminator 1
 1706 0a36 2046     		mov	r0, r4
 1707 0a38 FFF7FEFF 		bl	e_getchar_uart1
 1708              	.LVL117:
 1709 0a3c 0028     		cmp	r0, #0
 1710 0a3e FAD0     		beq	.L120
ARM GAS  /var/folders/bw/wdbp2_bd0pn7gl5ybd33xbb80000gn/T//ccZ5cvgj.s 			page 31


 1711              		.loc 1 541 0 is_stmt 1
 1712 0a40 FFF7FEFF 		bl	e_i2cp_enable
 1713              	.LVL118:
 1714              		.loc 1 542 0
 1715 0a44 544B     		ldr	r3, .L692+24
 1716 0a46 1A78     		ldrb	r2, [r3]	@ zero_extendqisi2
 1717 0a48 524B     		ldr	r3, .L692+20
 1718 0a4a 1978     		ldrb	r1, [r3]	@ zero_extendqisi2
 1719 0a4c 504B     		ldr	r3, .L692+16
 1720 0a4e 1878     		ldrb	r0, [r3]	@ zero_extendqisi2
 1721 0a50 FFF7FEFF 		bl	e_i2cp_write
 1722              	.LVL119:
 1723              	.L658:
 1724              		.loc 1 543 0
 1725 0a54 FFF7FEFF 		bl	e_i2cp_disable
 1726              	.LVL120:
 1727 0a58 65E5     		b	.L133
 1728              	.L60:
 1729              		.loc 1 506 0
 1730 0a5a BBF1000F 		cmp	fp, #0
 1731 0a5e 40F0B487 		bne	.L676
 1732              	.L117:
 1733              		.loc 1 509 0
 1734 0a62 D9F80030 		ldr	r3, [r9]
 1735 0a66 0021     		movs	r1, #0
 1736 0a68 5A1C     		adds	r2, r3, #1
 1737 0a6a 08F80310 		strb	r1, [r8, r3]
 1738 0a6e C9F80020 		str	r2, [r9]
 1739 0a72 55E5     		b	.L44
 1740              	.L58:
 1741              		.loc 1 331 0
 1742 0a74 FFF7FEFF 		bl	isEpuckVersion1_3
 1743              	.LVL121:
 1744 0a78 0028     		cmp	r0, #0
 1745 0a7a 40F04C87 		bne	.L677
 1746              		.loc 1 337 0
 1747 0a7e D9F80030 		ldr	r3, [r9]
 1748              		.loc 1 338 0
 1749 0a82 08EB0302 		add	r2, r8, r3
 1750 0a86 991C     		adds	r1, r3, #2
 1751              		.loc 1 337 0
 1752 0a88 08F80300 		strb	r0, [r8, r3]
 1753              		.loc 1 338 0
 1754 0a8c C9F80010 		str	r1, [r9]
 1755 0a90 5070     		strb	r0, [r2, #1]
 1756 0a92 45E5     		b	.L44
 1757              	.L673:
 1758              		.loc 1 548 0
 1759 0a94 FFF7FEFF 		bl	e_i2cp_enable
 1760              	.LVL122:
 1761              		.loc 1 549 0
 1762 0a98 0020     		movs	r0, #0
 1763 0a9a CAF80000 		str	r0, [r10]
 1764 0a9e 01E0     		b	.L122
 1765              	.L678:
 1766 0aa0 DAF80000 		ldr	r0, [r10]
 1767              	.L122:
ARM GAS  /var/folders/bw/wdbp2_bd0pn7gl5ybd33xbb80000gn/T//ccZ5cvgj.s 			page 32


 1768              		.loc 1 550 0 discriminator 1
 1769 0aa4 4044     		add	r0, r0, r8
 1770 0aa6 FFF7FEFF 		bl	e_getchar_uart1
 1771              	.LVL123:
 1772 0aaa 0028     		cmp	r0, #0
 1773 0aac F8D0     		beq	.L678
 1774              		.loc 1 549 0 discriminator 2
 1775 0aae DAF80000 		ldr	r0, [r10]
 1776 0ab2 0130     		adds	r0, r0, #1
 1777 0ab4 1728     		cmp	r0, #23
 1778 0ab6 CAF80000 		str	r0, [r10]
 1779 0aba F3DD     		ble	.L122
 1780              		.loc 1 552 0
 1781 0abc 9220     		movs	r0, #146
 1782 0abe CAF80000 		str	r0, [r10]
 1783 0ac2 01E0     		b	.L125
 1784              	.L679:
 1785 0ac4 DAF80000 		ldr	r0, [r10]
 1786              	.L125:
 1787              		.loc 1 553 0 discriminator 1
 1788 0ac8 7A38     		subs	r0, r0, #122
 1789 0aca 4044     		add	r0, r0, r8
 1790 0acc FFF7FEFF 		bl	e_getchar_uart1
 1791              	.LVL124:
 1792 0ad0 0028     		cmp	r0, #0
 1793 0ad2 F7D0     		beq	.L679
 1794              		.loc 1 552 0 discriminator 2
 1795 0ad4 DAF80000 		ldr	r0, [r10]
 1796 0ad8 0130     		adds	r0, r0, #1
 1797 0ada 9428     		cmp	r0, #148
 1798 0adc CAF80000 		str	r0, [r10]
 1799 0ae0 F2DD     		ble	.L125
 1800              		.loc 1 555 0
 1801 0ae2 A420     		movs	r0, #164
 1802 0ae4 CAF80000 		str	r0, [r10]
 1803 0ae8 01E0     		b	.L128
 1804              	.L680:
 1805 0aea DAF80000 		ldr	r0, [r10]
 1806              	.L128:
 1807              		.loc 1 556 0 discriminator 1
 1808 0aee 8938     		subs	r0, r0, #137
 1809 0af0 4044     		add	r0, r0, r8
 1810 0af2 FFF7FEFF 		bl	e_getchar_uart1
 1811              	.LVL125:
 1812 0af6 0028     		cmp	r0, #0
 1813 0af8 F7D0     		beq	.L680
 1814              		.loc 1 555 0 discriminator 2
 1815 0afa DAF80000 		ldr	r0, [r10]
 1816 0afe 0130     		adds	r0, r0, #1
 1817 0b00 AB28     		cmp	r0, #171
 1818 0b02 CAF80000 		str	r0, [r10]
 1819 0b06 F2DD     		ble	.L128
 1820              		.loc 1 558 0
 1821 0b08 0021     		movs	r1, #0
 1822 0b0a CAF80010 		str	r1, [r10]
 1823              	.L130:
 1824              		.loc 1 559 0 discriminator 3
ARM GAS  /var/folders/bw/wdbp2_bd0pn7gl5ybd33xbb80000gn/T//ccZ5cvgj.s 			page 33


 1825 0b0e 18F80120 		ldrb	r2, [r8, r1]	@ zero_extendqisi2
 1826 0b12 B020     		movs	r0, #176
 1827 0b14 C9B2     		uxtb	r1, r1
 1828 0b16 FFF7FEFF 		bl	e_i2cp_write
 1829              	.LVL126:
 1830              		.loc 1 558 0 discriminator 3
 1831 0b1a DAF80010 		ldr	r1, [r10]
 1832 0b1e 0131     		adds	r1, r1, #1
 1833 0b20 1729     		cmp	r1, #23
 1834 0b22 CAF80010 		str	r1, [r10]
 1835 0b26 F2DD     		ble	.L130
 1836              		.loc 1 561 0
 1837 0b28 9221     		movs	r1, #146
 1838 0b2a CAF80010 		str	r1, [r10]
 1839              	.L131:
 1840              		.loc 1 562 0 discriminator 3
 1841 0b2e 08EB0103 		add	r3, r8, r1
 1842 0b32 B020     		movs	r0, #176
 1843 0b34 C9B2     		uxtb	r1, r1
 1844 0b36 13F87A2C 		ldrb	r2, [r3, #-122]	@ zero_extendqisi2
 1845 0b3a FFF7FEFF 		bl	e_i2cp_write
 1846              	.LVL127:
 1847              		.loc 1 561 0 discriminator 3
 1848 0b3e DAF80010 		ldr	r1, [r10]
 1849 0b42 0131     		adds	r1, r1, #1
 1850 0b44 9429     		cmp	r1, #148
 1851 0b46 CAF80010 		str	r1, [r10]
 1852 0b4a F0DD     		ble	.L131
 1853              		.loc 1 564 0
 1854 0b4c A421     		movs	r1, #164
 1855 0b4e CAF80010 		str	r1, [r10]
 1856              	.L132:
 1857              		.loc 1 565 0 discriminator 3
 1858 0b52 08EB0103 		add	r3, r8, r1
 1859 0b56 B020     		movs	r0, #176
 1860 0b58 C9B2     		uxtb	r1, r1
 1861 0b5a 13F8892C 		ldrb	r2, [r3, #-137]	@ zero_extendqisi2
 1862 0b5e FFF7FEFF 		bl	e_i2cp_write
 1863              	.LVL128:
 1864              		.loc 1 564 0 discriminator 3
 1865 0b62 DAF80010 		ldr	r1, [r10]
 1866 0b66 0131     		adds	r1, r1, #1
 1867 0b68 AB29     		cmp	r1, #171
 1868 0b6a CAF80010 		str	r1, [r10]
 1869 0b6e F0DD     		ble	.L132
 1870              		.loc 1 567 0
 1871 0b70 0122     		movs	r2, #1
 1872 0b72 9121     		movs	r1, #145
 1873 0b74 B020     		movs	r0, #176
 1874 0b76 FFF7FEFF 		bl	e_i2cp_write
 1875              	.LVL129:
 1876              		.loc 1 568 0
 1877 0b7a FFF7FEFF 		bl	e_i2cp_disable
 1878              	.LVL130:
 1879 0b7e D2E4     		b	.L133
 1880              	.L693:
 1881              		.align	2
ARM GAS  /var/folders/bw/wdbp2_bd0pn7gl5ybd33xbb80000gn/T//ccZ5cvgj.s 			page 34


 1882              	.L692:
 1883 0b80 00000000 		.word	.LANCHOR17
 1884 0b84 00000000 		.word	.LANCHOR16
 1885 0b88 00000000 		.word	.LANCHOR8
 1886 0b8c 00000000 		.word	.LANCHOR15
 1887 0b90 00000000 		.word	.LANCHOR25
 1888 0b94 00000000 		.word	.LANCHOR26
 1889 0b98 00000000 		.word	.LANCHOR27
 1890              	.LVL131:
 1891              	.L666:
 1892              	.LBB3:
 1893              		.loc 1 616 0
 1894 0b9c FFF7FEFF 		bl	__locale_ctype_ptr
 1895              	.LVL132:
 1896 0ba0 2044     		add	r0, r0, r4
 1897 0ba2 4378     		ldrb	r3, [r0, #1]	@ zero_extendqisi2
 1898 0ba4 03F00303 		and	r3, r3, #3
 1899 0ba8 022B     		cmp	r3, #2
 1900 0baa 08BF     		it	eq
 1901 0bac 203C     		subeq	r4, r4, #32
 1902              	.LVL133:
 1903              	.LBE3:
 1904 0bae E4B2     		uxtb	r4, r4
 1905              		.loc 1 618 0
 1906 0bb0 A4F14103 		sub	r3, r4, #65
 1907              		.loc 1 616 0
 1908 0bb4 88F80040 		strb	r4, [r8]
 1909              		.loc 1 618 0
 1910 0bb8 332B     		cmp	r3, #51
 1911 0bba 00F2D285 		bhi	.L162
 1912 0bbe 01A2     		adr	r2, .L164
 1913 0bc0 52F823F0 		ldr	pc, [r2, r3, lsl #2]
 1914              		.p2align 2
 1915              	.L164:
 1916 0bc4 F5110000 		.word	.L163+1
 1917 0bc8 E3120000 		.word	.L165+1
 1918 0bcc 8B120000 		.word	.L166+1
 1919 0bd0 5D130000 		.word	.L167+1
 1920 0bd4 7F110000 		.word	.L168+1
 1921 0bd8 35170000 		.word	.L169+1
 1922 0bdc 95130000 		.word	.L170+1
 1923 0be0 09140000 		.word	.L171+1
 1924 0be4 B1110000 		.word	.L172+1
 1925 0be8 65160000 		.word	.L173+1
 1926 0bec 41120000 		.word	.L174+1
 1927 0bf0 D5130000 		.word	.L175+1
 1928 0bf4 A3100000 		.word	.L176+1
 1929 0bf8 B10F0000 		.word	.L177+1
 1930 0bfc D50E0000 		.word	.L178+1
 1931 0c00 670E0000 		.word	.L179+1
 1932 0c04 2F0E0000 		.word	.L180+1
 1933 0c08 C3000000 		.word	.L4+1
 1934 0c0c 73100000 		.word	.L181+1
 1935 0c10 9F0E0000 		.word	.L182+1
 1936 0c14 2D100000 		.word	.L183+1
 1937 0c18 F10D0000 		.word	.L184+1
 1938 0c1c AD0D0000 		.word	.L185+1
ARM GAS  /var/folders/bw/wdbp2_bd0pn7gl5ybd33xbb80000gn/T//ccZ5cvgj.s 			page 35


 1939 0c20 63170000 		.word	.L162+1
 1940 0c24 350D0000 		.word	.L186+1
 1941 0c28 CF0C0000 		.word	.L187+1
 1942 0c2c 63170000 		.word	.L162+1
 1943 0c30 63170000 		.word	.L162+1
 1944 0c34 63170000 		.word	.L162+1
 1945 0c38 63170000 		.word	.L162+1
 1946 0c3c 63170000 		.word	.L162+1
 1947 0c40 63170000 		.word	.L162+1
 1948 0c44 63170000 		.word	.L162+1
 1949 0c48 211A0000 		.word	.L154+1
 1950 0c4c 63170000 		.word	.L162+1
 1951 0c50 63170000 		.word	.L162+1
 1952 0c54 63170000 		.word	.L162+1
 1953 0c58 63170000 		.word	.L162+1
 1954 0c5c E1010000 		.word	.L160+1
 1955 0c60 63170000 		.word	.L162+1
 1956 0c64 63170000 		.word	.L162+1
 1957 0c68 63170000 		.word	.L162+1
 1958 0c6c 63170000 		.word	.L162+1
 1959 0c70 63170000 		.word	.L162+1
 1960 0c74 63170000 		.word	.L162+1
 1961 0c78 63170000 		.word	.L162+1
 1962 0c7c 63170000 		.word	.L162+1
 1963 0c80 63170000 		.word	.L162+1
 1964 0c84 63170000 		.word	.L162+1
 1965 0c88 63170000 		.word	.L162+1
 1966 0c8c 63170000 		.word	.L162+1
 1967 0c90 950C0000 		.word	.L188+1
 1968              		.p2align 1
 1969              	.L188:
 1970              	.LBB4:
 1971              		.loc 1 998 0
 1972 0c94 099B     		ldr	r3, [sp, #36]
 1973 0c96 002B     		cmp	r3, #0
 1974 0c98 00F0FA86 		beq	.L328
 1975              		.loc 1 998 0 is_stmt 0 discriminator 1
 1976 0c9c FFF7FEFF 		bl	isEpuckVersion1_3
 1977              	.LVL134:
 1978 0ca0 0028     		cmp	r0, #0
 1979 0ca2 41F05F81 		bne	.L681
 1980              		.loc 1 1001 0 is_stmt 1
 1981 0ca6 AA4B     		ldr	r3, .L694
 1982 0ca8 93E80300 		ldm	r3, {r0, r1}
 1983 0cac A94B     		ldr	r3, .L694+4
 1984 0cae C8F80000 		str	r0, [r8]
 1985 0cb2 1980     		strh	r1, [r3]	@ movhi
 1986              	.L354:
 1987              		.loc 1 1004 0
 1988 0cb4 A848     		ldr	r0, .L694+8
 1989 0cb6 FFF7FEFF 		bl	strlen
 1990              	.LVL135:
 1991 0cba 0146     		mov	r1, r0
 1992 0cbc A648     		ldr	r0, .L694+8
 1993 0cbe FFF7FEFF 		bl	e_send_uart1_char
 1994              	.LVL136:
 1995              	.L330:
ARM GAS  /var/folders/bw/wdbp2_bd0pn7gl5ybd33xbb80000gn/T//ccZ5cvgj.s 			page 36


 1996              		.loc 1 1004 0 is_stmt 0 discriminator 2
 1997 0cc2 FFF7FEFF 		bl	e_uart1_sending
 1998              	.LVL137:
 1999 0cc6 0028     		cmp	r0, #0
 2000 0cc8 FBD1     		bne	.L330
 2001 0cca FFF7FAB9 		b	.L4
 2002              	.L187:
 2003              		.loc 1 1058 0 is_stmt 1
 2004 0cce 099B     		ldr	r3, [sp, #36]
 2005 0cd0 002B     		cmp	r3, #0
 2006 0cd2 3FF4A3AA 		beq	.L626
 2007              		.loc 1 1059 0
 2008 0cd6 0223     		movs	r3, #2
 2009              		.loc 1 1064 0
 2010 0cd8 A04D     		ldr	r5, .L694+12
 2011 0cda 9F4C     		ldr	r4, .L694+8
 2012              		.loc 1 1059 0
 2013 0cdc CAF80030 		str	r3, [r10]
 2014 0ce0 07E0     		b	.L347
 2015              	.L345:
 2016 0ce2 DAF80030 		ldr	r3, [r10]
 2017 0ce6 0233     		adds	r3, r3, #2
 2018 0ce8 FE2B     		cmp	r3, #254
 2019 0cea CAF80030 		str	r3, [r10]
 2020 0cee 3FF7E8A9 		bgt	.L4
 2021              	.L347:
 2022              		.loc 1 1060 0
 2023 0cf2 FFF7FEFF 		bl	e_i2cp_enable
 2024              	.LVL138:
 2025              		.loc 1 1061 0
 2026 0cf6 0021     		movs	r1, #0
 2027 0cf8 9AF80000 		ldrb	r0, [r10]	@ zero_extendqisi2
 2028 0cfc FFF7FEFF 		bl	e_i2cp_read
 2029              	.LVL139:
 2030 0d00 974B     		ldr	r3, .L694+16
 2031 0d02 1E46     		mov	r6, r3
 2032 0d04 1860     		str	r0, [r3]
 2033              		.loc 1 1062 0
 2034 0d06 FFF7FEFF 		bl	e_i2cp_disable
 2035              	.LVL140:
 2036              		.loc 1 1063 0
 2037 0d0a 3368     		ldr	r3, [r6]
 2038 0d0c 002B     		cmp	r3, #0
 2039 0d0e E8DB     		blt	.L345
 2040              		.loc 1 1064 0
 2041 0d10 2946     		mov	r1, r5
 2042 0d12 DAF80020 		ldr	r2, [r10]
 2043 0d16 2046     		mov	r0, r4
 2044 0d18 FFF7FEFF 		bl	sprintf
 2045              	.LVL141:
 2046              		.loc 1 1065 0
 2047 0d1c 2046     		mov	r0, r4
 2048 0d1e FFF7FEFF 		bl	strlen
 2049              	.LVL142:
 2050 0d22 0146     		mov	r1, r0
 2051 0d24 2046     		mov	r0, r4
 2052 0d26 FFF7FEFF 		bl	e_send_uart1_char
ARM GAS  /var/folders/bw/wdbp2_bd0pn7gl5ybd33xbb80000gn/T//ccZ5cvgj.s 			page 37


 2053              	.LVL143:
 2054              	.L346:
 2055              		.loc 1 1065 0 is_stmt 0 discriminator 2
 2056 0d2a FFF7FEFF 		bl	e_uart1_sending
 2057              	.LVL144:
 2058 0d2e 0028     		cmp	r0, #0
 2059 0d30 FBD1     		bne	.L346
 2060 0d32 D6E7     		b	.L345
 2061              	.L186:
 2062              		.loc 1 1041 0 is_stmt 1
 2063 0d34 099B     		ldr	r3, [sp, #36]
 2064 0d36 002B     		cmp	r3, #0
 2065 0d38 3FF470AA 		beq	.L626
 2066              		.loc 1 1042 0
 2067 0d3c 894B     		ldr	r3, .L694+20
 2068 0d3e 8A4A     		ldr	r2, .L694+24
 2069 0d40 8A49     		ldr	r1, .L694+28
 2070 0d42 8548     		ldr	r0, .L694+8
 2071 0d44 FFF7FEFF 		bl	sscanf
 2072              	.LVL145:
 2073              		.loc 1 1044 0
 2074 0d48 864B     		ldr	r3, .L694+20
 2075 0d4a 874A     		ldr	r2, .L694+24
 2076 0d4c 8849     		ldr	r1, .L694+32
 2077 0d4e 1B68     		ldr	r3, [r3]
 2078 0d50 1268     		ldr	r2, [r2]
 2079 0d52 8148     		ldr	r0, .L694+8
 2080 0d54 FFF7FEFF 		bl	sprintf
 2081              	.LVL146:
 2082              		.loc 1 1045 0
 2083 0d58 7F48     		ldr	r0, .L694+8
 2084 0d5a FFF7FEFF 		bl	strlen
 2085              	.LVL147:
 2086 0d5e 0146     		mov	r1, r0
 2087 0d60 7D48     		ldr	r0, .L694+8
 2088 0d62 FFF7FEFF 		bl	e_send_uart1_char
 2089              	.LVL148:
 2090              	.L343:
 2091              		.loc 1 1045 0 is_stmt 0 discriminator 2
 2092 0d66 FFF7FEFF 		bl	e_uart1_sending
 2093              	.LVL149:
 2094 0d6a 0028     		cmp	r0, #0
 2095 0d6c FBD1     		bne	.L343
 2096              		.loc 1 1050 0 is_stmt 1
 2097 0d6e FFF7FEFF 		bl	e_i2cp_enable
 2098              	.LVL150:
 2099              		.loc 1 1051 0
 2100 0d72 7C4B     		ldr	r3, .L694+20
 2101 0d74 1978     		ldrb	r1, [r3]	@ zero_extendqisi2
 2102 0d76 7C4B     		ldr	r3, .L694+24
 2103 0d78 1878     		ldrb	r0, [r3]	@ zero_extendqisi2
 2104 0d7a FFF7FEFF 		bl	e_i2cp_read
 2105              	.LVL151:
 2106 0d7e 784B     		ldr	r3, .L694+16
 2107 0d80 1C46     		mov	r4, r3
 2108 0d82 1860     		str	r0, [r3]
 2109              		.loc 1 1052 0
ARM GAS  /var/folders/bw/wdbp2_bd0pn7gl5ybd33xbb80000gn/T//ccZ5cvgj.s 			page 38


 2110 0d84 FFF7FEFF 		bl	e_i2cp_disable
 2111              	.LVL152:
 2112              		.loc 1 1053 0
 2113 0d88 7A49     		ldr	r1, .L694+36
 2114 0d8a 2268     		ldr	r2, [r4]
 2115 0d8c 7248     		ldr	r0, .L694+8
 2116 0d8e FFF7FEFF 		bl	sprintf
 2117              	.LVL153:
 2118              		.loc 1 1054 0
 2119 0d92 7148     		ldr	r0, .L694+8
 2120 0d94 FFF7FEFF 		bl	strlen
 2121              	.LVL154:
 2122 0d98 0146     		mov	r1, r0
 2123 0d9a 6F48     		ldr	r0, .L694+8
 2124 0d9c FFF7FEFF 		bl	e_send_uart1_char
 2125              	.LVL155:
 2126              	.L344:
 2127              		.loc 1 1054 0 is_stmt 0 discriminator 2
 2128 0da0 FFF7FEFF 		bl	e_uart1_sending
 2129              	.LVL156:
 2130 0da4 0028     		cmp	r0, #0
 2131 0da6 FBD1     		bne	.L344
 2132 0da8 FFF78BB9 		b	.L4
 2133              	.L185:
 2134              		.loc 1 1032 0 is_stmt 1
 2135 0dac 099B     		ldr	r3, [sp, #36]
 2136 0dae 002B     		cmp	r3, #0
 2137 0db0 3FF434AA 		beq	.L626
 2138              		.loc 1 1033 0
 2139 0db4 6A4B     		ldr	r3, .L694+16
 2140 0db6 6C4A     		ldr	r2, .L694+24
 2141 0db8 6F49     		ldr	r1, .L694+40
 2142 0dba 0093     		str	r3, [sp]
 2143 0dbc 1C46     		mov	r4, r3
 2144 0dbe 6648     		ldr	r0, .L694+8
 2145 0dc0 684B     		ldr	r3, .L694+20
 2146 0dc2 FFF7FEFF 		bl	sscanf
 2147              	.LVL157:
 2148              		.loc 1 1034 0
 2149 0dc6 FFF7FEFF 		bl	e_i2cp_enable
 2150              	.LVL158:
 2151              		.loc 1 1035 0
 2152 0dca 664B     		ldr	r3, .L694+20
 2153 0dcc 2278     		ldrb	r2, [r4]	@ zero_extendqisi2
 2154 0dce 1978     		ldrb	r1, [r3]	@ zero_extendqisi2
 2155 0dd0 654B     		ldr	r3, .L694+24
 2156 0dd2 1878     		ldrb	r0, [r3]	@ zero_extendqisi2
 2157 0dd4 FFF7FEFF 		bl	e_i2cp_write
 2158              	.LVL159:
 2159              		.loc 1 1036 0
 2160 0dd8 FFF7FEFF 		bl	e_i2cp_disable
 2161              	.LVL160:
 2162              		.loc 1 1037 0
 2163 0ddc 0321     		movs	r1, #3
 2164 0dde 6748     		ldr	r0, .L694+44
 2165 0de0 FFF7FEFF 		bl	e_send_uart1_char
 2166              	.LVL161:
ARM GAS  /var/folders/bw/wdbp2_bd0pn7gl5ybd33xbb80000gn/T//ccZ5cvgj.s 			page 39


 2167              	.L342:
 2168              		.loc 1 1037 0 is_stmt 0 discriminator 2
 2169 0de4 FFF7FEFF 		bl	e_uart1_sending
 2170              	.LVL162:
 2171 0de8 0028     		cmp	r0, #0
 2172 0dea FBD1     		bne	.L342
 2173 0dec FFF769B9 		b	.L4
 2174              	.L184:
 2175              		.loc 1 1019 0 is_stmt 1
 2176 0df0 099B     		ldr	r3, [sp, #36]
 2177              		.loc 1 1020 0
 2178 0df2 6348     		ldr	r0, .L694+48
 2179 0df4 2621     		movs	r1, #38
 2180              		.loc 1 1019 0
 2181 0df6 002B     		cmp	r3, #0
 2182 0df8 00F0C086 		beq	.L335
 2183              		.loc 1 1020 0
 2184 0dfc FFF7FEFF 		bl	e_send_uart1_char
 2185              	.LVL163:
 2186              	.L336:
 2187              		.loc 1 1020 0 is_stmt 0 discriminator 2
 2188 0e00 FFF7FEFF 		bl	e_uart1_sending
 2189              	.LVL164:
 2190 0e04 0028     		cmp	r0, #0
 2191 0e06 FBD1     		bne	.L336
 2192              		.loc 1 1024 0 is_stmt 1
 2193 0e08 5E4B     		ldr	r3, .L694+52
 2194 0e0a 5F49     		ldr	r1, .L694+56
 2195 0e0c 1A68     		ldr	r2, [r3]
 2196 0e0e 5248     		ldr	r0, .L694+8
 2197 0e10 FFF7FEFF 		bl	sprintf
 2198              	.LVL165:
 2199              		.loc 1 1026 0
 2200 0e14 5048     		ldr	r0, .L694+8
 2201 0e16 FFF7FEFF 		bl	strlen
 2202              	.LVL166:
 2203 0e1a 0146     		mov	r1, r0
 2204 0e1c 4E48     		ldr	r0, .L694+8
 2205 0e1e FFF7FEFF 		bl	e_send_uart1_char
 2206              	.LVL167:
 2207              	.L340:
 2208              		.loc 1 1026 0 is_stmt 0 discriminator 2
 2209 0e22 FFF7FEFF 		bl	e_uart1_sending
 2210              	.LVL168:
 2211 0e26 0028     		cmp	r0, #0
 2212 0e28 FBD1     		bne	.L340
 2213 0e2a FFF74AB9 		b	.L4
 2214              	.L180:
 2215              		.loc 1 942 0 is_stmt 1
 2216 0e2e FFF7FEFF 		bl	e_get_steps_left
 2217              	.LVL169:
 2218 0e32 0446     		mov	r4, r0
 2219 0e34 FFF7FEFF 		bl	e_get_steps_right
 2220              	.LVL170:
 2221 0e38 2246     		mov	r2, r4
 2222 0e3a 0346     		mov	r3, r0
 2223 0e3c 5349     		ldr	r1, .L694+60
ARM GAS  /var/folders/bw/wdbp2_bd0pn7gl5ybd33xbb80000gn/T//ccZ5cvgj.s 			page 40


 2224 0e3e 4648     		ldr	r0, .L694+8
 2225 0e40 FFF7FEFF 		bl	sprintf
 2226              	.LVL171:
 2227              		.loc 1 943 0
 2228 0e44 099B     		ldr	r3, [sp, #36]
 2229              		.loc 1 944 0
 2230 0e46 4448     		ldr	r0, .L694+8
 2231              		.loc 1 943 0
 2232 0e48 002B     		cmp	r3, #0
 2233 0e4a 00F0B086 		beq	.L310
 2234              		.loc 1 944 0
 2235 0e4e FFF7FEFF 		bl	strlen
 2236              	.LVL172:
 2237 0e52 0146     		mov	r1, r0
 2238 0e54 4048     		ldr	r0, .L694+8
 2239 0e56 FFF7FEFF 		bl	e_send_uart1_char
 2240              	.LVL173:
 2241              	.L311:
 2242              		.loc 1 944 0 is_stmt 0 discriminator 2
 2243 0e5a FFF7FEFF 		bl	e_uart1_sending
 2244              	.LVL174:
 2245 0e5e 0028     		cmp	r0, #0
 2246 0e60 FBD1     		bne	.L311
 2247 0e62 FFF72EB9 		b	.L4
 2248              	.L179:
 2249              		.loc 1 932 0 is_stmt 1
 2250 0e66 4A49     		ldr	r1, .L694+64
 2251 0e68 4A4A     		ldr	r2, .L694+68
 2252 0e6a 4B4B     		ldr	r3, .L694+72
 2253 0e6c 3A48     		ldr	r0, .L694+8
 2254 0e6e FFF7FEFF 		bl	sscanf
 2255              	.LVL175:
 2256              		.loc 1 933 0
 2257 0e72 484B     		ldr	r3, .L694+68
 2258 0e74 1868     		ldr	r0, [r3]
 2259 0e76 FFF7FEFF 		bl	e_set_steps_left
 2260              	.LVL176:
 2261              		.loc 1 934 0
 2262 0e7a 474B     		ldr	r3, .L694+72
 2263 0e7c 1868     		ldr	r0, [r3]
 2264 0e7e FFF7FEFF 		bl	e_set_steps_right
 2265              	.LVL177:
 2266              		.loc 1 935 0
 2267 0e82 099B     		ldr	r3, [sp, #36]
 2268              		.loc 1 936 0
 2269 0e84 4548     		ldr	r0, .L694+76
 2270 0e86 0321     		movs	r1, #3
 2271              		.loc 1 935 0
 2272 0e88 002B     		cmp	r3, #0
 2273 0e8a 00F0C086 		beq	.L307
 2274              		.loc 1 936 0
 2275 0e8e FFF7FEFF 		bl	e_send_uart1_char
 2276              	.LVL178:
 2277              	.L308:
 2278              		.loc 1 936 0 is_stmt 0 discriminator 2
 2279 0e92 FFF7FEFF 		bl	e_uart1_sending
 2280              	.LVL179:
ARM GAS  /var/folders/bw/wdbp2_bd0pn7gl5ybd33xbb80000gn/T//ccZ5cvgj.s 			page 41


 2281 0e96 0028     		cmp	r0, #0
 2282 0e98 FBD1     		bne	.L308
 2283 0e9a FFF712B9 		b	.L4
 2284              	.L182:
 2285              		.loc 1 968 0 is_stmt 1
 2286 0e9e 099B     		ldr	r3, [sp, #36]
 2287 0ea0 002B     		cmp	r3, #0
 2288 0ea2 00F05387 		beq	.L316
 2289              		.loc 1 969 0
 2290 0ea6 3E4A     		ldr	r2, .L694+80
 2291 0ea8 3E49     		ldr	r1, .L694+84
 2292 0eaa 2B48     		ldr	r0, .L694+8
 2293 0eac FFF7FEFF 		bl	sscanf
 2294              	.LVL180:
 2295              		.loc 1 970 0
 2296 0eb0 3D4B     		ldr	r3, .L694+88
 2297 0eb2 1B78     		ldrb	r3, [r3]	@ zero_extendqisi2
 2298 0eb4 002B     		cmp	r3, #0
 2299 0eb6 01F03D80 		beq	.L682
 2300              	.L317:
 2301              		.loc 1 974 0
 2302 0eba 394B     		ldr	r3, .L694+80
 2303 0ebc 1B68     		ldr	r3, [r3]
 2304 0ebe 013B     		subs	r3, r3, #1
 2305 0ec0 042B     		cmp	r3, #4
 2306 0ec2 01F28080 		bhi	.L318
 2307 0ec6 DFE813F0 		tbh	[pc, r3, lsl #1]
 2308              	.L320:
 2309 0eca 7D04     		.2byte	(.L319-.L320)/2
 2310 0ecc 7704     		.2byte	(.L321-.L320)/2
 2311 0ece 7104     		.2byte	(.L322-.L320)/2
 2312 0ed0 6A04     		.2byte	(.L323-.L320)/2
 2313 0ed2 5A04     		.2byte	(.L324-.L320)/2
 2314              		.p2align 1
 2315              	.L178:
 2316              		.loc 1 918 0
 2317 0ed4 099B     		ldr	r3, [sp, #36]
 2318 0ed6 002B     		cmp	r3, #0
 2319 0ed8 00F00A86 		beq	.L304
 2320              		.loc 1 919 0
 2321 0edc 0020     		movs	r0, #0
 2322 0ede FFF7FEFF 		bl	e_get_ambient_light
 2323              	.LVL181:
 2324 0ee2 0D90     		str	r0, [sp, #52]
 2325 0ee4 0120     		movs	r0, #1
 2326 0ee6 FFF7FEFF 		bl	e_get_ambient_light
 2327              	.LVL182:
 2328 0eea 0C90     		str	r0, [sp, #48]
 2329 0eec 0220     		movs	r0, #2
 2330 0eee FFF7FEFF 		bl	e_get_ambient_light
 2331              	.LVL183:
 2332 0ef2 0A90     		str	r0, [sp, #40]
 2333 0ef4 0320     		movs	r0, #3
 2334 0ef6 FFF7FEFF 		bl	e_get_ambient_light
 2335              	.LVL184:
 2336 0efa 0446     		mov	r4, r0
 2337 0efc 0420     		movs	r0, #4
ARM GAS  /var/folders/bw/wdbp2_bd0pn7gl5ybd33xbb80000gn/T//ccZ5cvgj.s 			page 42


 2338 0efe FFF7FEFF 		bl	e_get_ambient_light
 2339              	.LVL185:
 2340 0f02 0546     		mov	r5, r0
 2341 0f04 0520     		movs	r0, #5
 2342 0f06 FFF7FEFF 		bl	e_get_ambient_light
 2343              	.LVL186:
 2344 0f0a 0646     		mov	r6, r0
 2345 0f0c 0620     		movs	r0, #6
 2346 0f0e FFF7FEFF 		bl	e_get_ambient_light
 2347              	.LVL187:
 2348 0f12 0B90     		str	r0, [sp, #44]
 2349 0f14 0720     		movs	r0, #7
 2350 0f16 FFF7FEFF 		bl	e_get_ambient_light
 2351              	.LVL188:
 2352 0f1a 0B99     		ldr	r1, [sp, #44]
 2353 0f1c 0A9B     		ldr	r3, [sp, #40]
 2354 0f1e 0093     		str	r3, [sp]
 2355 0f20 0590     		str	r0, [sp, #20]
 2356 0f22 CDE90361 		strd	r6, r1, [sp, #12]
 2357 0f26 DDE90C32 		ldrd	r3, r2, [sp, #48]
 2358 0f2a 2049     		ldr	r1, .L694+92
 2359 0f2c 0A48     		ldr	r0, .L694+8
 2360 0f2e CDE90145 		strd	r4, r5, [sp, #4]
 2361 0f32 FFF7FEFF 		bl	sprintf
 2362              	.LVL189:
 2363              		.loc 1 922 0
 2364 0f36 0848     		ldr	r0, .L694+8
 2365 0f38 FFF7FEFF 		bl	strlen
 2366              	.LVL190:
 2367 0f3c 0146     		mov	r1, r0
 2368 0f3e 0648     		ldr	r0, .L694+8
 2369 0f40 FFF7FEFF 		bl	e_send_uart1_char
 2370              	.LVL191:
 2371              	.L305:
 2372              		.loc 1 922 0 is_stmt 0 discriminator 2
 2373 0f44 FFF7FEFF 		bl	e_uart1_sending
 2374              	.LVL192:
 2375 0f48 0028     		cmp	r0, #0
 2376 0f4a FBD1     		bne	.L305
 2377 0f4c FFF7B9B8 		b	.L4
 2378              	.L695:
 2379              		.align	2
 2380              	.L694:
 2381 0f50 780A0000 		.word	.LC93
 2382 0f54 04000000 		.word	buffer+4
 2383 0f58 00000000 		.word	buffer
 2384 0f5c 180A0000 		.word	.LC88
 2385 0f60 00000000 		.word	.LANCHOR27
 2386 0f64 00000000 		.word	.LANCHOR26
 2387 0f68 00000000 		.word	.LANCHOR25
 2388 0f6c F8090000 		.word	.LC85
 2389 0f70 040A0000 		.word	.LC86
 2390 0f74 100A0000 		.word	.LC87
 2391 0f78 E8090000 		.word	.LC83
 2392 0f7c F4090000 		.word	.LC84
 2393 0f80 C0090000 		.word	.LC82
 2394 0f84 00000000 		.word	.LANCHOR1
ARM GAS  /var/folders/bw/wdbp2_bd0pn7gl5ybd33xbb80000gn/T//ccZ5cvgj.s 			page 43


 2395 0f88 580A0000 		.word	.LC91
 2396 0f8c 8C090000 		.word	.LC76
 2397 0f90 7C090000 		.word	.LC74
 2398 0f94 00000000 		.word	.LANCHOR24
 2399 0f98 00000000 		.word	.LANCHOR23
 2400 0f9c 88090000 		.word	.LC75
 2401 0fa0 00000000 		.word	.LANCHOR32
 2402 0fa4 9C090000 		.word	.LC78
 2403 0fa8 00000000 		.word	.LANCHOR9
 2404 0fac 3C090000 		.word	.LC72
 2405              	.L177:
 2406              		.loc 1 904 0 is_stmt 1
 2407 0fb0 099B     		ldr	r3, [sp, #36]
 2408 0fb2 002B     		cmp	r3, #0
 2409 0fb4 00F07686 		beq	.L301
 2410              		.loc 1 905 0
 2411 0fb8 0020     		movs	r0, #0
 2412 0fba FFF7FEFF 		bl	e_get_calibrated_prox
 2413              	.LVL193:
 2414 0fbe 0D90     		str	r0, [sp, #52]
 2415 0fc0 0120     		movs	r0, #1
 2416 0fc2 FFF7FEFF 		bl	e_get_calibrated_prox
 2417              	.LVL194:
 2418 0fc6 0C90     		str	r0, [sp, #48]
 2419 0fc8 0220     		movs	r0, #2
 2420 0fca FFF7FEFF 		bl	e_get_calibrated_prox
 2421              	.LVL195:
 2422 0fce 0A90     		str	r0, [sp, #40]
 2423 0fd0 0320     		movs	r0, #3
 2424 0fd2 FFF7FEFF 		bl	e_get_calibrated_prox
 2425              	.LVL196:
 2426 0fd6 0446     		mov	r4, r0
 2427 0fd8 0420     		movs	r0, #4
 2428 0fda FFF7FEFF 		bl	e_get_calibrated_prox
 2429              	.LVL197:
 2430 0fde 0546     		mov	r5, r0
 2431 0fe0 0520     		movs	r0, #5
 2432 0fe2 FFF7FEFF 		bl	e_get_calibrated_prox
 2433              	.LVL198:
 2434 0fe6 0646     		mov	r6, r0
 2435 0fe8 0620     		movs	r0, #6
 2436 0fea FFF7FEFF 		bl	e_get_calibrated_prox
 2437              	.LVL199:
 2438 0fee 0B90     		str	r0, [sp, #44]
 2439 0ff0 0720     		movs	r0, #7
 2440 0ff2 FFF7FEFF 		bl	e_get_calibrated_prox
 2441              	.LVL200:
 2442 0ff6 0B99     		ldr	r1, [sp, #44]
 2443 0ff8 0A9B     		ldr	r3, [sp, #40]
 2444 0ffa 0093     		str	r3, [sp]
 2445 0ffc 0590     		str	r0, [sp, #20]
 2446 0ffe CDE90361 		strd	r6, r1, [sp, #12]
 2447 1002 DDE90C32 		ldrd	r3, r2, [sp, #48]
 2448 1006 C249     		ldr	r1, .L696
 2449 1008 C248     		ldr	r0, .L696+4
 2450 100a CDE90145 		strd	r4, r5, [sp, #4]
 2451 100e FFF7FEFF 		bl	sprintf
ARM GAS  /var/folders/bw/wdbp2_bd0pn7gl5ybd33xbb80000gn/T//ccZ5cvgj.s 			page 44


 2452              	.LVL201:
 2453              		.loc 1 908 0
 2454 1012 C048     		ldr	r0, .L696+4
 2455 1014 FFF7FEFF 		bl	strlen
 2456              	.LVL202:
 2457 1018 0146     		mov	r1, r0
 2458 101a BE48     		ldr	r0, .L696+4
 2459 101c FFF7FEFF 		bl	e_send_uart1_char
 2460              	.LVL203:
 2461              	.L302:
 2462              		.loc 1 908 0 is_stmt 0 discriminator 2
 2463 1020 FFF7FEFF 		bl	e_uart1_sending
 2464              	.LVL204:
 2465 1024 0028     		cmp	r0, #0
 2466 1026 FBD1     		bne	.L302
 2467 1028 FFF74BB8 		b	.L4
 2468              	.L183:
 2469              		.loc 1 1011 0 is_stmt 1
 2470 102c 0020     		movs	r0, #0
 2471 102e FFF7FEFF 		bl	e_get_micro_volume
 2472              	.LVL205:
 2473 1032 0446     		mov	r4, r0
 2474 1034 0120     		movs	r0, #1
 2475 1036 FFF7FEFF 		bl	e_get_micro_volume
 2476              	.LVL206:
 2477 103a 0546     		mov	r5, r0
 2478 103c 0220     		movs	r0, #2
 2479 103e FFF7FEFF 		bl	e_get_micro_volume
 2480              	.LVL207:
 2481 1042 2B46     		mov	r3, r5
 2482 1044 0090     		str	r0, [sp]
 2483 1046 2246     		mov	r2, r4
 2484 1048 B349     		ldr	r1, .L696+8
 2485 104a B248     		ldr	r0, .L696+4
 2486 104c FFF7FEFF 		bl	sprintf
 2487              	.LVL208:
 2488              		.loc 1 1012 0
 2489 1050 099B     		ldr	r3, [sp, #36]
 2490              		.loc 1 1013 0
 2491 1052 B048     		ldr	r0, .L696+4
 2492              		.loc 1 1012 0
 2493 1054 002B     		cmp	r3, #0
 2494 1056 00F0E285 		beq	.L332
 2495              		.loc 1 1013 0
 2496 105a FFF7FEFF 		bl	strlen
 2497              	.LVL209:
 2498 105e 0146     		mov	r1, r0
 2499 1060 AC48     		ldr	r0, .L696+4
 2500 1062 FFF7FEFF 		bl	e_send_uart1_char
 2501              	.LVL210:
 2502              	.L333:
 2503              		.loc 1 1013 0 is_stmt 0 discriminator 2
 2504 1066 FFF7FEFF 		bl	e_uart1_sending
 2505              	.LVL211:
 2506 106a 0028     		cmp	r0, #0
 2507 106c FBD1     		bne	.L333
 2508 106e FFF728B8 		b	.L4
ARM GAS  /var/folders/bw/wdbp2_bd0pn7gl5ybd33xbb80000gn/T//ccZ5cvgj.s 			page 45


 2509              	.L181:
 2510              		.loc 1 958 0 is_stmt 1
 2511 1072 0020     		movs	r0, #0
 2512 1074 FFF7FEFF 		bl	e_set_speed_left
 2513              	.LVL212:
 2514              		.loc 1 959 0
 2515 1078 0020     		movs	r0, #0
 2516 107a FFF7FEFF 		bl	e_set_speed_right
 2517              	.LVL213:
 2518              		.loc 1 960 0
 2519 107e 0021     		movs	r1, #0
 2520 1080 0820     		movs	r0, #8
 2521 1082 FFF7FEFF 		bl	e_set_led
 2522              	.LVL214:
 2523              		.loc 1 961 0
 2524 1086 099B     		ldr	r3, [sp, #36]
 2525              		.loc 1 962 0
 2526 1088 A448     		ldr	r0, .L696+12
 2527 108a 0321     		movs	r1, #3
 2528              		.loc 1 961 0
 2529 108c 002B     		cmp	r3, #0
 2530 108e 00F09A85 		beq	.L313
 2531              		.loc 1 962 0
 2532 1092 FFF7FEFF 		bl	e_send_uart1_char
 2533              	.LVL215:
 2534              	.L314:
 2535              		.loc 1 962 0 is_stmt 0 discriminator 2
 2536 1096 FFF7FEFF 		bl	e_uart1_sending
 2537              	.LVL216:
 2538 109a 0028     		cmp	r0, #0
 2539 109c FBD1     		bne	.L314
 2540 109e FFF710B8 		b	.L4
 2541              	.L176:
 2542              		.loc 1 858 0 is_stmt 1
 2543 10a2 099B     		ldr	r3, [sp, #36]
 2544 10a4 002B     		cmp	r3, #0
 2545 10a6 3FF4B9A8 		beq	.L626
 2546              		.loc 1 860 0
 2547 10aa 0024     		movs	r4, #0
 2548              		.loc 1 859 0
 2549 10ac FFF7FEFF 		bl	e_i2cp_enable
 2550              	.LVL217:
 2551              		.loc 1 860 0
 2552 10b0 CAF80040 		str	r4, [r10]
 2553              	.L296:
 2554 10b4 E3B2     		uxtb	r3, r4
 2555              		.loc 1 861 0
 2556 10b6 E207     		lsls	r2, r4, #31
 2557 10b8 03F10101 		add	r1, r3, #1
 2558              		.loc 1 862 0
 2559 10bc 03F1FF33 		add	r3, r3, #-1
 2560              		.loc 1 861 0
 2561 10c0 4FF0C000 		mov	r0, #192
 2562 10c4 C9B2     		uxtb	r1, r1
 2563              		.loc 1 862 0
 2564 10c6 44BF     		itt	mi
 2565 10c8 C020     		movmi	r0, #192
ARM GAS  /var/folders/bw/wdbp2_bd0pn7gl5ybd33xbb80000gn/T//ccZ5cvgj.s 			page 46


 2566 10ca D9B2     		uxtbmi	r1, r3
 2567 10cc FFF7FEFF 		bl	e_i2cp_read
 2568              	.LVL218:
 2569 10d0 08F80400 		strb	r0, [r8, r4]
 2570              		.loc 1 860 0
 2571 10d4 DAF80040 		ldr	r4, [r10]
 2572 10d8 0134     		adds	r4, r4, #1
 2573 10da 052C     		cmp	r4, #5
 2574 10dc CAF80040 		str	r4, [r10]
 2575 10e0 E8DD     		ble	.L296
 2576              		.loc 1 865 0
 2577 10e2 0D23     		movs	r3, #13
 2578 10e4 CAF80030 		str	r3, [r10]
 2579              	.L299:
 2580 10e8 DAB2     		uxtb	r2, r3
 2581 10ea DC1F     		subs	r4, r3, #7
 2582              		.loc 1 866 0
 2583 10ec 511E     		subs	r1, r2, #1
 2584 10ee DB07     		lsls	r3, r3, #31
 2585              		.loc 1 867 0
 2586 10f0 02F10102 		add	r2, r2, #1
 2587              		.loc 1 866 0
 2588 10f4 4FF0C000 		mov	r0, #192
 2589 10f8 C9B2     		uxtb	r1, r1
 2590              		.loc 1 867 0
 2591 10fa 44BF     		itt	mi
 2592 10fc C020     		movmi	r0, #192
 2593 10fe D1B2     		uxtbmi	r1, r2
 2594 1100 FFF7FEFF 		bl	e_i2cp_read
 2595              	.LVL219:
 2596              		.loc 1 865 0
 2597 1104 DAF80030 		ldr	r3, [r10]
 2598              		.loc 1 867 0
 2599 1108 08F80400 		strb	r0, [r8, r4]
 2600              		.loc 1 865 0
 2601 110c 0133     		adds	r3, r3, #1
 2602 110e 102B     		cmp	r3, #16
 2603 1110 CAF80030 		str	r3, [r10]
 2604 1114 E8DD     		ble	.L299
 2605              		.loc 1 870 0
 2606 1116 FFF7FEFF 		bl	e_i2cp_disable
 2607              	.LVL220:
 2608              		.loc 1 883 0
 2609 111a 98F80950 		ldrb	r5, [r8, #9]	@ zero_extendqisi2
 2610              		.loc 1 881 0
 2611 111e 98F80730 		ldrb	r3, [r8, #7]	@ zero_extendqisi2
 2612              		.loc 1 882 0
 2613 1122 98F80800 		ldrb	r0, [r8, #8]	@ zero_extendqisi2
 2614              		.loc 1 880 0
 2615 1126 98F80620 		ldrb	r2, [r8, #6]	@ zero_extendqisi2
 2616              		.loc 1 879 0
 2617 112a 98F80540 		ldrb	r4, [r8, #5]	@ zero_extendqisi2
 2618              		.loc 1 878 0
 2619 112e 98F80410 		ldrb	r1, [r8, #4]	@ zero_extendqisi2
 2620              		.loc 1 873 0
 2621 1132 00EB0520 		add	r0, r0, r5, lsl #8
 2622 1136 02EB0322 		add	r2, r2, r3, lsl #8
ARM GAS  /var/folders/bw/wdbp2_bd0pn7gl5ybd33xbb80000gn/T//ccZ5cvgj.s 			page 47


 2623 113a 0290     		str	r0, [sp, #8]
 2624              		.loc 1 877 0
 2625 113c 98F80330 		ldrb	r3, [r8, #3]	@ zero_extendqisi2
 2626              		.loc 1 875 0
 2627 1140 98F80100 		ldrb	r0, [r8, #1]	@ zero_extendqisi2
 2628              		.loc 1 876 0
 2629 1144 98F80250 		ldrb	r5, [r8, #2]	@ zero_extendqisi2
 2630              		.loc 1 873 0
 2631 1148 0192     		str	r2, [sp, #4]
 2632              		.loc 1 874 0
 2633 114a 98F80020 		ldrb	r2, [r8]	@ zero_extendqisi2
 2634              		.loc 1 873 0
 2635 114e 01EB0421 		add	r1, r1, r4, lsl #8
 2636 1152 02EB0022 		add	r2, r2, r0, lsl #8
 2637 1156 0091     		str	r1, [sp]
 2638 1158 05EB0323 		add	r3, r5, r3, lsl #8
 2639 115c 7049     		ldr	r1, .L696+16
 2640 115e 6D48     		ldr	r0, .L696+4
 2641 1160 FFF7FEFF 		bl	sprintf
 2642              	.LVL221:
 2643              		.loc 1 893 0
 2644 1164 6B48     		ldr	r0, .L696+4
 2645 1166 FFF7FEFF 		bl	strlen
 2646              	.LVL222:
 2647 116a 0146     		mov	r1, r0
 2648 116c 6948     		ldr	r0, .L696+4
 2649 116e FFF7FEFF 		bl	e_send_uart1_char
 2650              	.LVL223:
 2651              	.L300:
 2652              		.loc 1 893 0 is_stmt 0 discriminator 2
 2653 1172 FFF7FEFF 		bl	e_uart1_sending
 2654              	.LVL224:
 2655 1176 0028     		cmp	r0, #0
 2656 1178 FBD1     		bne	.L300
 2657 117a FEF7A2BF 		b	.L4
 2658              	.L168:
 2659              		.loc 1 676 0 is_stmt 1
 2660 117e 694B     		ldr	r3, .L696+20
 2661 1180 694A     		ldr	r2, .L696+24
 2662 1182 1B68     		ldr	r3, [r3]
 2663 1184 1268     		ldr	r2, [r2]
 2664 1186 6949     		ldr	r1, .L696+28
 2665 1188 6248     		ldr	r0, .L696+4
 2666 118a FFF7FEFF 		bl	sprintf
 2667              	.LVL225:
 2668              		.loc 1 677 0
 2669 118e 099B     		ldr	r3, [sp, #36]
 2670              		.loc 1 678 0
 2671 1190 6048     		ldr	r0, .L696+4
 2672              		.loc 1 677 0
 2673 1192 002B     		cmp	r3, #0
 2674 1194 00F02785 		beq	.L208
 2675              		.loc 1 678 0
 2676 1198 FFF7FEFF 		bl	strlen
 2677              	.LVL226:
 2678 119c 0146     		mov	r1, r0
 2679 119e 5D48     		ldr	r0, .L696+4
ARM GAS  /var/folders/bw/wdbp2_bd0pn7gl5ybd33xbb80000gn/T//ccZ5cvgj.s 			page 48


 2680 11a0 FFF7FEFF 		bl	e_send_uart1_char
 2681              	.LVL227:
 2682              	.L209:
 2683              		.loc 1 678 0 is_stmt 0 discriminator 2
 2684 11a4 FFF7FEFF 		bl	e_uart1_sending
 2685              	.LVL228:
 2686 11a8 0028     		cmp	r0, #0
 2687 11aa FBD1     		bne	.L209
 2688 11ac FEF789BF 		b	.L4
 2689              	.L172:
 2690              		.loc 1 795 0 is_stmt 1
 2691 11b0 099B     		ldr	r3, [sp, #36]
 2692 11b2 002B     		cmp	r3, #0
 2693 11b4 3FF432A8 		beq	.L626
 2694              		.loc 1 796 0
 2695 11b8 1199     		ldr	r1, [sp, #68]
 2696 11ba 129B     		ldr	r3, [sp, #72]
 2697 11bc 0C68     		ldr	r4, [r1]
 2698 11be 1599     		ldr	r1, [sp, #84]
 2699 11c0 149A     		ldr	r2, [sp, #80]
 2700 11c2 0868     		ldr	r0, [r1]
 2701 11c4 1399     		ldr	r1, [sp, #76]
 2702 11c6 1B68     		ldr	r3, [r3]
 2703 11c8 0968     		ldr	r1, [r1]
 2704 11ca 1268     		ldr	r2, [r2]
 2705 11cc 0091     		str	r1, [sp]
 2706 11ce CDE90104 		strd	r0, r4, [sp, #4]
 2707 11d2 5749     		ldr	r1, .L696+32
 2708 11d4 4F48     		ldr	r0, .L696+4
 2709 11d6 FFF7FEFF 		bl	sprintf
 2710              	.LVL229:
 2711              		.loc 1 797 0
 2712 11da 4E48     		ldr	r0, .L696+4
 2713 11dc FFF7FEFF 		bl	strlen
 2714              	.LVL230:
 2715 11e0 0146     		mov	r1, r0
 2716 11e2 4C48     		ldr	r0, .L696+4
 2717 11e4 FFF7FEFF 		bl	e_send_uart1_char
 2718              	.LVL231:
 2719              	.L276:
 2720              		.loc 1 797 0 is_stmt 0 discriminator 2
 2721 11e8 FFF7FEFF 		bl	e_uart1_sending
 2722              	.LVL232:
 2723 11ec 0028     		cmp	r0, #0
 2724 11ee FBD1     		bne	.L276
 2725 11f0 FEF767BF 		b	.L4
 2726              	.L163:
 2727              		.loc 1 620 0 is_stmt 1
 2728 11f4 099B     		ldr	r3, [sp, #36]
 2729 11f6 002B     		cmp	r3, #0
 2730 11f8 00F01D85 		beq	.L189
 2731              		.loc 1 621 0
 2732 11fc 0121     		movs	r1, #1
 2733 11fe 0020     		movs	r0, #0
 2734 1200 FFF7FEFF 		bl	e_get_acc_filtered
 2735              	.LVL233:
 2736 1204 0121     		movs	r1, #1
ARM GAS  /var/folders/bw/wdbp2_bd0pn7gl5ybd33xbb80000gn/T//ccZ5cvgj.s 			page 49


 2737 1206 0446     		mov	r4, r0
 2738 1208 0846     		mov	r0, r1
 2739 120a FFF7FEFF 		bl	e_get_acc_filtered
 2740              	.LVL234:
 2741 120e 0121     		movs	r1, #1
 2742 1210 0546     		mov	r5, r0
 2743 1212 0220     		movs	r0, #2
 2744 1214 FFF7FEFF 		bl	e_get_acc_filtered
 2745              	.LVL235:
 2746 1218 4649     		ldr	r1, .L696+36
 2747 121a 0090     		str	r0, [sp]
 2748 121c 2B46     		mov	r3, r5
 2749 121e 2246     		mov	r2, r4
 2750 1220 3C48     		ldr	r0, .L696+4
 2751 1222 FFF7FEFF 		bl	sprintf
 2752              	.LVL236:
 2753              		.loc 1 630 0
 2754 1226 3B48     		ldr	r0, .L696+4
 2755 1228 FFF7FEFF 		bl	strlen
 2756              	.LVL237:
 2757 122c 0146     		mov	r1, r0
 2758 122e 3948     		ldr	r0, .L696+4
 2759 1230 FFF7FEFF 		bl	e_send_uart1_char
 2760              	.LVL238:
 2761              	.L190:
 2762              		.loc 1 630 0 is_stmt 0 discriminator 2
 2763 1234 FFF7FEFF 		bl	e_uart1_sending
 2764              	.LVL239:
 2765 1238 0028     		cmp	r0, #0
 2766 123a FBD1     		bne	.L190
 2767 123c FEF741BF 		b	.L4
 2768              	.L174:
 2769              		.loc 1 828 0 is_stmt 1
 2770 1240 099B     		ldr	r3, [sp, #36]
 2771              		.loc 1 829 0
 2772 1242 3D48     		ldr	r0, .L696+40
 2773 1244 3E21     		movs	r1, #62
 2774              		.loc 1 828 0
 2775 1246 002B     		cmp	r3, #0
 2776 1248 00F03384 		beq	.L284
 2777              		.loc 1 829 0
 2778 124c FFF7FEFF 		bl	e_send_uart1_char
 2779              	.LVL240:
 2780              	.L285:
 2781              		.loc 1 829 0 is_stmt 0 discriminator 2
 2782 1250 FFF7FEFF 		bl	e_uart1_sending
 2783              	.LVL241:
 2784 1254 0028     		cmp	r0, #0
 2785 1256 FBD1     		bne	.L285
 2786              		.loc 1 834 0 is_stmt 1
 2787 1258 0121     		movs	r1, #1
 2788 125a 0820     		movs	r0, #8
 2789 125c FFF7FEFF 		bl	e_set_led
 2790              	.LVL242:
 2791              		.loc 1 836 0
 2792 1260 4FF4C870 		mov	r0, #400
 2793 1264 FFF7FEFF 		bl	chThdSleep
ARM GAS  /var/folders/bw/wdbp2_bd0pn7gl5ybd33xbb80000gn/T//ccZ5cvgj.s 			page 50


 2794              	.LVL243:
 2795              		.loc 1 837 0
 2796 1268 FFF7FEFF 		bl	e_led_clear
 2797              	.LVL244:
 2798              		.loc 1 839 0
 2799 126c 6420     		movs	r0, #100
 2800 126e FFF7FEFF 		bl	chThdSleep
 2801              	.LVL245:
 2802              		.loc 1 840 0
 2803 1272 FFF7FEFF 		bl	e_calibrate_ir
 2804              	.LVL246:
 2805              		.loc 1 842 0
 2806 1276 1921     		movs	r1, #25
 2807 1278 3048     		ldr	r0, .L696+44
 2808 127a FFF7FEFF 		bl	e_send_uart1_char
 2809              	.LVL247:
 2810              	.L289:
 2811              		.loc 1 842 0 is_stmt 0 discriminator 2
 2812 127e FFF7FEFF 		bl	e_uart1_sending
 2813              	.LVL248:
 2814 1282 0028     		cmp	r0, #0
 2815 1284 FBD1     		bne	.L289
 2816 1286 FEF71CBF 		b	.L4
 2817              	.LVL249:
 2818              	.L166:
 2819              		.loc 1 657 0 is_stmt 1
 2820 128a 2D4A     		ldr	r2, .L696+48
 2821 128c 2D49     		ldr	r1, .L696+52
 2822 128e 1369     		ldr	r3, [r2, #16]
 2823 1290 1069     		ldr	r0, [r2, #16]
 2824 1292 0C69     		ldr	r4, [r1, #16]
 2825 1294 1269     		ldr	r2, [r2, #16]
 2826              		.loc 1 658 0
 2827 1296 2C49     		ldr	r1, .L696+56
 2828              		.loc 1 657 0
 2829 1298 C4F30014 		ubfx	r4, r4, #4, #1
 2830 129c C0F3C030 		ubfx	r0, r0, #15, #1
 2831 12a0 00EB4400 		add	r0, r0, r4, lsl #1
 2832 12a4 C2F38032 		ubfx	r2, r2, #14, #1
 2833 12a8 02EB4002 		add	r2, r2, r0, lsl #1
 2834 12ac C3F34033 		ubfx	r3, r3, #13, #1
 2835 12b0 03EB4203 		add	r3, r3, r2, lsl #1
 2836 12b4 254C     		ldr	r4, .L696+60
 2837              		.loc 1 658 0
 2838 12b6 1748     		ldr	r0, .L696+4
 2839              		.loc 1 657 0
 2840 12b8 2360     		str	r3, [r4]
 2841              		.loc 1 658 0
 2842 12ba 1A46     		mov	r2, r3
 2843 12bc FFF7FEFF 		bl	sprintf
 2844              	.LVL250:
 2845              		.loc 1 659 0
 2846 12c0 099B     		ldr	r3, [sp, #36]
 2847              		.loc 1 660 0
 2848 12c2 1448     		ldr	r0, .L696+4
 2849              		.loc 1 659 0
 2850 12c4 002B     		cmp	r3, #0
ARM GAS  /var/folders/bw/wdbp2_bd0pn7gl5ybd33xbb80000gn/T//ccZ5cvgj.s 			page 51


 2851 12c6 00F0F785 		beq	.L202
 2852              		.loc 1 660 0
 2853 12ca FFF7FEFF 		bl	strlen
 2854              	.LVL251:
 2855 12ce 0146     		mov	r1, r0
 2856 12d0 1048     		ldr	r0, .L696+4
 2857 12d2 FFF7FEFF 		bl	e_send_uart1_char
 2858              	.LVL252:
 2859              	.L203:
 2860              		.loc 1 660 0 is_stmt 0 discriminator 2
 2861 12d6 FFF7FEFF 		bl	e_uart1_sending
 2862              	.LVL253:
 2863 12da 0028     		cmp	r0, #0
 2864 12dc FBD1     		bne	.L203
 2865 12de FEF7F0BE 		b	.L4
 2866              	.L165:
 2867              		.loc 1 648 0 is_stmt 1
 2868 12e2 1B4A     		ldr	r2, .L696+64
 2869 12e4 1B49     		ldr	r1, .L696+68
 2870 12e6 0B48     		ldr	r0, .L696+4
 2871 12e8 FFF7FEFF 		bl	sscanf
 2872              	.LVL254:
 2873              		.loc 1 649 0
 2874 12ec 099B     		ldr	r3, [sp, #36]
 2875 12ee 002B     		cmp	r3, #0
 2876 12f0 00F03E85 		beq	.L199
 2877              		.loc 1 650 0
 2878 12f4 164B     		ldr	r3, .L696+64
 2879 12f6 1868     		ldr	r0, [r3]
 2880 12f8 FFF7FEFF 		bl	e_set_body_led
 2881              	.LVL255:
 2882              		.loc 1 651 0
 2883 12fc 0321     		movs	r1, #3
 2884 12fe 1648     		ldr	r0, .L696+72
 2885 1300 FFF7FEFF 		bl	e_send_uart1_char
 2886              	.LVL256:
 2887              	.L200:
 2888              		.loc 1 651 0 is_stmt 0 discriminator 2
 2889 1304 FFF7FEFF 		bl	e_uart1_sending
 2890              	.LVL257:
 2891 1308 0028     		cmp	r0, #0
 2892 130a FBD1     		bne	.L200
 2893 130c FEF7D9BE 		b	.L4
 2894              	.L697:
 2895              		.align	2
 2896              	.L696:
 2897 1310 FC080000 		.word	.LC70
 2898 1314 00000000 		.word	buffer
 2899 1318 B0090000 		.word	.LC81
 2900 131c 98090000 		.word	.LC77
 2901 1320 E8080000 		.word	.LC69
 2902 1324 00000000 		.word	.LANCHOR7
 2903 1328 00000000 		.word	.LANCHOR8
 2904 132c B4000000 		.word	.LC10
 2905 1330 68080000 		.word	.LC63
 2906 1334 5C000000 		.word	.LC1
 2907 1338 98080000 		.word	.LC66
ARM GAS  /var/folders/bw/wdbp2_bd0pn7gl5ybd33xbb80000gn/T//ccZ5cvgj.s 			page 52


 2908 133c 3C0A0000 		.word	.LC90
 2909 1340 00080240 		.word	1073874944
 2910 1344 000C0240 		.word	1073875968
 2911 1348 9C000000 		.word	.LC7
 2912 134c 00000000 		.word	.LANCHOR0
 2913 1350 00000000 		.word	.LANCHOR28
 2914 1354 90000000 		.word	.LC5
 2915 1358 98000000 		.word	.LC6
 2916              	.L167:
 2917              		.loc 1 666 0 is_stmt 1
 2918 135c 9D49     		ldr	r1, .L698
 2919 135e 9E4A     		ldr	r2, .L698+4
 2920 1360 9E4B     		ldr	r3, .L698+8
 2921 1362 9F48     		ldr	r0, .L698+12
 2922 1364 FFF7FEFF 		bl	sscanf
 2923              	.LVL258:
 2924              		.loc 1 667 0
 2925 1368 9B4B     		ldr	r3, .L698+4
 2926 136a 1868     		ldr	r0, [r3]
 2927 136c FFF7FEFF 		bl	e_set_speed_left
 2928              	.LVL259:
 2929              		.loc 1 668 0
 2930 1370 9A4B     		ldr	r3, .L698+8
 2931 1372 1868     		ldr	r0, [r3]
 2932 1374 FFF7FEFF 		bl	e_set_speed_right
 2933              	.LVL260:
 2934              		.loc 1 669 0
 2935 1378 099B     		ldr	r3, [sp, #36]
 2936              		.loc 1 670 0
 2937 137a 9A48     		ldr	r0, .L698+16
 2938 137c 0321     		movs	r1, #3
 2939              		.loc 1 669 0
 2940 137e 002B     		cmp	r3, #0
 2941 1380 00F02984 		beq	.L205
 2942              		.loc 1 670 0
 2943 1384 FFF7FEFF 		bl	e_send_uart1_char
 2944              	.LVL261:
 2945              	.L206:
 2946              		.loc 1 670 0 is_stmt 0 discriminator 2
 2947 1388 FFF7FEFF 		bl	e_uart1_sending
 2948              	.LVL262:
 2949 138c 0028     		cmp	r0, #0
 2950 138e FBD1     		bne	.L206
 2951 1390 FEF797BE 		b	.L4
 2952              	.L170:
 2953              		.loc 1 694 0 is_stmt 1
 2954 1394 099B     		ldr	r3, [sp, #36]
 2955 1396 002B     		cmp	r3, #0
 2956 1398 3EF440AF 		beq	.L626
 2957              		.loc 1 695 0
 2958 139c FFF7FEFF 		bl	e_get_check
 2959              	.LVL263:
 2960 13a0 0446     		mov	r4, r0
 2961 13a2 FFF7FEFF 		bl	e_get_address
 2962              	.LVL264:
 2963 13a6 0546     		mov	r5, r0
 2964 13a8 FFF7FEFF 		bl	e_get_data
ARM GAS  /var/folders/bw/wdbp2_bd0pn7gl5ybd33xbb80000gn/T//ccZ5cvgj.s 			page 53


 2965              	.LVL265:
 2966 13ac 8E49     		ldr	r1, .L698+20
 2967 13ae 0090     		str	r0, [sp]
 2968 13b0 2B46     		mov	r3, r5
 2969 13b2 2246     		mov	r2, r4
 2970 13b4 8A48     		ldr	r0, .L698+12
 2971 13b6 FFF7FEFF 		bl	sprintf
 2972              	.LVL266:
 2973              		.loc 1 696 0
 2974 13ba 8948     		ldr	r0, .L698+12
 2975 13bc FFF7FEFF 		bl	strlen
 2976              	.LVL267:
 2977 13c0 0146     		mov	r1, r0
 2978 13c2 8748     		ldr	r0, .L698+12
 2979 13c4 FFF7FEFF 		bl	e_send_uart1_char
 2980              	.LVL268:
 2981              	.L214:
 2982              		.loc 1 696 0 is_stmt 0 discriminator 2
 2983 13c8 FFF7FEFF 		bl	e_uart1_sending
 2984              	.LVL269:
 2985 13cc 0028     		cmp	r0, #0
 2986 13ce FBD1     		bne	.L214
 2987 13d0 FEF777BE 		b	.L4
 2988              	.L175:
 2989              		.loc 1 848 0 is_stmt 1
 2990 13d4 854B     		ldr	r3, .L698+24
 2991 13d6 864A     		ldr	r2, .L698+28
 2992 13d8 8649     		ldr	r1, .L698+32
 2993 13da 8148     		ldr	r0, .L698+12
 2994 13dc FFF7FEFF 		bl	sscanf
 2995              	.LVL270:
 2996              		.loc 1 849 0
 2997 13e0 824B     		ldr	r3, .L698+24
 2998 13e2 1968     		ldr	r1, [r3]
 2999 13e4 824B     		ldr	r3, .L698+28
 3000 13e6 1868     		ldr	r0, [r3]
 3001 13e8 FFF7FEFF 		bl	e_set_led
 3002              	.LVL271:
 3003              		.loc 1 850 0
 3004 13ec 099B     		ldr	r3, [sp, #36]
 3005              		.loc 1 851 0
 3006 13ee 8248     		ldr	r0, .L698+36
 3007 13f0 0321     		movs	r1, #3
 3008              		.loc 1 850 0
 3009 13f2 002B     		cmp	r3, #0
 3010 13f4 00F00384 		beq	.L291
 3011              		.loc 1 851 0
 3012 13f8 FFF7FEFF 		bl	e_send_uart1_char
 3013              	.LVL272:
 3014              	.L292:
 3015              		.loc 1 851 0 is_stmt 0 discriminator 2
 3016 13fc FFF7FEFF 		bl	e_uart1_sending
 3017              	.LVL273:
 3018 1400 0028     		cmp	r0, #0
 3019 1402 FBD1     		bne	.L292
 3020 1404 FEF75DBE 		b	.L4
 3021              	.L171:
ARM GAS  /var/folders/bw/wdbp2_bd0pn7gl5ybd33xbb80000gn/T//ccZ5cvgj.s 			page 54


 3022              		.loc 1 714 0 is_stmt 1
 3023 1408 099B     		ldr	r3, [sp, #36]
 3024              		.loc 1 715 0
 3025 140a 7C48     		ldr	r0, .L698+40
 3026 140c 0121     		movs	r1, #1
 3027              		.loc 1 714 0
 3028 140e 002B     		cmp	r3, #0
 3029 1410 00F0B884 		beq	.L219
 3030              		.loc 1 715 0
 3031 1414 FFF7FEFF 		bl	e_send_uart1_char
 3032              	.LVL274:
 3033              	.L220:
 3034              		.loc 1 715 0 is_stmt 0 discriminator 2
 3035 1418 FFF7FEFF 		bl	e_uart1_sending
 3036              	.LVL275:
 3037 141c 0028     		cmp	r0, #0
 3038 141e FBD1     		bne	.L220
 3039              		.loc 1 716 0 is_stmt 1
 3040 1420 2121     		movs	r1, #33
 3041 1422 7748     		ldr	r0, .L698+44
 3042 1424 FFF7FEFF 		bl	e_send_uart1_char
 3043              	.LVL276:
 3044              	.L221:
 3045              		.loc 1 716 0 is_stmt 0 discriminator 2
 3046 1428 FFF7FEFF 		bl	e_uart1_sending
 3047              	.LVL277:
 3048 142c 0028     		cmp	r0, #0
 3049 142e FBD1     		bne	.L221
 3050              		.loc 1 717 0 is_stmt 1
 3051 1430 3121     		movs	r1, #49
 3052 1432 7448     		ldr	r0, .L698+48
 3053 1434 FFF7FEFF 		bl	e_send_uart1_char
 3054              	.LVL278:
 3055              	.L222:
 3056              		.loc 1 717 0 is_stmt 0 discriminator 2
 3057 1438 FFF7FEFF 		bl	e_uart1_sending
 3058              	.LVL279:
 3059 143c 0028     		cmp	r0, #0
 3060 143e FBD1     		bne	.L222
 3061              		.loc 1 718 0 is_stmt 1
 3062 1440 FFF7FEFF 		bl	isEpuckVersion1_3
 3063              	.LVL280:
 3064 1444 0028     		cmp	r0, #0
 3065 1446 00F06B85 		beq	.L223
 3066              		.loc 1 719 0
 3067 144a 2121     		movs	r1, #33
 3068 144c 6E48     		ldr	r0, .L698+52
 3069 144e FFF7FEFF 		bl	e_send_uart1_char
 3070              	.LVL281:
 3071              	.L224:
 3072              		.loc 1 719 0 is_stmt 0 discriminator 2
 3073 1452 FFF7FEFF 		bl	e_uart1_sending
 3074              	.LVL282:
 3075 1456 0028     		cmp	r0, #0
 3076 1458 FBD1     		bne	.L224
 3077              	.L225:
 3078              		.loc 1 723 0 is_stmt 1
ARM GAS  /var/folders/bw/wdbp2_bd0pn7gl5ybd33xbb80000gn/T//ccZ5cvgj.s 			page 55


 3079 145a 2521     		movs	r1, #37
 3080 145c 6B48     		ldr	r0, .L698+56
 3081 145e FFF7FEFF 		bl	e_send_uart1_char
 3082              	.LVL283:
 3083              	.L227:
 3084              		.loc 1 723 0 is_stmt 0 discriminator 2
 3085 1462 FFF7FEFF 		bl	e_uart1_sending
 3086              	.LVL284:
 3087 1466 0028     		cmp	r0, #0
 3088 1468 FBD1     		bne	.L227
 3089              		.loc 1 724 0 is_stmt 1
 3090 146a 2E21     		movs	r1, #46
 3091 146c 6848     		ldr	r0, .L698+60
 3092 146e FFF7FEFF 		bl	e_send_uart1_char
 3093              	.LVL285:
 3094              	.L228:
 3095              		.loc 1 724 0 is_stmt 0 discriminator 2
 3096 1472 FFF7FEFF 		bl	e_uart1_sending
 3097              	.LVL286:
 3098 1476 0028     		cmp	r0, #0
 3099 1478 FBD1     		bne	.L228
 3100              		.loc 1 725 0 is_stmt 1
 3101 147a 2E21     		movs	r1, #46
 3102 147c 6548     		ldr	r0, .L698+64
 3103 147e FFF7FEFF 		bl	e_send_uart1_char
 3104              	.LVL287:
 3105              	.L229:
 3106              		.loc 1 725 0 is_stmt 0 discriminator 2
 3107 1482 FFF7FEFF 		bl	e_uart1_sending
 3108              	.LVL288:
 3109 1486 0028     		cmp	r0, #0
 3110 1488 FBD1     		bne	.L229
 3111              		.loc 1 726 0 is_stmt 1
 3112 148a 3221     		movs	r1, #50
 3113 148c 6248     		ldr	r0, .L698+68
 3114 148e FFF7FEFF 		bl	e_send_uart1_char
 3115              	.LVL289:
 3116              	.L230:
 3117              		.loc 1 726 0 is_stmt 0 discriminator 2
 3118 1492 FFF7FEFF 		bl	e_uart1_sending
 3119              	.LVL290:
 3120 1496 0028     		cmp	r0, #0
 3121 1498 FBD1     		bne	.L230
 3122              		.loc 1 728 0 is_stmt 1
 3123 149a 1F21     		movs	r1, #31
 3124 149c 5F48     		ldr	r0, .L698+72
 3125 149e FFF7FEFF 		bl	e_send_uart1_char
 3126              	.LVL291:
 3127              	.L231:
 3128              		.loc 1 728 0 is_stmt 0 discriminator 2
 3129 14a2 FFF7FEFF 		bl	e_uart1_sending
 3130              	.LVL292:
 3131 14a6 0028     		cmp	r0, #0
 3132 14a8 FBD1     		bne	.L231
 3133              		.loc 1 730 0 is_stmt 1
 3134 14aa FFF7FEFF 		bl	isEpuckVersion1_3
 3135              	.LVL293:
ARM GAS  /var/folders/bw/wdbp2_bd0pn7gl5ybd33xbb80000gn/T//ccZ5cvgj.s 			page 56


 3136 14ae 0028     		cmp	r0, #0
 3137 14b0 40F07F85 		bne	.L683
 3138              	.L232:
 3139              		.loc 1 733 0
 3140 14b4 1821     		movs	r1, #24
 3141 14b6 5A48     		ldr	r0, .L698+76
 3142 14b8 FFF7FEFF 		bl	e_send_uart1_char
 3143              	.LVL294:
 3144              	.L234:
 3145              		.loc 1 733 0 is_stmt 0 discriminator 2
 3146 14bc FFF7FEFF 		bl	e_uart1_sending
 3147              	.LVL295:
 3148 14c0 0028     		cmp	r0, #0
 3149 14c2 FBD1     		bne	.L234
 3150              		.loc 1 734 0 is_stmt 1
 3151 14c4 2821     		movs	r1, #40
 3152 14c6 5748     		ldr	r0, .L698+80
 3153 14c8 FFF7FEFF 		bl	e_send_uart1_char
 3154              	.LVL296:
 3155              	.L235:
 3156              		.loc 1 734 0 is_stmt 0 discriminator 2
 3157 14cc FFF7FEFF 		bl	e_uart1_sending
 3158              	.LVL297:
 3159 14d0 0028     		cmp	r0, #0
 3160 14d2 FBD1     		bne	.L235
 3161              		.loc 1 735 0 is_stmt 1
 3162 14d4 4F21     		movs	r1, #79
 3163 14d6 5448     		ldr	r0, .L698+84
 3164 14d8 FFF7FEFF 		bl	e_send_uart1_char
 3165              	.LVL298:
 3166              	.L236:
 3167              		.loc 1 735 0 is_stmt 0 discriminator 2
 3168 14dc FFF7FEFF 		bl	e_uart1_sending
 3169              	.LVL299:
 3170 14e0 0028     		cmp	r0, #0
 3171 14e2 FBD1     		bne	.L236
 3172              		.loc 1 736 0 is_stmt 1
 3173 14e4 2F21     		movs	r1, #47
 3174 14e6 5148     		ldr	r0, .L698+88
 3175 14e8 FFF7FEFF 		bl	e_send_uart1_char
 3176              	.LVL300:
 3177              	.L237:
 3178              		.loc 1 736 0 is_stmt 0 discriminator 2
 3179 14ec FFF7FEFF 		bl	e_uart1_sending
 3180              	.LVL301:
 3181 14f0 0028     		cmp	r0, #0
 3182 14f2 FBD1     		bne	.L237
 3183              		.loc 1 737 0 is_stmt 1
 3184 14f4 3321     		movs	r1, #51
 3185 14f6 4E48     		ldr	r0, .L698+92
 3186 14f8 FFF7FEFF 		bl	e_send_uart1_char
 3187              	.LVL302:
 3188              	.L238:
 3189              		.loc 1 737 0 is_stmt 0 discriminator 2
 3190 14fc FFF7FEFF 		bl	e_uart1_sending
 3191              	.LVL303:
 3192 1500 0028     		cmp	r0, #0
ARM GAS  /var/folders/bw/wdbp2_bd0pn7gl5ybd33xbb80000gn/T//ccZ5cvgj.s 			page 57


 3193 1502 FBD1     		bne	.L238
 3194              		.loc 1 739 0 is_stmt 1
 3195 1504 2121     		movs	r1, #33
 3196 1506 4B48     		ldr	r0, .L698+96
 3197 1508 FFF7FEFF 		bl	e_send_uart1_char
 3198              	.LVL304:
 3199              	.L239:
 3200              		.loc 1 739 0 is_stmt 0 discriminator 2
 3201 150c FFF7FEFF 		bl	e_uart1_sending
 3202              	.LVL305:
 3203 1510 0028     		cmp	r0, #0
 3204 1512 FBD1     		bne	.L239
 3205              		.loc 1 741 0 is_stmt 1
 3206 1514 1D21     		movs	r1, #29
 3207 1516 4848     		ldr	r0, .L698+100
 3208 1518 FFF7FEFF 		bl	e_send_uart1_char
 3209              	.LVL306:
 3210              	.L240:
 3211              		.loc 1 741 0 is_stmt 0 discriminator 2
 3212 151c FFF7FEFF 		bl	e_uart1_sending
 3213              	.LVL307:
 3214 1520 0028     		cmp	r0, #0
 3215 1522 FBD1     		bne	.L240
 3216              		.loc 1 742 0 is_stmt 1
 3217 1524 2121     		movs	r1, #33
 3218 1526 4548     		ldr	r0, .L698+104
 3219 1528 FFF7FEFF 		bl	e_send_uart1_char
 3220              	.LVL308:
 3221              	.L241:
 3222              		.loc 1 742 0 is_stmt 0 discriminator 2
 3223 152c FFF7FEFF 		bl	e_uart1_sending
 3224              	.LVL309:
 3225 1530 0028     		cmp	r0, #0
 3226 1532 FBD1     		bne	.L241
 3227              		.loc 1 743 0 is_stmt 1
 3228 1534 3121     		movs	r1, #49
 3229 1536 4248     		ldr	r0, .L698+108
 3230 1538 FFF7FEFF 		bl	e_send_uart1_char
 3231              	.LVL310:
 3232              	.L242:
 3233              		.loc 1 743 0 is_stmt 0 discriminator 2
 3234 153c FFF7FEFF 		bl	e_uart1_sending
 3235              	.LVL311:
 3236 1540 0028     		cmp	r0, #0
 3237 1542 FBD1     		bne	.L242
 3238              		.loc 1 744 0 is_stmt 1
 3239 1544 3121     		movs	r1, #49
 3240 1546 3F48     		ldr	r0, .L698+112
 3241 1548 FFF7FEFF 		bl	e_send_uart1_char
 3242              	.LVL312:
 3243              	.L243:
 3244              		.loc 1 744 0 is_stmt 0 discriminator 2
 3245 154c FFF7FEFF 		bl	e_uart1_sending
 3246              	.LVL313:
 3247 1550 0028     		cmp	r0, #0
 3248 1552 FBD1     		bne	.L243
 3249              		.loc 1 745 0 is_stmt 1
ARM GAS  /var/folders/bw/wdbp2_bd0pn7gl5ybd33xbb80000gn/T//ccZ5cvgj.s 			page 58


 3250 1554 2021     		movs	r1, #32
 3251 1556 3C48     		ldr	r0, .L698+116
 3252 1558 FFF7FEFF 		bl	e_send_uart1_char
 3253              	.LVL314:
 3254              	.L244:
 3255              		.loc 1 745 0 is_stmt 0 discriminator 2
 3256 155c FFF7FEFF 		bl	e_uart1_sending
 3257              	.LVL315:
 3258 1560 0028     		cmp	r0, #0
 3259 1562 FBD1     		bne	.L244
 3260              		.loc 1 746 0 is_stmt 1
 3261 1564 3121     		movs	r1, #49
 3262 1566 3948     		ldr	r0, .L698+120
 3263 1568 FFF7FEFF 		bl	e_send_uart1_char
 3264              	.LVL316:
 3265              	.L245:
 3266              		.loc 1 746 0 is_stmt 0 discriminator 2
 3267 156c FFF7FEFF 		bl	e_uart1_sending
 3268              	.LVL317:
 3269 1570 0028     		cmp	r0, #0
 3270 1572 FBD1     		bne	.L245
 3271              		.loc 1 747 0 is_stmt 1
 3272 1574 3221     		movs	r1, #50
 3273 1576 3648     		ldr	r0, .L698+124
 3274 1578 FFF7FEFF 		bl	e_send_uart1_char
 3275              	.LVL318:
 3276              	.L246:
 3277              		.loc 1 747 0 is_stmt 0 discriminator 2
 3278 157c FFF7FEFF 		bl	e_uart1_sending
 3279              	.LVL319:
 3280 1580 0028     		cmp	r0, #0
 3281 1582 FBD1     		bne	.L246
 3282              		.loc 1 748 0 is_stmt 1
 3283 1584 FFF7FEFF 		bl	isEpuckVersion1_3
 3284              	.LVL320:
 3285 1588 0028     		cmp	r0, #0
 3286 158a 40F00885 		bne	.L684
 3287              	.L247:
 3288              		.loc 1 751 0
 3289 158e 2C21     		movs	r1, #44
 3290 1590 3048     		ldr	r0, .L698+128
 3291 1592 FFF7FEFF 		bl	e_send_uart1_char
 3292              	.LVL321:
 3293              	.L249:
 3294              		.loc 1 751 0 is_stmt 0 discriminator 2
 3295 1596 FFF7FEFF 		bl	e_uart1_sending
 3296              	.LVL322:
 3297 159a 0028     		cmp	r0, #0
 3298 159c FBD1     		bne	.L249
 3299              		.loc 1 752 0 is_stmt 1
 3300 159e 2521     		movs	r1, #37
 3301 15a0 2D48     		ldr	r0, .L698+132
 3302 15a2 FFF7FEFF 		bl	e_send_uart1_char
 3303              	.LVL323:
 3304              	.L250:
 3305              		.loc 1 752 0 is_stmt 0 discriminator 2
 3306 15a6 FFF7FEFF 		bl	e_uart1_sending
ARM GAS  /var/folders/bw/wdbp2_bd0pn7gl5ybd33xbb80000gn/T//ccZ5cvgj.s 			page 59


 3307              	.LVL324:
 3308 15aa 0028     		cmp	r0, #0
 3309 15ac FBD1     		bne	.L250
 3310              		.loc 1 753 0 is_stmt 1
 3311 15ae 2B21     		movs	r1, #43
 3312 15b0 2A48     		ldr	r0, .L698+136
 3313 15b2 FFF7FEFF 		bl	e_send_uart1_char
 3314              	.LVL325:
 3315              	.L251:
 3316              		.loc 1 753 0 is_stmt 0 discriminator 2
 3317 15b6 FFF7FEFF 		bl	e_uart1_sending
 3318              	.LVL326:
 3319 15ba 0028     		cmp	r0, #0
 3320 15bc FBD1     		bne	.L251
 3321              		.loc 1 754 0 is_stmt 1
 3322 15be 2A21     		movs	r1, #42
 3323 15c0 2748     		ldr	r0, .L698+140
 3324 15c2 FFF7FEFF 		bl	e_send_uart1_char
 3325              	.LVL327:
 3326              	.L252:
 3327              		.loc 1 754 0 is_stmt 0 discriminator 2
 3328 15c6 FFF7FEFF 		bl	e_uart1_sending
 3329              	.LVL328:
 3330 15ca 0028     		cmp	r0, #0
 3331 15cc FBD1     		bne	.L252
 3332 15ce FEF778BD 		b	.L4
 3333              	.L699:
 3334 15d2 00BF     		.align	2
 3335              	.L698:
 3336 15d4 A4000000 		.word	.LC8
 3337 15d8 00000000 		.word	.LANCHOR8
 3338 15dc 00000000 		.word	.LANCHOR7
 3339 15e0 00000000 		.word	buffer
 3340 15e4 B0000000 		.word	.LC9
 3341 15e8 CC000000 		.word	.LC13
 3342 15ec 00000000 		.word	.LANCHOR28
 3343 15f0 00000000 		.word	.LANCHOR31
 3344 15f4 D8080000 		.word	.LC67
 3345 15f8 E4080000 		.word	.LC68
 3346 15fc 10010000 		.word	.LC15
 3347 1600 14010000 		.word	.LC16
 3348 1604 38010000 		.word	.LC17
 3349 1608 6C010000 		.word	.LC18
 3350 160c C0010000 		.word	.LC20
 3351 1610 E8010000 		.word	.LC21
 3352 1614 18020000 		.word	.LC22
 3353 1618 48020000 		.word	.LC23
 3354 161c 7C020000 		.word	.LC24
 3355 1620 B8020000 		.word	.LC26
 3356 1624 D4020000 		.word	.LC27
 3357 1628 00030000 		.word	.LC28
 3358 162c 50030000 		.word	.LC29
 3359 1630 80030000 		.word	.LC30
 3360 1634 B4030000 		.word	.LC31
 3361 1638 D8030000 		.word	.LC32
 3362 163c F8030000 		.word	.LC33
 3363 1640 1C040000 		.word	.LC34
ARM GAS  /var/folders/bw/wdbp2_bd0pn7gl5ybd33xbb80000gn/T//ccZ5cvgj.s 			page 60


 3364 1644 50040000 		.word	.LC35
 3365 1648 84040000 		.word	.LC36
 3366 164c A8040000 		.word	.LC37
 3367 1650 DC040000 		.word	.LC38
 3368 1654 30050000 		.word	.LC40
 3369 1658 60050000 		.word	.LC41
 3370 165c 88050000 		.word	.LC42
 3371 1660 B4050000 		.word	.LC43
 3372              	.L173:
 3373              		.loc 1 801 0 is_stmt 1
 3374 1664 099B     		ldr	r3, [sp, #36]
 3375 1666 002B     		cmp	r3, #0
 3376 1668 3EF4D8AD 		beq	.L626
 3377              		.loc 1 804 0
 3378 166c 159B     		ldr	r3, [sp, #84]
 3379 166e B14D     		ldr	r5, .L700
 3380 1670 B14E     		ldr	r6, .L700+4
 3381 1672 0193     		str	r3, [sp, #4]
 3382              		.loc 1 802 0
 3383 1674 4FF0FF34 		mov	r4, #-1
 3384              		.loc 1 804 0
 3385 1678 139B     		ldr	r3, [sp, #76]
 3386 167a 0093     		str	r3, [sp]
 3387 167c 0395     		str	r5, [sp, #12]
 3388 167e 0296     		str	r6, [sp, #8]
 3389 1680 AE4B     		ldr	r3, .L700+8
 3390 1682 AF4A     		ldr	r2, .L700+12
 3391 1684 AF49     		ldr	r1, .L700+16
 3392 1686 B048     		ldr	r0, .L700+20
 3393              		.loc 1 802 0
 3394 1688 3460     		str	r4, [r6]
 3395              		.loc 1 803 0
 3396 168a 2C60     		str	r4, [r5]
 3397              		.loc 1 804 0
 3398 168c FFF7FEFF 		bl	sscanf
 3399              	.LVL329:
 3400              		.loc 1 805 0
 3401 1690 149A     		ldr	r2, [sp, #80]
 3402 1692 1368     		ldr	r3, [r2]
 3403 1694 002B     		cmp	r3, #0
 3404 1696 40F07784 		bne	.L277
 3405              		.loc 1 806 0
 3406 169a 129A     		ldr	r2, [sp, #72]
 3407 169c 139B     		ldr	r3, [sp, #76]
 3408 169e 1268     		ldr	r2, [r2]
 3409 16a0 1B68     		ldr	r3, [r3]
 3410 16a2 03FB02F3 		mul	r3, r3, r2
 3411 16a6 119A     		ldr	r2, [sp, #68]
 3412 16a8 1360     		str	r3, [r2]
 3413              	.L278:
 3414              		.loc 1 809 0
 3415 16aa 41F22B02 		movw	r2, #4139
 3416 16ae 9342     		cmp	r3, r2
 3417 16b0 0BDD     		ble	.L279
 3418              		.loc 1 810 0
 3419 16b2 1499     		ldr	r1, [sp, #80]
 3420 16b4 0122     		movs	r2, #1
ARM GAS  /var/folders/bw/wdbp2_bd0pn7gl5ybd33xbb80000gn/T//ccZ5cvgj.s 			page 61


 3421 16b6 0A60     		str	r2, [r1]
 3422              		.loc 1 811 0
 3423 16b8 1299     		ldr	r1, [sp, #72]
 3424 16ba 2823     		movs	r3, #40
 3425 16bc 0B60     		str	r3, [r1]
 3426              		.loc 1 812 0
 3427 16be 1399     		ldr	r1, [sp, #76]
 3428 16c0 0B60     		str	r3, [r1]
 3429              		.loc 1 813 0
 3430 16c2 119B     		ldr	r3, [sp, #68]
 3431 16c4 4FF44862 		mov	r2, #3200
 3432 16c8 1A60     		str	r2, [r3]
 3433              	.L279:
 3434              		.loc 1 815 0
 3435 16ca FFF7FEFF 		bl	e_poxxxx_init_cam
 3436              	.LVL330:
 3437              		.loc 1 816 0
 3438 16ce 9A4B     		ldr	r3, .L700+4
 3439 16d0 1868     		ldr	r0, [r3]
 3440              		.loc 1 817 0
 3441 16d2 159B     		ldr	r3, [sp, #84]
 3442 16d4 1D68     		ldr	r5, [r3]
 3443 16d6 129B     		ldr	r3, [sp, #72]
 3444 16d8 1A68     		ldr	r2, [r3]
 3445              		.loc 1 816 0
 3446 16da 461C     		adds	r6, r0, #1
 3447              		.loc 1 817 0
 3448 16dc 02FB05F2 		mul	r2, r2, r5
 3449              		.loc 1 816 0
 3450 16e0 06D1     		bne	.L281
 3451              		.loc 1 817 0
 3452 16e2 C2F52070 		rsb	r0, r2, #640
 3453 16e6 00EBD070 		add	r0, r0, r0, lsr #31
 3454 16ea 934B     		ldr	r3, .L700+4
 3455 16ec 4010     		asrs	r0, r0, #1
 3456 16ee 1860     		str	r0, [r3]
 3457              	.L281:
 3458              		.loc 1 819 0
 3459 16f0 9049     		ldr	r1, .L700
 3460 16f2 139B     		ldr	r3, [sp, #76]
 3461 16f4 0968     		ldr	r1, [r1]
 3462 16f6 1B68     		ldr	r3, [r3]
 3463 16f8 4C1C     		adds	r4, r1, #1
 3464 16fa 03FB05F3 		mul	r3, r3, r5
 3465 16fe 06D1     		bne	.L282
 3466              		.loc 1 820 0
 3467 1700 C3F5F071 		rsb	r1, r3, #480
 3468 1704 01EBD171 		add	r1, r1, r1, lsr #31
 3469 1708 8A4C     		ldr	r4, .L700
 3470 170a 4910     		asrs	r1, r1, #1
 3471 170c 2160     		str	r1, [r4]
 3472              	.L282:
 3473              		.loc 1 822 0
 3474 170e 149C     		ldr	r4, [sp, #80]
 3475 1710 2468     		ldr	r4, [r4]
 3476 1712 0294     		str	r4, [sp, #8]
 3477 1714 CDE90055 		strd	r5, r5, [sp]
ARM GAS  /var/folders/bw/wdbp2_bd0pn7gl5ybd33xbb80000gn/T//ccZ5cvgj.s 			page 62


 3478 1718 FFF7FEFF 		bl	e_poxxxx_config_cam
 3479              	.LVL331:
 3480              		.loc 1 823 0
 3481 171c FFF7FEFF 		bl	e_poxxxx_write_cam_registers
 3482              	.LVL332:
 3483              		.loc 1 824 0
 3484 1720 0321     		movs	r1, #3
 3485 1722 8A48     		ldr	r0, .L700+24
 3486 1724 FFF7FEFF 		bl	e_send_uart1_char
 3487              	.LVL333:
 3488              	.L283:
 3489              		.loc 1 824 0 is_stmt 0 discriminator 2
 3490 1728 FFF7FEFF 		bl	e_uart1_sending
 3491              	.LVL334:
 3492 172c 0028     		cmp	r0, #0
 3493 172e FBD1     		bne	.L283
 3494 1730 FEF7C7BC 		b	.L4
 3495              	.L169:
 3496              		.loc 1 684 0 is_stmt 1
 3497 1734 864A     		ldr	r2, .L700+28
 3498 1736 8749     		ldr	r1, .L700+32
 3499 1738 8348     		ldr	r0, .L700+20
 3500 173a FFF7FEFF 		bl	sscanf
 3501              	.LVL335:
 3502              		.loc 1 685 0
 3503 173e 099B     		ldr	r3, [sp, #36]
 3504 1740 002B     		cmp	r3, #0
 3505 1742 00F0C583 		beq	.L211
 3506              		.loc 1 686 0
 3507 1746 824B     		ldr	r3, .L700+28
 3508 1748 1868     		ldr	r0, [r3]
 3509 174a FFF7FEFF 		bl	e_set_front_led
 3510              	.LVL336:
 3511              		.loc 1 687 0
 3512 174e 0321     		movs	r1, #3
 3513 1750 8148     		ldr	r0, .L700+36
 3514 1752 FFF7FEFF 		bl	e_send_uart1_char
 3515              	.LVL337:
 3516              	.L212:
 3517              		.loc 1 687 0 is_stmt 0 discriminator 2
 3518 1756 FFF7FEFF 		bl	e_uart1_sending
 3519              	.LVL338:
 3520 175a 0028     		cmp	r0, #0
 3521 175c FBD1     		bne	.L212
 3522 175e FEF7B0BC 		b	.L4
 3523              	.L162:
 3524              		.loc 1 1071 0 is_stmt 1
 3525 1762 099B     		ldr	r3, [sp, #36]
 3526              		.loc 1 1072 0
 3527 1764 7D48     		ldr	r0, .L700+40
 3528 1766 1521     		movs	r1, #21
 3529              		.loc 1 1071 0
 3530 1768 002B     		cmp	r3, #0
 3531 176a 00F0F982 		beq	.L348
 3532              		.loc 1 1072 0
 3533 176e FFF7FEFF 		bl	e_send_uart1_char
 3534              	.LVL339:
ARM GAS  /var/folders/bw/wdbp2_bd0pn7gl5ybd33xbb80000gn/T//ccZ5cvgj.s 			page 63


 3535              	.L349:
 3536              		.loc 1 1072 0 is_stmt 0 discriminator 2
 3537 1772 FFF7FEFF 		bl	e_uart1_sending
 3538              	.LVL340:
 3539 1776 0028     		cmp	r0, #0
 3540 1778 FBD1     		bne	.L349
 3541 177a FEF7A2BC 		b	.L4
 3542              	.L324:
 3543              		.loc 1 983 0 is_stmt 1
 3544 177e 41F65071 		movw	r1, #8016
 3545 1782 42F61430 		movw	r0, #11028
 3546 1786 FFF7FEFF 		bl	e_play_sound
 3547              	.LVL341:
 3548              	.L325:
 3549              		.loc 1 991 0
 3550 178a 0321     		movs	r1, #3
 3551 178c 7448     		ldr	r0, .L700+44
 3552 178e FFF7FEFF 		bl	e_send_uart1_char
 3553              	.LVL342:
 3554              	.L326:
 3555              		.loc 1 991 0 is_stmt 0 discriminator 2
 3556 1792 FFF7FEFF 		bl	e_uart1_sending
 3557              	.LVL343:
 3558 1796 0028     		cmp	r0, #0
 3559 1798 FBD1     		bne	.L326
 3560 179a FEF792BC 		b	.L4
 3561              	.L323:
 3562              		.loc 1 981 0 is_stmt 1
 3563 179e 40F69461 		movw	r1, #3732
 3564 17a2 41F67E40 		movw	r0, #7294
 3565 17a6 FFF7FEFF 		bl	e_play_sound
 3566              	.LVL344:
 3567              		.loc 1 982 0
 3568 17aa EEE7     		b	.L325
 3569              	.L322:
 3570              		.loc 1 979 0
 3571 17ac 0022     		movs	r2, #0
 3572 17ae 0221     		movs	r1, #2
 3573 17b0 0B20     		movs	r0, #11
 3574 17b2 FFF7FEFF 		bl	playMelody
 3575              	.LVL345:
 3576              		.loc 1 980 0
 3577 17b6 E8E7     		b	.L325
 3578              	.L321:
 3579              		.loc 1 977 0
 3580 17b8 0022     		movs	r2, #0
 3581 17ba 0221     		movs	r1, #2
 3582 17bc 0420     		movs	r0, #4
 3583 17be FFF7FEFF 		bl	playMelody
 3584              	.LVL346:
 3585              		.loc 1 978 0
 3586 17c2 E2E7     		b	.L325
 3587              	.L319:
 3588              		.loc 1 975 0
 3589 17c4 0022     		movs	r2, #0
 3590 17c6 0221     		movs	r1, #2
 3591 17c8 0320     		movs	r0, #3
ARM GAS  /var/folders/bw/wdbp2_bd0pn7gl5ybd33xbb80000gn/T//ccZ5cvgj.s 			page 64


 3592 17ca FFF7FEFF 		bl	playMelody
 3593              	.LVL347:
 3594              		.loc 1 976 0
 3595 17ce DCE7     		b	.L325
 3596              	.LVL348:
 3597              	.L28:
 3598              	.LBE4:
 3599              		.loc 1 247 0
 3600 17d0 644A     		ldr	r2, .L700+48
 3601 17d2 0023     		movs	r3, #0
 3602 17d4 1360     		str	r3, [r2]
 3603 17d6 644A     		ldr	r2, .L700+52
 3604 17d8 1360     		str	r3, [r2]
 3605 17da FEF7DDBD 		b	.L40
 3606              	.L11:
 3607              		.loc 1 185 0
 3608 17de 614A     		ldr	r2, .L700+48
 3609 17e0 0023     		movs	r3, #0
 3610 17e2 1360     		str	r3, [r2]
 3611 17e4 604A     		ldr	r2, .L700+52
 3612 17e6 1360     		str	r3, [r2]
 3613 17e8 FEF761BD 		b	.L23
 3614              	.LVL349:
 3615              	.L139:
 3616              		.loc 1 593 0
 3617 17ec 5648     		ldr	r0, .L700+20
 3618 17ee FFF7FEFF 		bl	e_send_uart2_char
 3619              	.LVL350:
 3620              	.L143:
 3621              		.loc 1 594 0 discriminator 1
 3622 17f2 FFF7FEFF 		bl	e_uart2_sending
 3623              	.LVL351:
 3624 17f6 0028     		cmp	r0, #0
 3625 17f8 FBD1     		bne	.L143
 3626 17fa FEF70FBD 		b	.L626
 3627              	.L68:
 3628              		.loc 1 299 0
 3629 17fe FFF7FEFF 		bl	e_read_acc_spheric
 3630              	.LVL352:
 3631 1802 5A4B     		ldr	r3, .L700+56
 3632 1804 83ED000A 		vstr.32	s0, [r3]
 3633 1808 1A78     		ldrb	r2, [r3]	@ zero_extendqisi2
 3634 180a C3ED010A 		vstr.32	s1, [r3, #4]
 3635 180e 1146     		mov	r1, r2
 3636 1810 9A79     		ldrb	r2, [r3, #6]	@ zero_extendqisi2
 3637 1812 83ED021A 		vstr.32	s2, [r3, #8]
 3638 1816 0B92     		str	r2, [sp, #44]
 3639 1818 DA79     		ldrb	r2, [r3, #7]	@ zero_extendqisi2
 3640 181a 0C92     		str	r2, [sp, #48]
 3641 181c 1A7A     		ldrb	r2, [r3, #8]	@ zero_extendqisi2
 3642 181e 0D92     		str	r2, [sp, #52]
 3643 1820 5A7A     		ldrb	r2, [r3, #9]	@ zero_extendqisi2
 3644 1822 93F801E0 		ldrb	lr, [r3, #1]	@ zero_extendqisi2
 3645 1826 93F802C0 		ldrb	ip, [r3, #2]	@ zero_extendqisi2
 3646 182a DD78     		ldrb	r5, [r3, #3]	@ zero_extendqisi2
 3647 182c 1C79     		ldrb	r4, [r3, #4]	@ zero_extendqisi2
 3648 182e 5879     		ldrb	r0, [r3, #5]	@ zero_extendqisi2
ARM GAS  /var/folders/bw/wdbp2_bd0pn7gl5ybd33xbb80000gn/T//ccZ5cvgj.s 			page 65


 3649 1830 0E92     		str	r2, [sp, #56]
 3650 1832 9A7A     		ldrb	r2, [r3, #10]	@ zero_extendqisi2
 3651 1834 DB7A     		ldrb	r3, [r3, #11]	@ zero_extendqisi2
 3652 1836 0F92     		str	r2, [sp, #60]
 3653 1838 1093     		str	r3, [sp, #64]
 3654 183a FFF795B8 		b	.L67
 3655              	.L63:
 3656              		.loc 1 272 0
 3657 183e FFF7FEFF 		bl	isEpuckVersion1_3
 3658              	.LVL353:
 3659 1842 0028     		cmp	r0, #0
 3660 1844 00F0E980 		beq	.L65
 3661              		.loc 1 273 0
 3662 1848 494B     		ldr	r3, .L700+60
 3663 184a C3F800B0 		str	fp, [r3]
 3664              		.loc 1 274 0
 3665 184e 494B     		ldr	r3, .L700+64
 3666 1850 C3F800B0 		str	fp, [r3]
 3667              		.loc 1 275 0
 3668 1854 484B     		ldr	r3, .L700+68
 3669 1856 5946     		mov	r1, fp
 3670 1858 C3F800B0 		str	fp, [r3]
 3671 185c 5D46     		mov	r5, fp
 3672 185e 5846     		mov	r0, fp
 3673 1860 DC46     		mov	ip, fp
 3674 1862 5C46     		mov	r4, fp
 3675 1864 DE46     		mov	lr, fp
 3676 1866 FEF74CBE 		b	.L64
 3677              	.L99:
 3678              		.loc 1 452 0
 3679 186a CAF800B0 		str	fp, [r10]
 3680 186e 5846     		mov	r0, fp
 3681              	.L101:
 3682              		.loc 1 453 0 discriminator 3
 3683 1870 FFF7FEFF 		bl	e_get_calibrated_prox
 3684              	.LVL354:
 3685              		.loc 1 454 0 discriminator 3
 3686 1874 D9F80020 		ldr	r2, [r9]
 3687              		.loc 1 452 0 discriminator 3
 3688 1878 DAF80030 		ldr	r3, [r10]
 3689              		.loc 1 454 0 discriminator 3
 3690 187c 08F80200 		strb	r0, [r8, r2]
 3691              		.loc 1 455 0 discriminator 3
 3692 1880 08EB0204 		add	r4, r8, r2
 3693 1884 0112     		asrs	r1, r0, #8
 3694              		.loc 1 452 0 discriminator 3
 3695 1886 581C     		adds	r0, r3, #1
 3696              		.loc 1 455 0 discriminator 3
 3697 1888 0232     		adds	r2, r2, #2
 3698              		.loc 1 452 0 discriminator 3
 3699 188a 0928     		cmp	r0, #9
 3700              		.loc 1 455 0 discriminator 3
 3701 188c 6170     		strb	r1, [r4, #1]
 3702 188e C9F80020 		str	r2, [r9]
 3703              		.loc 1 452 0 discriminator 3
 3704 1892 CAF80000 		str	r0, [r10]
 3705 1896 EBDD     		ble	.L101
ARM GAS  /var/folders/bw/wdbp2_bd0pn7gl5ybd33xbb80000gn/T//ccZ5cvgj.s 			page 66


 3706              		.loc 1 577 0
 3707 1898 3046     		mov	r0, r6
 3708 189a FFF7FEFF 		bl	e_getchar_uart2
 3709              	.LVL355:
 3710 189e 0028     		cmp	r0, #0
 3711 18a0 3EF46AAE 		beq	.L662
 3712 18a4 FEF744BE 		b	.L134
 3713              	.L102:
 3714              		.loc 1 468 0
 3715 18a8 CAF800B0 		str	fp, [r10]
 3716 18ac 5846     		mov	r0, fp
 3717              	.L105:
 3718              		.loc 1 469 0 discriminator 3
 3719 18ae FFF7FEFF 		bl	e_get_ambient_light
 3720              	.LVL356:
 3721              		.loc 1 470 0 discriminator 3
 3722 18b2 D9F80020 		ldr	r2, [r9]
 3723              		.loc 1 468 0 discriminator 3
 3724 18b6 DAF80030 		ldr	r3, [r10]
 3725              		.loc 1 470 0 discriminator 3
 3726 18ba 08F80200 		strb	r0, [r8, r2]
 3727              		.loc 1 471 0 discriminator 3
 3728 18be 08EB0204 		add	r4, r8, r2
 3729 18c2 0112     		asrs	r1, r0, #8
 3730              		.loc 1 468 0 discriminator 3
 3731 18c4 581C     		adds	r0, r3, #1
 3732              		.loc 1 471 0 discriminator 3
 3733 18c6 0232     		adds	r2, r2, #2
 3734              		.loc 1 468 0 discriminator 3
 3735 18c8 0928     		cmp	r0, #9
 3736              		.loc 1 471 0 discriminator 3
 3737 18ca 6170     		strb	r1, [r4, #1]
 3738 18cc C9F80020 		str	r2, [r9]
 3739              		.loc 1 468 0 discriminator 3
 3740 18d0 CAF80000 		str	r0, [r10]
 3741 18d4 EBDD     		ble	.L105
 3742              		.loc 1 577 0
 3743 18d6 3046     		mov	r0, r6
 3744 18d8 FFF7FEFF 		bl	e_getchar_uart2
 3745              	.LVL357:
 3746 18dc 0028     		cmp	r0, #0
 3747 18de 3EF44BAE 		beq	.L662
 3748 18e2 FEF725BE 		b	.L134
 3749              	.LVL358:
 3750              	.L671:
 3751              		.loc 1 241 0
 3752 18e6 FFF7FEFF 		bl	e_init_sound
 3753              	.LVL359:
 3754              		.loc 1 242 0
 3755 18ea 244A     		ldr	r2, .L700+72
 3756 18ec 0123     		movs	r3, #1
 3757 18ee 1370     		strb	r3, [r2]
 3758 18f0 FEF793BD 		b	.L41
 3759              	.LVL360:
 3760              	.L670:
 3761              		.loc 1 179 0
 3762 18f4 FFF7FEFF 		bl	e_init_sound
ARM GAS  /var/folders/bw/wdbp2_bd0pn7gl5ybd33xbb80000gn/T//ccZ5cvgj.s 			page 67


 3763              	.LVL361:
 3764              		.loc 1 180 0
 3765 18f8 204A     		ldr	r2, .L700+72
 3766 18fa 0123     		movs	r3, #1
 3767 18fc 1370     		strb	r3, [r2]
 3768 18fe FEF73BBD 		b	.L24
 3769              	.LVL362:
 3770              	.L417:
 3771              		.loc 1 408 0
 3772 1902 BBF1000F 		cmp	fp, #0
 3773 1906 3EF432AE 		beq	.L136
 3774              		.loc 1 409 0
 3775 190a 1D4B     		ldr	r3, .L700+76
 3776 190c 1878     		ldrb	r0, [r3]	@ zero_extendqisi2
 3777 190e FFF7FEFF 		bl	e_set_body_led
 3778              	.LVL363:
 3779 1912 FEF708BE 		b	.L133
 3780              	.L677:
 3781              		.loc 1 333 0
 3782 1916 FFF7FEFF 		bl	getBatteryValueRaw
 3783              	.LVL364:
 3784              		.loc 1 334 0
 3785 191a D9F80030 		ldr	r3, [r9]
 3786              		.loc 1 335 0
 3787 191e 08EB0302 		add	r2, r8, r3
 3788              		.loc 1 334 0
 3789 1922 08F80300 		strb	r0, [r8, r3]
 3790              		.loc 1 335 0
 3791 1926 010A     		lsrs	r1, r0, #8
 3792 1928 0233     		adds	r3, r3, #2
 3793 192a 5170     		strb	r1, [r2, #1]
 3794 192c C9F80030 		str	r3, [r9]
 3795 1930 FEF7F6BD 		b	.L44
 3796              	.L701:
 3797              		.align	2
 3798              	.L700:
 3799 1934 00000000 		.word	.LANCHOR30
 3800 1938 00000000 		.word	.LANCHOR29
 3801 193c 00000000 		.word	.LANCHOR3
 3802 1940 00000000 		.word	.LANCHOR2
 3803 1944 7C080000 		.word	.LC64
 3804 1948 00000000 		.word	buffer
 3805 194c 94080000 		.word	.LC65
 3806 1950 00000000 		.word	.LANCHOR28
 3807 1954 C0000000 		.word	.LC11
 3808 1958 C8000000 		.word	.LC12
 3809 195c 240A0000 		.word	.LC89
 3810 1960 A4090000 		.word	.LC79
 3811 1964 00000000 		.word	.LANCHOR8
 3812 1968 00000000 		.word	.LANCHOR7
 3813 196c 00000000 		.word	.LANCHOR15
 3814 1970 00000000 		.word	.LANCHOR12
 3815 1974 00000000 		.word	.LANCHOR13
 3816 1978 00000000 		.word	.LANCHOR14
 3817 197c 00000000 		.word	.LANCHOR9
 3818 1980 00000000 		.word	.LANCHOR17
 3819              	.LVL365:
ARM GAS  /var/folders/bw/wdbp2_bd0pn7gl5ybd33xbb80000gn/T//ccZ5cvgj.s 			page 68


 3820              	.L675:
 3821              		.loc 1 370 0 discriminator 1
 3822 1984 FFF7FEFF 		bl	isEpuckVersion1_3
 3823              	.LVL366:
 3824 1988 0028     		cmp	r0, #0
 3825 198a 3FF414A8 		beq	.L81
 3826              		.loc 1 371 0
 3827 198e B64A     		ldr	r2, .L702
 3828 1990 B649     		ldr	r1, .L702+4
 3829 1992 B748     		ldr	r0, .L702+8
 3830 1994 FFF7FEFF 		bl	getAllAxesGyro
 3831              	.LVL367:
 3832              		.loc 1 372 0
 3833 1998 B54B     		ldr	r3, .L702+8
 3834 199a D9F80020 		ldr	r2, [r9]
 3835 199e 1968     		ldr	r1, [r3]
 3836              		.loc 1 374 0
 3837 19a0 B24B     		ldr	r3, .L702+4
 3838              		.loc 1 372 0
 3839 19a2 08F80210 		strb	r1, [r8, r2]
 3840              		.loc 1 374 0
 3841 19a6 1C68     		ldr	r4, [r3]
 3842              		.loc 1 376 0
 3843 19a8 AF4B     		ldr	r3, .L702
 3844 19aa 1868     		ldr	r0, [r3]
 3845              		.loc 1 373 0
 3846 19ac 08EB0203 		add	r3, r8, r2
 3847 19b0 0912     		asrs	r1, r1, #8
 3848              		.loc 1 377 0
 3849 19b2 0632     		adds	r2, r2, #6
 3850              		.loc 1 373 0
 3851 19b4 5970     		strb	r1, [r3, #1]
 3852              		.loc 1 377 0
 3853 19b6 C9F80020 		str	r2, [r9]
 3854              		.loc 1 375 0
 3855 19ba 2112     		asrs	r1, r4, #8
 3856              		.loc 1 377 0
 3857 19bc 0212     		asrs	r2, r0, #8
 3858              		.loc 1 374 0
 3859 19be 9C70     		strb	r4, [r3, #2]
 3860              		.loc 1 375 0
 3861 19c0 D970     		strb	r1, [r3, #3]
 3862              		.loc 1 376 0
 3863 19c2 1871     		strb	r0, [r3, #4]
 3864              		.loc 1 377 0
 3865 19c4 5A71     		strb	r2, [r3, #5]
 3866 19c6 FEF7AEBD 		b	.L133
 3867              	.L676:
 3868              		.loc 1 506 0 discriminator 1
 3869 19ca FFF7FEFF 		bl	isEpuckVersion1_3
 3870              	.LVL368:
 3871 19ce 0028     		cmp	r0, #0
 3872 19d0 3FF447A8 		beq	.L117
 3873              		.loc 1 507 0
 3874 19d4 FFF7FEFF 		bl	getTemperature
 3875              	.LVL369:
 3876 19d8 D9F80030 		ldr	r3, [r9]
ARM GAS  /var/folders/bw/wdbp2_bd0pn7gl5ybd33xbb80000gn/T//ccZ5cvgj.s 			page 69


 3877 19dc 5A1C     		adds	r2, r3, #1
 3878 19de 08F80300 		strb	r0, [r8, r3]
 3879 19e2 C9F80020 		str	r2, [r9]
 3880 19e6 FEF79EBD 		b	.L133
 3881              	.L672:
 3882              		.loc 1 583 0
 3883 19ea A24A     		ldr	r2, .L702+12
 3884 19ec 1370     		strb	r3, [r2]
 3885              	.L141:
 3886              		.loc 1 584 0 discriminator 1
 3887 19ee FFF7FEFF 		bl	e_poxxxx_is_img_ready
 3888              	.LVL370:
 3889 19f2 0028     		cmp	r0, #0
 3890 19f4 FBD0     		beq	.L141
 3891              		.loc 1 585 0
 3892 19f6 119D     		ldr	r5, [sp, #68]
 3893 19f8 D9F80030 		ldr	r3, [r9]
 3894 19fc 2C68     		ldr	r4, [r5]
 3895 19fe 1B1B     		subs	r3, r3, r4
 3896 1a00 08EB0304 		add	r4, r8, r3
 3897 1a04 FFF7FEFF 		bl	dcmi_get_last_image_ptr
 3898              	.LVL371:
 3899 1a08 2A68     		ldr	r2, [r5]
 3900 1a0a 0146     		mov	r1, r0
 3901 1a0c 2046     		mov	r0, r4
 3902 1a0e FFF7FEFF 		bl	memcpy
 3903              	.LVL372:
 3904 1a12 D9F80010 		ldr	r1, [r9]
 3905 1a16 FEF79EBD 		b	.L140
 3906              	.L65:
 3907              		.loc 1 277 0
 3908 1a1a 0121     		movs	r1, #1
 3909 1a1c FEF754BD 		b	.L654
 3910              	.LVL373:
 3911              	.L154:
 3912              	.LBB5:
 3913              		.loc 1 636 0
 3914 1a20 FFF7FEFF 		bl	isEpuckVersion1_3
 3915              	.LVL374:
 3916 1a24 0028     		cmp	r0, #0
 3917 1a26 00F08B81 		beq	.L194
 3918              		.loc 1 637 0
 3919 1a2a FFF7FEFF 		bl	getBatteryValueRaw
 3920              	.LVL375:
 3921 1a2e 0446     		mov	r4, r0
 3922 1a30 FFF7FEFF 		bl	getBatteryValuePercentage
 3923              	.LVL376:
 3924 1a34 2246     		mov	r2, r4
 3925 1a36 0346     		mov	r3, r0
 3926 1a38 8F49     		ldr	r1, .L702+16
 3927 1a3a 9048     		ldr	r0, .L702+20
 3928 1a3c FFF7FEFF 		bl	sprintf
 3929              	.LVL377:
 3930              	.L195:
 3931 1a40 8E48     		ldr	r0, .L702+20
 3932 1a42 FFF7FEFF 		bl	strlen
 3933              	.LVL378:
ARM GAS  /var/folders/bw/wdbp2_bd0pn7gl5ybd33xbb80000gn/T//ccZ5cvgj.s 			page 70


 3934              		.loc 1 641 0
 3935 1a46 099B     		ldr	r3, [sp, #36]
 3936 1a48 0146     		mov	r1, r0
 3937              		.loc 1 642 0
 3938 1a4a 8C48     		ldr	r0, .L702+20
 3939              		.loc 1 641 0
 3940 1a4c 002B     		cmp	r3, #0
 3941 1a4e 00F06F81 		beq	.L196
 3942              		.loc 1 642 0
 3943 1a52 FFF7FEFF 		bl	e_send_uart1_char
 3944              	.LVL379:
 3945              	.L197:
 3946              		.loc 1 642 0 is_stmt 0 discriminator 2
 3947 1a56 FFF7FEFF 		bl	e_uart1_sending
 3948              	.LVL380:
 3949 1a5a 0028     		cmp	r0, #0
 3950 1a5c FBD1     		bne	.L197
 3951 1a5e FEF730BB 		b	.L4
 3952              	.LVL381:
 3953              	.L674:
 3954              	.LBE5:
 3955              		.loc 1 414 0 is_stmt 1
 3956 1a62 874B     		ldr	r3, .L702+24
 3957 1a64 1878     		ldrb	r0, [r3]	@ zero_extendqisi2
 3958 1a66 FFF7FEFF 		bl	e_set_front_led
 3959              	.LVL382:
 3960 1a6a FEF75CBD 		b	.L133
 3961              	.LVL383:
 3962              	.L215:
 3963              	.LBB6:
 3964              		.loc 1 704 0
 3965 1a6e 854B     		ldr	r3, .L702+28
 3966 1a70 93E80700 		ldm	r3, {r0, r1, r2}
 3967 1a74 814B     		ldr	r3, .L702+20
 3968 1a76 03C3     		stmia	r3!, {r0, r1}
 3969 1a78 1846     		mov	r0, r3
 3970              		.loc 1 709 0
 3971 1a7a 0921     		movs	r1, #9
 3972              		.loc 1 704 0
 3973 1a7c 20F80829 		strh	r2, [r0], #-8	@ movhi
 3974              		.loc 1 709 0
 3975 1a80 FFF7FEFF 		bl	e_send_uart2_char
 3976              	.LVL384:
 3977              	.L218:
 3978              		.loc 1 709 0 is_stmt 0 discriminator 2
 3979 1a84 FFF7FEFF 		bl	e_uart2_sending
 3980              	.LVL385:
 3981 1a88 0028     		cmp	r0, #0
 3982 1a8a FBD1     		bne	.L218
 3983 1a8c FEF7C6BB 		b	.L626
 3984              	.L328:
 3985              		.loc 1 1001 0 is_stmt 1
 3986 1a90 7D4B     		ldr	r3, .L702+32
 3987 1a92 93E80300 		ldm	r3, {r0, r1}
 3988 1a96 7D4B     		ldr	r3, .L702+36
 3989 1a98 C8F80000 		str	r0, [r8]
 3990 1a9c 1980     		strh	r1, [r3]	@ movhi
ARM GAS  /var/folders/bw/wdbp2_bd0pn7gl5ybd33xbb80000gn/T//ccZ5cvgj.s 			page 71


 3991              		.loc 1 1006 0
 3992 1a9e 181F     		subs	r0, r3, #4
 3993 1aa0 0521     		movs	r1, #5
 3994 1aa2 FFF7FEFF 		bl	e_send_uart2_char
 3995              	.LVL386:
 3996              	.L331:
 3997              		.loc 1 1006 0 is_stmt 0 discriminator 2
 3998 1aa6 FFF7FEFF 		bl	e_uart2_sending
 3999              	.LVL387:
 4000 1aaa 0028     		cmp	r0, #0
 4001 1aac FBD1     		bne	.L331
 4002 1aae FEF7B5BB 		b	.L626
 4003              	.L284:
 4004              		.loc 1 831 0 is_stmt 1
 4005 1ab2 FFF7FEFF 		bl	e_send_uart2_char
 4006              	.LVL388:
 4007              	.L287:
 4008              		.loc 1 831 0 is_stmt 0 discriminator 2
 4009 1ab6 FFF7FEFF 		bl	e_uart2_sending
 4010              	.LVL389:
 4011 1aba 0028     		cmp	r0, #0
 4012 1abc FBD1     		bne	.L287
 4013              		.loc 1 834 0 is_stmt 1
 4014 1abe 0121     		movs	r1, #1
 4015 1ac0 0820     		movs	r0, #8
 4016 1ac2 FFF7FEFF 		bl	e_set_led
 4017              	.LVL390:
 4018              		.loc 1 836 0
 4019 1ac6 4FF4C870 		mov	r0, #400
 4020 1aca FFF7FEFF 		bl	chThdSleep
 4021              	.LVL391:
 4022              		.loc 1 837 0
 4023 1ace FFF7FEFF 		bl	e_led_clear
 4024              	.LVL392:
 4025              		.loc 1 839 0
 4026 1ad2 6420     		movs	r0, #100
 4027 1ad4 FFF7FEFF 		bl	chThdSleep
 4028              	.LVL393:
 4029              		.loc 1 840 0
 4030 1ad8 FFF7FEFF 		bl	e_calibrate_ir
 4031              	.LVL394:
 4032              		.loc 1 844 0
 4033 1adc 1921     		movs	r1, #25
 4034 1ade 6C48     		ldr	r0, .L702+40
 4035 1ae0 FFF7FEFF 		bl	e_send_uart2_char
 4036              	.LVL395:
 4037              	.L290:
 4038              		.loc 1 844 0 is_stmt 0 discriminator 2
 4039 1ae4 FFF7FEFF 		bl	e_uart2_sending
 4040              	.LVL396:
 4041 1ae8 0028     		cmp	r0, #0
 4042 1aea FBD1     		bne	.L290
 4043 1aec FEF796BB 		b	.L626
 4044              	.LVL397:
 4045              	.L304:
 4046              		.loc 1 924 0 is_stmt 1
 4047 1af0 0998     		ldr	r0, [sp, #36]
ARM GAS  /var/folders/bw/wdbp2_bd0pn7gl5ybd33xbb80000gn/T//ccZ5cvgj.s 			page 72


 4048 1af2 FFF7FEFF 		bl	e_get_ambient_light
 4049              	.LVL398:
 4050 1af6 0F90     		str	r0, [sp, #60]
 4051 1af8 0120     		movs	r0, #1
 4052 1afa FFF7FEFF 		bl	e_get_ambient_light
 4053              	.LVL399:
 4054 1afe 0E90     		str	r0, [sp, #56]
 4055 1b00 0220     		movs	r0, #2
 4056 1b02 FFF7FEFF 		bl	e_get_ambient_light
 4057              	.LVL400:
 4058 1b06 0A90     		str	r0, [sp, #40]
 4059 1b08 0320     		movs	r0, #3
 4060 1b0a FFF7FEFF 		bl	e_get_ambient_light
 4061              	.LVL401:
 4062 1b0e 0D90     		str	r0, [sp, #52]
 4063 1b10 0420     		movs	r0, #4
 4064 1b12 FFF7FEFF 		bl	e_get_ambient_light
 4065              	.LVL402:
 4066 1b16 0B90     		str	r0, [sp, #44]
 4067 1b18 0520     		movs	r0, #5
 4068 1b1a FFF7FEFF 		bl	e_get_ambient_light
 4069              	.LVL403:
 4070 1b1e 0446     		mov	r4, r0
 4071 1b20 0620     		movs	r0, #6
 4072 1b22 FFF7FEFF 		bl	e_get_ambient_light
 4073              	.LVL404:
 4074 1b26 0546     		mov	r5, r0
 4075 1b28 0720     		movs	r0, #7
 4076 1b2a FFF7FEFF 		bl	e_get_ambient_light
 4077              	.LVL405:
 4078 1b2e 0646     		mov	r6, r0
 4079 1b30 0820     		movs	r0, #8
 4080 1b32 FFF7FEFF 		bl	e_get_ambient_light
 4081              	.LVL406:
 4082 1b36 0C90     		str	r0, [sp, #48]
 4083 1b38 0920     		movs	r0, #9
 4084 1b3a FFF7FEFF 		bl	e_get_ambient_light
 4085              	.LVL407:
 4086 1b3e 0A9B     		ldr	r3, [sp, #40]
 4087 1b40 0093     		str	r3, [sp]
 4088 1b42 0C9B     		ldr	r3, [sp, #48]
 4089 1b44 0D99     		ldr	r1, [sp, #52]
 4090 1b46 0790     		str	r0, [sp, #28]
 4091 1b48 CDE90563 		strd	r6, r3, [sp, #20]
 4092 1b4c 0B9B     		ldr	r3, [sp, #44]
 4093 1b4e 0293     		str	r3, [sp, #8]
 4094 1b50 0191     		str	r1, [sp, #4]
 4095 1b52 DDE90E32 		ldrd	r3, r2, [sp, #56]
 4096 1b56 4F49     		ldr	r1, .L702+44
 4097 1b58 4848     		ldr	r0, .L702+20
 4098 1b5a CDE90345 		strd	r4, r5, [sp, #12]
 4099 1b5e FFF7FEFF 		bl	sprintf
 4100              	.LVL408:
 4101              		.loc 1 928 0
 4102 1b62 4648     		ldr	r0, .L702+20
 4103 1b64 FFF7FEFF 		bl	strlen
 4104              	.LVL409:
ARM GAS  /var/folders/bw/wdbp2_bd0pn7gl5ybd33xbb80000gn/T//ccZ5cvgj.s 			page 73


 4105 1b68 0146     		mov	r1, r0
 4106 1b6a 4448     		ldr	r0, .L702+20
 4107 1b6c FFF7FEFF 		bl	e_send_uart2_char
 4108              	.LVL410:
 4109              	.L306:
 4110              		.loc 1 928 0 is_stmt 0 discriminator 2
 4111 1b70 FFF7FEFF 		bl	e_uart2_sending
 4112              	.LVL411:
 4113 1b74 0028     		cmp	r0, #0
 4114 1b76 FBD1     		bne	.L306
 4115 1b78 FEF750BB 		b	.L626
 4116              	.L335:
 4117              		.loc 1 1022 0 is_stmt 1
 4118 1b7c FFF7FEFF 		bl	e_send_uart2_char
 4119              	.LVL412:
 4120              	.L338:
 4121              		.loc 1 1022 0 is_stmt 0 discriminator 2
 4122 1b80 FFF7FEFF 		bl	e_uart2_sending
 4123              	.LVL413:
 4124 1b84 0028     		cmp	r0, #0
 4125 1b86 FBD1     		bne	.L338
 4126              		.loc 1 1024 0 is_stmt 1
 4127 1b88 434B     		ldr	r3, .L702+48
 4128 1b8a 4449     		ldr	r1, .L702+52
 4129 1b8c 1A68     		ldr	r2, [r3]
 4130 1b8e 3B48     		ldr	r0, .L702+20
 4131 1b90 FFF7FEFF 		bl	sprintf
 4132              	.LVL414:
 4133              		.loc 1 1028 0
 4134 1b94 3948     		ldr	r0, .L702+20
 4135 1b96 FFF7FEFF 		bl	strlen
 4136              	.LVL415:
 4137 1b9a 0146     		mov	r1, r0
 4138 1b9c 3748     		ldr	r0, .L702+20
 4139 1b9e FFF7FEFF 		bl	e_send_uart2_char
 4140              	.LVL416:
 4141              	.L341:
 4142              		.loc 1 1028 0 is_stmt 0 discriminator 2
 4143 1ba2 FFF7FEFF 		bl	e_uart2_sending
 4144              	.LVL417:
 4145 1ba6 0028     		cmp	r0, #0
 4146 1ba8 FBD1     		bne	.L341
 4147 1baa FEF737BB 		b	.L626
 4148              	.L310:
 4149              		.loc 1 946 0 is_stmt 1
 4150 1bae FFF7FEFF 		bl	strlen
 4151              	.LVL418:
 4152 1bb2 0146     		mov	r1, r0
 4153 1bb4 3148     		ldr	r0, .L702+20
 4154 1bb6 FFF7FEFF 		bl	e_send_uart2_char
 4155              	.LVL419:
 4156              	.L312:
 4157              		.loc 1 946 0 is_stmt 0 discriminator 2
 4158 1bba FFF7FEFF 		bl	e_uart2_sending
 4159              	.LVL420:
 4160 1bbe 0028     		cmp	r0, #0
 4161 1bc0 FBD1     		bne	.L312
ARM GAS  /var/folders/bw/wdbp2_bd0pn7gl5ybd33xbb80000gn/T//ccZ5cvgj.s 			page 74


 4162 1bc2 FEF72BBB 		b	.L626
 4163              	.L313:
 4164              		.loc 1 964 0 is_stmt 1
 4165 1bc6 FFF7FEFF 		bl	e_send_uart2_char
 4166              	.LVL421:
 4167              	.L315:
 4168              		.loc 1 964 0 is_stmt 0 discriminator 2
 4169 1bca FFF7FEFF 		bl	e_uart2_sending
 4170              	.LVL422:
 4171 1bce 0028     		cmp	r0, #0
 4172 1bd0 FBD1     		bne	.L315
 4173 1bd2 FEF723BB 		b	.L626
 4174              	.L205:
 4175              		.loc 1 672 0 is_stmt 1
 4176 1bd6 FFF7FEFF 		bl	e_send_uart2_char
 4177              	.LVL423:
 4178              	.L207:
 4179              		.loc 1 672 0 is_stmt 0 discriminator 2
 4180 1bda FFF7FEFF 		bl	e_uart2_sending
 4181              	.LVL424:
 4182 1bde 0028     		cmp	r0, #0
 4183 1be0 FBD1     		bne	.L207
 4184 1be2 FEF71BBB 		b	.L626
 4185              	.L208:
 4186              		.loc 1 680 0 is_stmt 1
 4187 1be6 FFF7FEFF 		bl	strlen
 4188              	.LVL425:
 4189 1bea 0146     		mov	r1, r0
 4190 1bec 2348     		ldr	r0, .L702+20
 4191 1bee FFF7FEFF 		bl	e_send_uart2_char
 4192              	.LVL426:
 4193              	.L210:
 4194              		.loc 1 680 0 is_stmt 0 discriminator 2
 4195 1bf2 FFF7FEFF 		bl	e_uart2_sending
 4196              	.LVL427:
 4197 1bf6 0028     		cmp	r0, #0
 4198 1bf8 FBD1     		bne	.L210
 4199 1bfa FEF70FBB 		b	.L626
 4200              	.L291:
 4201              		.loc 1 853 0 is_stmt 1
 4202 1bfe FFF7FEFF 		bl	e_send_uart2_char
 4203              	.LVL428:
 4204              	.L293:
 4205              		.loc 1 853 0 is_stmt 0 discriminator 2
 4206 1c02 FFF7FEFF 		bl	e_uart2_sending
 4207              	.LVL429:
 4208 1c06 0028     		cmp	r0, #0
 4209 1c08 FBD1     		bne	.L293
 4210 1c0a FEF707BB 		b	.L626
 4211              	.L307:
 4212              		.loc 1 938 0 is_stmt 1
 4213 1c0e FFF7FEFF 		bl	e_send_uart2_char
 4214              	.LVL430:
 4215              	.L309:
 4216              		.loc 1 938 0 is_stmt 0 discriminator 2
 4217 1c12 FFF7FEFF 		bl	e_uart2_sending
 4218              	.LVL431:
ARM GAS  /var/folders/bw/wdbp2_bd0pn7gl5ybd33xbb80000gn/T//ccZ5cvgj.s 			page 75


 4219 1c16 0028     		cmp	r0, #0
 4220 1c18 FBD1     		bne	.L309
 4221 1c1a FEF7FFBA 		b	.L626
 4222              	.L332:
 4223              		.loc 1 1015 0 is_stmt 1
 4224 1c1e FFF7FEFF 		bl	strlen
 4225              	.LVL432:
 4226 1c22 0146     		mov	r1, r0
 4227 1c24 1548     		ldr	r0, .L702+20
 4228 1c26 FFF7FEFF 		bl	e_send_uart2_char
 4229              	.LVL433:
 4230              	.L334:
 4231              		.loc 1 1015 0 is_stmt 0 discriminator 2
 4232 1c2a FFF7FEFF 		bl	e_uart2_sending
 4233              	.LVL434:
 4234 1c2e 0028     		cmp	r0, #0
 4235 1c30 FBD1     		bne	.L334
 4236 1c32 FEF7F3BA 		b	.L626
 4237              	.L189:
 4238              		.loc 1 623 0 is_stmt 1
 4239 1c36 FFF7FEFF 		bl	isEpuckVersion1_3
 4240              	.LVL435:
 4241 1c3a 0028     		cmp	r0, #0
 4242 1c3c 00F05281 		beq	.L191
 4243              		.loc 1 624 0
 4244 1c40 174B     		ldr	r3, .L702+56
 4245 1c42 93E80700 		ldm	r3, {r0, r1, r2}
 4246 1c46 0D4B     		ldr	r3, .L702+20
 4247 1c48 03C3     		stmia	r3!, {r0, r1}
 4248 1c4a 1A80     		strh	r2, [r3]	@ movhi
 4249              	.L192:
 4250              		.loc 1 632 0
 4251 1c4c 0B48     		ldr	r0, .L702+20
 4252 1c4e FFF7FEFF 		bl	strlen
 4253              	.LVL436:
 4254 1c52 0146     		mov	r1, r0
 4255 1c54 0948     		ldr	r0, .L702+20
 4256 1c56 FFF7FEFF 		bl	e_send_uart2_char
 4257              	.LVL437:
 4258              	.L193:
 4259              		.loc 1 632 0 is_stmt 0 discriminator 2
 4260 1c5a FFF7FEFF 		bl	e_uart2_sending
 4261              	.LVL438:
 4262 1c5e 0028     		cmp	r0, #0
 4263 1c60 FBD1     		bne	.L193
 4264 1c62 FEF7DBBA 		b	.L626
 4265              	.L703:
 4266 1c66 00BF     		.align	2
 4267              	.L702:
 4268 1c68 00000000 		.word	.LANCHOR18
 4269 1c6c 00000000 		.word	.LANCHOR19
 4270 1c70 00000000 		.word	.LANCHOR20
 4271 1c74 00000000 		.word	.LANCHOR21
 4272 1c78 78000000 		.word	.LC3
 4273 1c7c 00000000 		.word	buffer
 4274 1c80 00000000 		.word	.LANCHOR17
 4275 1c84 6C0A0000 		.word	.LC92
ARM GAS  /var/folders/bw/wdbp2_bd0pn7gl5ybd33xbb80000gn/T//ccZ5cvgj.s 			page 76


 4276 1c88 780A0000 		.word	.LC93
 4277 1c8c 04000000 		.word	buffer+4
 4278 1c90 3C0A0000 		.word	.LC90
 4279 1c94 58090000 		.word	.LC73
 4280 1c98 00000000 		.word	.LANCHOR1
 4281 1c9c 580A0000 		.word	.LC91
 4282 1ca0 6C000000 		.word	.LC2
 4283              	.L301:
 4284              		.loc 1 910 0 is_stmt 1
 4285 1ca4 0998     		ldr	r0, [sp, #36]
 4286 1ca6 FFF7FEFF 		bl	e_get_calibrated_prox
 4287              	.LVL439:
 4288 1caa 0F90     		str	r0, [sp, #60]
 4289 1cac 0120     		movs	r0, #1
 4290 1cae FFF7FEFF 		bl	e_get_calibrated_prox
 4291              	.LVL440:
 4292 1cb2 0E90     		str	r0, [sp, #56]
 4293 1cb4 0220     		movs	r0, #2
 4294 1cb6 FFF7FEFF 		bl	e_get_calibrated_prox
 4295              	.LVL441:
 4296 1cba 0A90     		str	r0, [sp, #40]
 4297 1cbc 0320     		movs	r0, #3
 4298 1cbe FFF7FEFF 		bl	e_get_calibrated_prox
 4299              	.LVL442:
 4300 1cc2 0D90     		str	r0, [sp, #52]
 4301 1cc4 0420     		movs	r0, #4
 4302 1cc6 FFF7FEFF 		bl	e_get_calibrated_prox
 4303              	.LVL443:
 4304 1cca 0B90     		str	r0, [sp, #44]
 4305 1ccc 0520     		movs	r0, #5
 4306 1cce FFF7FEFF 		bl	e_get_calibrated_prox
 4307              	.LVL444:
 4308 1cd2 0446     		mov	r4, r0
 4309 1cd4 0620     		movs	r0, #6
 4310 1cd6 FFF7FEFF 		bl	e_get_calibrated_prox
 4311              	.LVL445:
 4312 1cda 0546     		mov	r5, r0
 4313 1cdc 0720     		movs	r0, #7
 4314 1cde FFF7FEFF 		bl	e_get_calibrated_prox
 4315              	.LVL446:
 4316 1ce2 0646     		mov	r6, r0
 4317 1ce4 0820     		movs	r0, #8
 4318 1ce6 FFF7FEFF 		bl	e_get_calibrated_prox
 4319              	.LVL447:
 4320 1cea 0C90     		str	r0, [sp, #48]
 4321 1cec 0920     		movs	r0, #9
 4322 1cee FFF7FEFF 		bl	e_get_calibrated_prox
 4323              	.LVL448:
 4324 1cf2 0A9B     		ldr	r3, [sp, #40]
 4325 1cf4 0093     		str	r3, [sp]
 4326 1cf6 0C9B     		ldr	r3, [sp, #48]
 4327 1cf8 0D99     		ldr	r1, [sp, #52]
 4328 1cfa 0790     		str	r0, [sp, #28]
 4329 1cfc CDE90563 		strd	r6, r3, [sp, #20]
 4330 1d00 0B9B     		ldr	r3, [sp, #44]
 4331 1d02 0293     		str	r3, [sp, #8]
 4332 1d04 0191     		str	r1, [sp, #4]
ARM GAS  /var/folders/bw/wdbp2_bd0pn7gl5ybd33xbb80000gn/T//ccZ5cvgj.s 			page 77


 4333 1d06 DDE90E32 		ldrd	r3, r2, [sp, #56]
 4334 1d0a B349     		ldr	r1, .L704
 4335 1d0c B348     		ldr	r0, .L704+4
 4336 1d0e CDE90345 		strd	r4, r5, [sp, #12]
 4337 1d12 FFF7FEFF 		bl	sprintf
 4338              	.LVL449:
 4339              		.loc 1 914 0
 4340 1d16 B148     		ldr	r0, .L704+4
 4341 1d18 FFF7FEFF 		bl	strlen
 4342              	.LVL450:
 4343 1d1c 0146     		mov	r1, r0
 4344 1d1e AF48     		ldr	r0, .L704+4
 4345 1d20 FFF7FEFF 		bl	e_send_uart2_char
 4346              	.LVL451:
 4347              	.L303:
 4348              		.loc 1 914 0 is_stmt 0 discriminator 2
 4349 1d24 FFF7FEFF 		bl	e_uart2_sending
 4350              	.LVL452:
 4351 1d28 0028     		cmp	r0, #0
 4352 1d2a FBD1     		bne	.L303
 4353 1d2c FEF776BA 		b	.L626
 4354              	.L196:
 4355              		.loc 1 644 0 is_stmt 1
 4356 1d30 FFF7FEFF 		bl	e_send_uart2_char
 4357              	.LVL453:
 4358              	.L198:
 4359              		.loc 1 644 0 is_stmt 0 discriminator 2
 4360 1d34 FFF7FEFF 		bl	e_uart2_sending
 4361              	.LVL454:
 4362 1d38 0028     		cmp	r0, #0
 4363 1d3a FBD1     		bne	.L198
 4364 1d3c FEF76EBA 		b	.L626
 4365              	.L194:
 4366              		.loc 1 639 0 is_stmt 1
 4367 1d40 0246     		mov	r2, r0
 4368 1d42 A749     		ldr	r1, .L704+8
 4369 1d44 A548     		ldr	r0, .L704+4
 4370 1d46 FFF7FEFF 		bl	sprintf
 4371              	.LVL455:
 4372 1d4a 79E6     		b	.L195
 4373              	.L316:
 4374              		.loc 1 993 0
 4375 1d4c 0321     		movs	r1, #3
 4376 1d4e A548     		ldr	r0, .L704+12
 4377 1d50 FFF7FEFF 		bl	e_send_uart2_char
 4378              	.LVL456:
 4379              	.L327:
 4380              		.loc 1 993 0 is_stmt 0 discriminator 2
 4381 1d54 FFF7FEFF 		bl	e_uart2_sending
 4382              	.LVL457:
 4383 1d58 0028     		cmp	r0, #0
 4384 1d5a FBD1     		bne	.L327
 4385 1d5c FEF75EBA 		b	.L626
 4386              	.L348:
 4387              		.loc 1 1074 0 is_stmt 1
 4388 1d60 FFF7FEFF 		bl	e_send_uart2_char
 4389              	.LVL458:
ARM GAS  /var/folders/bw/wdbp2_bd0pn7gl5ybd33xbb80000gn/T//ccZ5cvgj.s 			page 78


 4390              	.L350:
 4391              		.loc 1 1074 0 is_stmt 0 discriminator 2
 4392 1d64 FFF7FEFF 		bl	e_uart2_sending
 4393              	.LVL459:
 4394 1d68 0028     		cmp	r0, #0
 4395 1d6a FBD1     		bne	.L350
 4396 1d6c FEF756BA 		b	.L626
 4397              	.L199:
 4398              		.loc 1 653 0 is_stmt 1
 4399 1d70 0321     		movs	r1, #3
 4400 1d72 9D48     		ldr	r0, .L704+16
 4401 1d74 FFF7FEFF 		bl	e_send_uart2_char
 4402              	.LVL460:
 4403              	.L201:
 4404              		.loc 1 653 0 is_stmt 0 discriminator 2
 4405 1d78 FFF7FEFF 		bl	e_uart2_sending
 4406              	.LVL461:
 4407 1d7c 0028     		cmp	r0, #0
 4408 1d7e FBD1     		bne	.L201
 4409 1d80 FEF74CBA 		b	.L626
 4410              	.L219:
 4411              		.loc 1 756 0 is_stmt 1
 4412 1d84 FFF7FEFF 		bl	e_send_uart2_char
 4413              	.LVL462:
 4414              	.L253:
 4415              		.loc 1 756 0 is_stmt 0 discriminator 2
 4416 1d88 FFF7FEFF 		bl	e_uart2_sending
 4417              	.LVL463:
 4418 1d8c 0028     		cmp	r0, #0
 4419 1d8e FBD1     		bne	.L253
 4420              		.loc 1 757 0 is_stmt 1
 4421 1d90 FFF7FEFF 		bl	isEpuckVersion1_3
 4422              	.LVL464:
 4423 1d94 0028     		cmp	r0, #0
 4424 1d96 00F0EE80 		beq	.L685
 4425              	.L254:
 4426              		.loc 1 760 0
 4427 1d9a FFF7FEFF 		bl	isEpuckVersion1_3
 4428              	.LVL465:
 4429 1d9e 0028     		cmp	r0, #0
 4430 1da0 00F0B580 		beq	.L256
 4431              		.loc 1 761 0
 4432 1da4 1921     		movs	r1, #25
 4433 1da6 9148     		ldr	r0, .L704+20
 4434 1da8 FFF7FEFF 		bl	e_send_uart2_char
 4435              	.LVL466:
 4436              	.L257:
 4437              		.loc 1 761 0 is_stmt 0 discriminator 2
 4438 1dac FFF7FEFF 		bl	e_uart2_sending
 4439              	.LVL467:
 4440 1db0 0028     		cmp	r0, #0
 4441 1db2 FBD1     		bne	.L257
 4442              	.L258:
 4443              		.loc 1 766 0 is_stmt 1
 4444 1db4 1D21     		movs	r1, #29
 4445 1db6 8E48     		ldr	r0, .L704+24
 4446 1db8 FFF7FEFF 		bl	e_send_uart2_char
ARM GAS  /var/folders/bw/wdbp2_bd0pn7gl5ybd33xbb80000gn/T//ccZ5cvgj.s 			page 79


 4447              	.LVL468:
 4448              	.L260:
 4449              		.loc 1 766 0 is_stmt 0 discriminator 2
 4450 1dbc FFF7FEFF 		bl	e_uart2_sending
 4451              	.LVL469:
 4452 1dc0 0028     		cmp	r0, #0
 4453 1dc2 FBD1     		bne	.L260
 4454              		.loc 1 767 0 is_stmt 1
 4455 1dc4 2621     		movs	r1, #38
 4456 1dc6 8B48     		ldr	r0, .L704+28
 4457 1dc8 FFF7FEFF 		bl	e_send_uart2_char
 4458              	.LVL470:
 4459              	.L261:
 4460              		.loc 1 767 0 is_stmt 0 discriminator 2
 4461 1dcc FFF7FEFF 		bl	e_uart2_sending
 4462              	.LVL471:
 4463 1dd0 0028     		cmp	r0, #0
 4464 1dd2 FBD1     		bne	.L261
 4465              		.loc 1 768 0 is_stmt 1
 4466 1dd4 2621     		movs	r1, #38
 4467 1dd6 8848     		ldr	r0, .L704+32
 4468 1dd8 FFF7FEFF 		bl	e_send_uart2_char
 4469              	.LVL472:
 4470              	.L262:
 4471              		.loc 1 768 0 is_stmt 0 discriminator 2
 4472 1ddc FFF7FEFF 		bl	e_uart2_sending
 4473              	.LVL473:
 4474 1de0 0028     		cmp	r0, #0
 4475 1de2 FBD1     		bne	.L262
 4476              		.loc 1 771 0 is_stmt 1
 4477 1de4 1721     		movs	r1, #23
 4478 1de6 8548     		ldr	r0, .L704+36
 4479 1de8 FFF7FEFF 		bl	e_send_uart2_char
 4480              	.LVL474:
 4481              	.L263:
 4482              		.loc 1 771 0 is_stmt 0 discriminator 2
 4483 1dec FFF7FEFF 		bl	e_uart2_sending
 4484              	.LVL475:
 4485 1df0 0028     		cmp	r0, #0
 4486 1df2 FBD1     		bne	.L263
 4487              		.loc 1 773 0 is_stmt 1
 4488 1df4 1021     		movs	r1, #16
 4489 1df6 8248     		ldr	r0, .L704+40
 4490 1df8 FFF7FEFF 		bl	e_send_uart2_char
 4491              	.LVL476:
 4492              	.L264:
 4493              		.loc 1 773 0 is_stmt 0 discriminator 2
 4494 1dfc FFF7FEFF 		bl	e_uart2_sending
 4495              	.LVL477:
 4496 1e00 0028     		cmp	r0, #0
 4497 1e02 FBD1     		bne	.L264
 4498              		.loc 1 776 0 is_stmt 1
 4499 1e04 2721     		movs	r1, #39
 4500 1e06 7F48     		ldr	r0, .L704+44
 4501 1e08 FFF7FEFF 		bl	e_send_uart2_char
 4502              	.LVL478:
 4503              	.L265:
ARM GAS  /var/folders/bw/wdbp2_bd0pn7gl5ybd33xbb80000gn/T//ccZ5cvgj.s 			page 80


 4504              		.loc 1 776 0 is_stmt 0 discriminator 2
 4505 1e0c FFF7FEFF 		bl	e_uart2_sending
 4506              	.LVL479:
 4507 1e10 0028     		cmp	r0, #0
 4508 1e12 FBD1     		bne	.L265
 4509              		.loc 1 777 0 is_stmt 1
 4510 1e14 2B21     		movs	r1, #43
 4511 1e16 7C48     		ldr	r0, .L704+48
 4512 1e18 FFF7FEFF 		bl	e_send_uart2_char
 4513              	.LVL480:
 4514              	.L266:
 4515              		.loc 1 777 0 is_stmt 0 discriminator 2
 4516 1e1c FFF7FEFF 		bl	e_uart2_sending
 4517              	.LVL481:
 4518 1e20 0028     		cmp	r0, #0
 4519 1e22 FBD1     		bne	.L266
 4520              		.loc 1 779 0 is_stmt 1
 4521 1e24 1921     		movs	r1, #25
 4522 1e26 7948     		ldr	r0, .L704+52
 4523 1e28 FFF7FEFF 		bl	e_send_uart2_char
 4524              	.LVL482:
 4525              	.L267:
 4526              		.loc 1 779 0 is_stmt 0 discriminator 2
 4527 1e2c FFF7FEFF 		bl	e_uart2_sending
 4528              	.LVL483:
 4529 1e30 0028     		cmp	r0, #0
 4530 1e32 FBD1     		bne	.L267
 4531              		.loc 1 781 0 is_stmt 1
 4532 1e34 1521     		movs	r1, #21
 4533 1e36 7648     		ldr	r0, .L704+56
 4534 1e38 FFF7FEFF 		bl	e_send_uart2_char
 4535              	.LVL484:
 4536              	.L268:
 4537              		.loc 1 781 0 is_stmt 0 discriminator 2
 4538 1e3c FFF7FEFF 		bl	e_uart2_sending
 4539              	.LVL485:
 4540 1e40 0028     		cmp	r0, #0
 4541 1e42 FBD1     		bne	.L268
 4542              		.loc 1 782 0 is_stmt 1
 4543 1e44 1921     		movs	r1, #25
 4544 1e46 7348     		ldr	r0, .L704+60
 4545 1e48 FFF7FEFF 		bl	e_send_uart2_char
 4546              	.LVL486:
 4547              	.L269:
 4548              		.loc 1 782 0 is_stmt 0 discriminator 2
 4549 1e4c FFF7FEFF 		bl	e_uart2_sending
 4550              	.LVL487:
 4551 1e50 0028     		cmp	r0, #0
 4552 1e52 FBD1     		bne	.L269
 4553              		.loc 1 783 0 is_stmt 1
 4554 1e54 2921     		movs	r1, #41
 4555 1e56 7048     		ldr	r0, .L704+64
 4556 1e58 FFF7FEFF 		bl	e_send_uart2_char
 4557              	.LVL488:
 4558              	.L270:
 4559              		.loc 1 783 0 is_stmt 0 discriminator 2
 4560 1e5c FFF7FEFF 		bl	e_uart2_sending
ARM GAS  /var/folders/bw/wdbp2_bd0pn7gl5ybd33xbb80000gn/T//ccZ5cvgj.s 			page 81


 4561              	.LVL489:
 4562 1e60 0028     		cmp	r0, #0
 4563 1e62 FBD1     		bne	.L270
 4564              		.loc 1 784 0 is_stmt 1
 4565 1e64 2921     		movs	r1, #41
 4566 1e66 6D48     		ldr	r0, .L704+68
 4567 1e68 FFF7FEFF 		bl	e_send_uart2_char
 4568              	.LVL490:
 4569              	.L271:
 4570              		.loc 1 784 0 is_stmt 0 discriminator 2
 4571 1e6c FFF7FEFF 		bl	e_uart2_sending
 4572              	.LVL491:
 4573 1e70 0028     		cmp	r0, #0
 4574 1e72 FBD1     		bne	.L271
 4575              		.loc 1 785 0 is_stmt 1
 4576 1e74 1821     		movs	r1, #24
 4577 1e76 6A48     		ldr	r0, .L704+72
 4578 1e78 FFF7FEFF 		bl	e_send_uart2_char
 4579              	.LVL492:
 4580              	.L272:
 4581              		.loc 1 785 0 is_stmt 0 discriminator 2
 4582 1e7c FFF7FEFF 		bl	e_uart2_sending
 4583              	.LVL493:
 4584 1e80 0028     		cmp	r0, #0
 4585 1e82 FBD1     		bne	.L272
 4586              		.loc 1 786 0 is_stmt 1
 4587 1e84 2921     		movs	r1, #41
 4588 1e86 6748     		ldr	r0, .L704+76
 4589 1e88 FFF7FEFF 		bl	e_send_uart2_char
 4590              	.LVL494:
 4591              	.L273:
 4592              		.loc 1 786 0 is_stmt 0 discriminator 2
 4593 1e8c FFF7FEFF 		bl	e_uart2_sending
 4594              	.LVL495:
 4595 1e90 0028     		cmp	r0, #0
 4596 1e92 FBD1     		bne	.L273
 4597              		.loc 1 788 0 is_stmt 1
 4598 1e94 2421     		movs	r1, #36
 4599 1e96 6448     		ldr	r0, .L704+80
 4600 1e98 FFF7FEFF 		bl	e_send_uart2_char
 4601              	.LVL496:
 4602              	.L274:
 4603              		.loc 1 788 0 is_stmt 0 discriminator 2
 4604 1e9c FFF7FEFF 		bl	e_uart2_sending
 4605              	.LVL497:
 4606 1ea0 0028     		cmp	r0, #0
 4607 1ea2 FBD1     		bne	.L274
 4608              		.loc 1 789 0 is_stmt 1
 4609 1ea4 1D21     		movs	r1, #29
 4610 1ea6 6148     		ldr	r0, .L704+84
 4611 1ea8 FFF7FEFF 		bl	e_send_uart2_char
 4612              	.LVL498:
 4613              	.L275:
 4614              		.loc 1 789 0 is_stmt 0 discriminator 2
 4615 1eac FFF7FEFF 		bl	e_uart2_sending
 4616              	.LVL499:
 4617 1eb0 0028     		cmp	r0, #0
ARM GAS  /var/folders/bw/wdbp2_bd0pn7gl5ybd33xbb80000gn/T//ccZ5cvgj.s 			page 82


 4618 1eb2 FBD1     		bne	.L275
 4619 1eb4 FEF7B2B9 		b	.L626
 4620              	.L202:
 4621              		.loc 1 662 0 is_stmt 1
 4622 1eb8 FFF7FEFF 		bl	strlen
 4623              	.LVL500:
 4624 1ebc 0146     		mov	r1, r0
 4625 1ebe 4748     		ldr	r0, .L704+4
 4626 1ec0 FFF7FEFF 		bl	e_send_uart2_char
 4627              	.LVL501:
 4628              	.L204:
 4629              		.loc 1 662 0 is_stmt 0 discriminator 2
 4630 1ec4 FFF7FEFF 		bl	e_uart2_sending
 4631              	.LVL502:
 4632 1ec8 0028     		cmp	r0, #0
 4633 1eca FBD1     		bne	.L204
 4634 1ecc FEF7A6B9 		b	.L626
 4635              	.L211:
 4636              		.loc 1 689 0 is_stmt 1
 4637 1ed0 0321     		movs	r1, #3
 4638 1ed2 5748     		ldr	r0, .L704+88
 4639 1ed4 FFF7FEFF 		bl	e_send_uart2_char
 4640              	.LVL503:
 4641              	.L213:
 4642              		.loc 1 689 0 is_stmt 0 discriminator 2
 4643 1ed8 FFF7FEFF 		bl	e_uart2_sending
 4644              	.LVL504:
 4645 1edc 0028     		cmp	r0, #0
 4646 1ede FBD1     		bne	.L213
 4647 1ee0 FEF79CB9 		b	.L626
 4648              	.L191:
 4649              		.loc 1 626 0 is_stmt 1
 4650 1ee4 0121     		movs	r1, #1
 4651 1ee6 FFF7FEFF 		bl	e_get_acc_filtered
 4652              	.LVL505:
 4653 1eea 0121     		movs	r1, #1
 4654 1eec 0446     		mov	r4, r0
 4655 1eee 0846     		mov	r0, r1
 4656 1ef0 FFF7FEFF 		bl	e_get_acc_filtered
 4657              	.LVL506:
 4658 1ef4 0121     		movs	r1, #1
 4659 1ef6 0546     		mov	r5, r0
 4660 1ef8 0220     		movs	r0, #2
 4661 1efa FFF7FEFF 		bl	e_get_acc_filtered
 4662              	.LVL507:
 4663 1efe 2B46     		mov	r3, r5
 4664 1f00 0090     		str	r0, [sp]
 4665 1f02 2246     		mov	r2, r4
 4666 1f04 4B49     		ldr	r1, .L704+92
 4667 1f06 3548     		ldr	r0, .L704+4
 4668 1f08 FFF7FEFF 		bl	sprintf
 4669              	.LVL508:
 4670 1f0c 9EE6     		b	.L192
 4671              	.L256:
 4672              		.loc 1 763 0
 4673 1f0e 2721     		movs	r1, #39
 4674 1f10 4948     		ldr	r0, .L704+96
ARM GAS  /var/folders/bw/wdbp2_bd0pn7gl5ybd33xbb80000gn/T//ccZ5cvgj.s 			page 83


 4675 1f12 FFF7FEFF 		bl	e_send_uart2_char
 4676              	.LVL509:
 4677              	.L259:
 4678              		.loc 1 763 0 is_stmt 0 discriminator 2
 4679 1f16 FFF7FEFF 		bl	e_uart2_sending
 4680              	.LVL510:
 4681 1f1a 0028     		cmp	r0, #0
 4682 1f1c FBD1     		bne	.L259
 4683 1f1e 49E7     		b	.L258
 4684              	.L223:
 4685              		.loc 1 721 0 is_stmt 1
 4686 1f20 2F21     		movs	r1, #47
 4687 1f22 4648     		ldr	r0, .L704+100
 4688 1f24 FFF7FEFF 		bl	e_send_uart1_char
 4689              	.LVL511:
 4690              	.L226:
 4691              		.loc 1 721 0 is_stmt 0 discriminator 2
 4692 1f28 FFF7FEFF 		bl	e_uart1_sending
 4693              	.LVL512:
 4694 1f2c 0028     		cmp	r0, #0
 4695 1f2e FBD1     		bne	.L226
 4696 1f30 FFF793BA 		b	.L225
 4697              	.L682:
 4698              		.loc 1 971 0 is_stmt 1
 4699 1f34 FFF7FEFF 		bl	e_init_sound
 4700              	.LVL513:
 4701              		.loc 1 972 0
 4702 1f38 414A     		ldr	r2, .L704+104
 4703 1f3a 0123     		movs	r3, #1
 4704 1f3c 1370     		strb	r3, [r2]
 4705 1f3e FEF7BCBF 		b	.L317
 4706              	.L667:
 4707              		.loc 1 702 0
 4708 1f42 FFF7FEFF 		bl	getXAxisGyro
 4709              	.LVL514:
 4710 1f46 0446     		mov	r4, r0
 4711 1f48 FFF7FEFF 		bl	getYAxisGyro
 4712              	.LVL515:
 4713 1f4c 0546     		mov	r5, r0
 4714 1f4e FFF7FEFF 		bl	getZAxisGyro
 4715              	.LVL516:
 4716 1f52 2B46     		mov	r3, r5
 4717 1f54 0090     		str	r0, [sp]
 4718 1f56 2246     		mov	r2, r4
 4719 1f58 3A49     		ldr	r1, .L704+108
 4720 1f5a 2048     		ldr	r0, .L704+4
 4721 1f5c FFF7FEFF 		bl	sprintf
 4722              	.LVL517:
 4723 1f60 FEF74DB9 		b	.L353
 4724              	.L681:
 4725              		.loc 1 999 0
 4726 1f64 FFF7FEFF 		bl	getTemperature
 4727              	.LVL518:
 4728 1f68 3749     		ldr	r1, .L704+112
 4729 1f6a 0246     		mov	r2, r0
 4730 1f6c 1B48     		ldr	r0, .L704+4
 4731 1f6e FFF7FEFF 		bl	sprintf
ARM GAS  /var/folders/bw/wdbp2_bd0pn7gl5ybd33xbb80000gn/T//ccZ5cvgj.s 			page 84


 4732              	.LVL519:
 4733 1f72 FEF79FBE 		b	.L354
 4734              	.L685:
 4735              		.loc 1 758 0
 4736 1f76 1921     		movs	r1, #25
 4737 1f78 3448     		ldr	r0, .L704+116
 4738 1f7a FFF7FEFF 		bl	e_send_uart2_char
 4739              	.LVL520:
 4740              	.L255:
 4741              		.loc 1 758 0 is_stmt 0 discriminator 2
 4742 1f7e FFF7FEFF 		bl	e_uart2_sending
 4743              	.LVL521:
 4744 1f82 0028     		cmp	r0, #0
 4745 1f84 FBD1     		bne	.L255
 4746 1f86 08E7     		b	.L254
 4747              	.L277:
 4748              		.loc 1 808 0 is_stmt 1
 4749 1f88 129B     		ldr	r3, [sp, #72]
 4750 1f8a 1A68     		ldr	r2, [r3]
 4751 1f8c 139B     		ldr	r3, [sp, #76]
 4752 1f8e 1B68     		ldr	r3, [r3]
 4753 1f90 03FB02F3 		mul	r3, r3, r2
 4754 1f94 119A     		ldr	r2, [sp, #68]
 4755 1f96 5B00     		lsls	r3, r3, #1
 4756 1f98 1360     		str	r3, [r2]
 4757 1f9a FFF786BB 		b	.L278
 4758              	.L684:
 4759              		.loc 1 749 0
 4760 1f9e 1F21     		movs	r1, #31
 4761 1fa0 2B48     		ldr	r0, .L704+120
 4762 1fa2 FFF7FEFF 		bl	e_send_uart1_char
 4763              	.LVL522:
 4764              	.L248:
 4765              		.loc 1 749 0 is_stmt 0 discriminator 2
 4766 1fa6 FFF7FEFF 		bl	e_uart1_sending
 4767              	.LVL523:
 4768 1faa 0028     		cmp	r0, #0
 4769 1fac FBD1     		bne	.L248
 4770 1fae FFF7EEBA 		b	.L247
 4771              	.L683:
 4772              		.loc 1 731 0 is_stmt 1
 4773 1fb2 1821     		movs	r1, #24
 4774 1fb4 2748     		ldr	r0, .L704+124
 4775 1fb6 FFF7FEFF 		bl	e_send_uart1_char
 4776              	.LVL524:
 4777              	.L233:
 4778              		.loc 1 731 0 is_stmt 0 discriminator 2
 4779 1fba FFF7FEFF 		bl	e_uart1_sending
 4780              	.LVL525:
 4781 1fbe 0028     		cmp	r0, #0
 4782 1fc0 FBD1     		bne	.L233
 4783 1fc2 FFF777BA 		b	.L232
 4784              	.L318:
 4785              		.loc 1 986 0 is_stmt 1
 4786 1fc6 FFF7FEFF 		bl	e_close_sound
 4787              	.LVL526:
 4788              		.loc 1 987 0
ARM GAS  /var/folders/bw/wdbp2_bd0pn7gl5ybd33xbb80000gn/T//ccZ5cvgj.s 			page 85


 4789 1fca FFF7FEFF 		bl	stopCurrentMelody
 4790              	.LVL527:
 4791              		.loc 1 988 0
 4792 1fce 1C4A     		ldr	r2, .L704+104
 4793 1fd0 0023     		movs	r3, #0
 4794 1fd2 1370     		strb	r3, [r2]
 4795              		.loc 1 989 0
 4796 1fd4 FFF7D9BB 		b	.L325
 4797              	.L705:
 4798              		.align	2
 4799              	.L704:
 4800 1fd8 18090000 		.word	.LC71
 4801 1fdc 00000000 		.word	buffer
 4802 1fe0 88000000 		.word	.LC4
 4803 1fe4 A4090000 		.word	.LC79
 4804 1fe8 98000000 		.word	.LC6
 4805 1fec FC050000 		.word	.LC45
 4806 1ff0 40060000 		.word	.LC47
 4807 1ff4 60060000 		.word	.LC48
 4808 1ff8 88060000 		.word	.LC49
 4809 1ffc B0060000 		.word	.LC50
 4810 2000 C8060000 		.word	.LC51
 4811 2004 DC060000 		.word	.LC52
 4812 2008 04070000 		.word	.LC53
 4813 200c 30070000 		.word	.LC54
 4814 2010 4C070000 		.word	.LC55
 4815 2014 64070000 		.word	.LC56
 4816 2018 80070000 		.word	.LC57
 4817 201c AC070000 		.word	.LC58
 4818 2020 D8070000 		.word	.LC59
 4819 2024 F4070000 		.word	.LC60
 4820 2028 20080000 		.word	.LC61
 4821 202c 48080000 		.word	.LC62
 4822 2030 C8000000 		.word	.LC12
 4823 2034 5C000000 		.word	.LC1
 4824 2038 18060000 		.word	.LC46
 4825 203c 90010000 		.word	.LC19
 4826 2040 00000000 		.word	.LANCHOR9
 4827 2044 00010000 		.word	.LC14
 4828 2048 A8090000 		.word	.LC80
 4829 204c E0050000 		.word	.LC44
 4830 2050 10050000 		.word	.LC39
 4831 2054 9C020000 		.word	.LC25
 4832              	.LBE6:
 4833              		.cfi_endproc
 4834              	.LFE259:
 4835              		.size	run_asercom, .-run_asercom
 4836              		.global	e_ambient_and_reflected_ir
 4837              		.global	e_ambient_ir
 4838              		.global	c
 4839              		.global	selector
 4840              		.global	buffer
 4841              		.section	.bss.LED_action.13175,"aw",%nobits
 4842              		.align	2
 4843              		.set	.LANCHOR28,. + 0
 4844              		.type	LED_action.13175, %object
 4845              		.size	LED_action.13175, 4
ARM GAS  /var/folders/bw/wdbp2_bd0pn7gl5ybd33xbb80000gn/T//ccZ5cvgj.s 			page 86


 4846              	LED_action.13175:
 4847 0000 00000000 		.space	4
 4848              		.section	.bss.LED_nbr.13174,"aw",%nobits
 4849              		.align	2
 4850              		.set	.LANCHOR31,. + 0
 4851              		.type	LED_nbr.13174, %object
 4852              		.size	LED_nbr.13174, 4
 4853              	LED_nbr.13174:
 4854 0000 00000000 		.space	4
 4855              		.section	.bss.accelero.13198,"aw",%nobits
 4856              		.align	2
 4857              		.set	.LANCHOR15,. + 0
 4858              		.type	accelero.13198, %object
 4859              		.size	accelero.13198, 12
 4860              	accelero.13198:
 4861 0000 00000000 		.space	12
 4861      00000000 
 4861      00000000 
 4862              		.section	.bss.accx.13176,"aw",%nobits
 4863              		.align	2
 4864              		.set	.LANCHOR12,. + 0
 4865              		.type	accx.13176, %object
 4866              		.size	accx.13176, 4
 4867              	accx.13176:
 4868 0000 00000000 		.space	4
 4869              		.section	.bss.accy.13177,"aw",%nobits
 4870              		.align	2
 4871              		.set	.LANCHOR13,. + 0
 4872              		.type	accy.13177, %object
 4873              		.size	accy.13177, 4
 4874              	accy.13177:
 4875 0000 00000000 		.space	4
 4876              		.section	.bss.accz.13178,"aw",%nobits
 4877              		.align	2
 4878              		.set	.LANCHOR14,. + 0
 4879              		.type	accz.13178, %object
 4880              		.size	accz.13178, 4
 4881              	accz.13178:
 4882 0000 00000000 		.space	4
 4883              		.section	.bss.buffer,"aw",%nobits
 4884              		.align	2
 4885              		.type	buffer, %object
 4886              		.size	buffer, 4139
 4887              	buffer:
 4888 0000 00000000 		.space	4139
 4888      00000000 
 4888      00000000 
 4888      00000000 
 4888      00000000 
 4889              		.section	.bss.c,"aw",%nobits
 4890              		.set	.LANCHOR10,. + 0
 4891              		.type	c, %object
 4892              		.size	c, 1
 4893              	c:
 4894 0000 00       		.space	1
 4895              		.section	.bss.c1.13164,"aw",%nobits
 4896              		.set	.LANCHOR16,. + 0
ARM GAS  /var/folders/bw/wdbp2_bd0pn7gl5ybd33xbb80000gn/T//ccZ5cvgj.s 			page 87


 4897              		.type	c1.13164, %object
 4898              		.size	c1.13164, 1
 4899              	c1.13164:
 4900 0000 00       		.space	1
 4901              		.section	.bss.c2.13165,"aw",%nobits
 4902              		.set	.LANCHOR17,. + 0
 4903              		.type	c2.13165, %object
 4904              		.size	c2.13165, 1
 4905              	c2.13165:
 4906 0000 00       		.space	1
 4907              		.section	.bss.cam_heigth.13185,"aw",%nobits
 4908              		.align	2
 4909              		.set	.LANCHOR4,. + 0
 4910              		.type	cam_heigth.13185, %object
 4911              		.size	cam_heigth.13185, 4
 4912              	cam_heigth.13185:
 4913 0000 00000000 		.space	4
 4914              		.section	.bss.cam_mode.13183,"aw",%nobits
 4915              		.align	2
 4916              		.set	.LANCHOR2,. + 0
 4917              		.type	cam_mode.13183, %object
 4918              		.size	cam_mode.13183, 4
 4919              	cam_mode.13183:
 4920 0000 00000000 		.space	4
 4921              		.section	.bss.cam_size.13187,"aw",%nobits
 4922              		.align	2
 4923              		.set	.LANCHOR6,. + 0
 4924              		.type	cam_size.13187, %object
 4925              		.size	cam_size.13187, 4
 4926              	cam_size.13187:
 4927 0000 00000000 		.space	4
 4928              		.section	.bss.cam_width.13184,"aw",%nobits
 4929              		.align	2
 4930              		.set	.LANCHOR3,. + 0
 4931              		.type	cam_width.13184, %object
 4932              		.size	cam_width.13184, 4
 4933              	cam_width.13184:
 4934 0000 00000000 		.space	4
 4935              		.section	.bss.cam_x1.13188,"aw",%nobits
 4936              		.align	2
 4937              		.set	.LANCHOR29,. + 0
 4938              		.type	cam_x1.13188, %object
 4939              		.size	cam_x1.13188, 4
 4940              	cam_x1.13188:
 4941 0000 00000000 		.space	4
 4942              		.section	.bss.cam_y1.13189,"aw",%nobits
 4943              		.align	2
 4944              		.set	.LANCHOR30,. + 0
 4945              		.type	cam_y1.13189, %object
 4946              		.size	cam_y1.13189, 4
 4947              	cam_y1.13189:
 4948 0000 00000000 		.space	4
 4949              		.section	.bss.cam_zoom.13186,"aw",%nobits
 4950              		.align	2
 4951              		.set	.LANCHOR5,. + 0
 4952              		.type	cam_zoom.13186, %object
 4953              		.size	cam_zoom.13186, 4
ARM GAS  /var/folders/bw/wdbp2_bd0pn7gl5ybd33xbb80000gn/T//ccZ5cvgj.s 			page 88


 4954              	cam_zoom.13186:
 4955 0000 00000000 		.space	4
 4956              		.section	.bss.e_ambient_and_reflected_ir,"aw",%nobits
 4957              		.align	2
 4958              		.type	e_ambient_and_reflected_ir, %object
 4959              		.size	e_ambient_and_reflected_ir, 40
 4960              	e_ambient_and_reflected_ir:
 4961 0000 00000000 		.space	40
 4961      00000000 
 4961      00000000 
 4961      00000000 
 4961      00000000 
 4962              		.section	.bss.e_ambient_ir,"aw",%nobits
 4963              		.align	2
 4964              		.type	e_ambient_ir, %object
 4965              		.size	e_ambient_ir, 40
 4966              	e_ambient_ir:
 4967 0000 00000000 		.space	40
 4967      00000000 
 4967      00000000 
 4967      00000000 
 4967      00000000 
 4968              		.section	.bss.first.13190,"aw",%nobits
 4969              		.set	.LANCHOR9,. + 0
 4970              		.type	first.13190, %object
 4971              		.size	first.13190, 1
 4972              	first.13190:
 4973 0000 00       		.space	1
 4974              		.section	.bss.gyrox.13180,"aw",%nobits
 4975              		.align	2
 4976              		.set	.LANCHOR20,. + 0
 4977              		.type	gyrox.13180, %object
 4978              		.size	gyrox.13180, 4
 4979              	gyrox.13180:
 4980 0000 00000000 		.space	4
 4981              		.section	.bss.gyroy.13181,"aw",%nobits
 4982              		.align	2
 4983              		.set	.LANCHOR19,. + 0
 4984              		.type	gyroy.13181, %object
 4985              		.size	gyroy.13181, 4
 4986              	gyroy.13181:
 4987 0000 00000000 		.space	4
 4988              		.section	.bss.gyroz.13182,"aw",%nobits
 4989              		.align	2
 4990              		.set	.LANCHOR18,. + 0
 4991              		.type	gyroz.13182, %object
 4992              		.size	gyroz.13182, 4
 4993              	gyroz.13182:
 4994 0000 00000000 		.space	4
 4995              		.section	.bss.i.13167,"aw",%nobits
 4996              		.align	2
 4997              		.set	.LANCHOR11,. + 0
 4998              		.type	i.13167, %object
 4999              		.size	i.13167, 4
 5000              	i.13167:
 5001 0000 00000000 		.space	4
 5002              		.section	.bss.j.13168,"aw",%nobits
ARM GAS  /var/folders/bw/wdbp2_bd0pn7gl5ybd33xbb80000gn/T//ccZ5cvgj.s 			page 89


 5003              		.align	2
 5004              		.set	.LANCHOR22,. + 0
 5005              		.type	j.13168, %object
 5006              		.size	j.13168, 4
 5007              	j.13168:
 5008 0000 00000000 		.space	4
 5009              		.section	.bss.mod.13192,"aw",%nobits
 5010              		.align	2
 5011              		.set	.LANCHOR25,. + 0
 5012              		.type	mod.13192, %object
 5013              		.size	mod.13192, 4
 5014              	mod.13192:
 5015 0000 00000000 		.space	4
 5016              		.section	.bss.positionl.13173,"aw",%nobits
 5017              		.align	2
 5018              		.set	.LANCHOR24,. + 0
 5019              		.type	positionl.13173, %object
 5020              		.size	positionl.13173, 4
 5021              	positionl.13173:
 5022 0000 00000000 		.space	4
 5023              		.section	.bss.positionr.13172,"aw",%nobits
 5024              		.align	2
 5025              		.set	.LANCHOR23,. + 0
 5026              		.type	positionr.13172, %object
 5027              		.size	positionr.13172, 4
 5028              	positionr.13172:
 5029 0000 00000000 		.space	4
 5030              		.section	.bss.reg.13193,"aw",%nobits
 5031              		.align	2
 5032              		.set	.LANCHOR26,. + 0
 5033              		.type	reg.13193, %object
 5034              		.size	reg.13193, 4
 5035              	reg.13193:
 5036 0000 00000000 		.space	4
 5037              		.section	.bss.selector,"aw",%nobits
 5038              		.align	2
 5039              		.set	.LANCHOR0,. + 0
 5040              		.type	selector, %object
 5041              		.size	selector, 4
 5042              	selector:
 5043 0000 00000000 		.space	4
 5044              		.section	.bss.sound.13179,"aw",%nobits
 5045              		.align	2
 5046              		.set	.LANCHOR32,. + 0
 5047              		.type	sound.13179, %object
 5048              		.size	sound.13179, 4
 5049              	sound.13179:
 5050 0000 00000000 		.space	4
 5051              		.section	.bss.speedl.13171,"aw",%nobits
 5052              		.align	2
 5053              		.set	.LANCHOR8,. + 0
 5054              		.type	speedl.13171, %object
 5055              		.size	speedl.13171, 4
 5056              	speedl.13171:
 5057 0000 00000000 		.space	4
 5058              		.section	.bss.speedr.13170,"aw",%nobits
 5059              		.align	2
ARM GAS  /var/folders/bw/wdbp2_bd0pn7gl5ybd33xbb80000gn/T//ccZ5cvgj.s 			page 90


 5060              		.set	.LANCHOR7,. + 0
 5061              		.type	speedr.13170, %object
 5062              		.size	speedr.13170, 4
 5063              	speedr.13170:
 5064 0000 00000000 		.space	4
 5065              		.section	.bss.val.13194,"aw",%nobits
 5066              		.align	2
 5067              		.set	.LANCHOR27,. + 0
 5068              		.type	val.13194, %object
 5069              		.size	val.13194, 4
 5070              	val.13194:
 5071 0000 00000000 		.space	4
 5072              		.section	.bss.wait_cam.13166,"aw",%nobits
 5073              		.set	.LANCHOR21,. + 0
 5074              		.type	wait_cam.13166, %object
 5075              		.size	wait_cam.13166, 1
 5076              	wait_cam.13166:
 5077 0000 00       		.space	1
 5078              		.section	.data.HWversion.13201,"aw",%progbits
 5079              		.align	2
 5080              		.set	.LANCHOR1,. + 0
 5081              		.type	HWversion.13201, %object
 5082              		.size	HWversion.13201, 4
 5083              	HWversion.13201:
 5084 0000 FFFF0000 		.word	65535
 5085              		.section	.rodata.run_asercom.str1.4,"aMS",%progbits,1
 5086              		.align	2
 5087              	.LC0:
 5088 0000 0C075745 		.ascii	"\014\007WELCOME to the SerCom protocol on e-Puck\015"
 5088      4C434F4D 
 5088      4520746F 
 5088      20746865 
 5088      20536572 
 5089 002b 0A746865 		.ascii	"\012the EPFL education robot type \"H\" for help\015"
 5089      20455046 
 5089      4C206564 
 5089      75636174 
 5089      696F6E20 
 5090 0057 0A00     		.ascii	"\012\000"
 5091 0059 000000   		.space	3
 5092              	.LC1:
 5093 005c 612C2564 		.ascii	"a,%d,%d,%d\015\012\000"
 5093      2C25642C 
 5093      25640D0A 
 5093      00
 5094 0069 000000   		.space	3
 5095              	.LC2:
 5096 006c 612C302C 		.ascii	"a,0,0,0\015\012\000"
 5096      302C300D 
 5096      0A00
 5097 0076 0000     		.space	2
 5098              	.LC3:
 5099 0078 622C2564 		.ascii	"b,%d (%d%%)\015\012\000"
 5099      20282564 
 5099      2525290D 
 5099      0A00
 5100 0086 0000     		.space	2
ARM GAS  /var/folders/bw/wdbp2_bd0pn7gl5ybd33xbb80000gn/T//ccZ5cvgj.s 			page 91


 5101              	.LC4:
 5102 0088 622C2564 		.ascii	"b,%d\015\012\000"
 5102      0D0A00
 5103 008f 00       		.space	1
 5104              	.LC5:
 5105 0090 422C2564 		.ascii	"B,%d\015\000"
 5105      0D00
 5106 0096 0000     		.space	2
 5107              	.LC6:
 5108 0098 620D0A00 		.ascii	"b\015\012\000"
 5109              	.LC7:
 5110 009c 632C2564 		.ascii	"c,%d\015\012\000"
 5110      0D0A00
 5111 00a3 00       		.space	1
 5112              	.LC8:
 5113 00a4 442C2564 		.ascii	"D,%d,%d\015\000"
 5113      2C25640D 
 5113      00
 5114 00ad 000000   		.space	3
 5115              	.LC9:
 5116 00b0 640D0A00 		.ascii	"d\015\012\000"
 5117              	.LC10:
 5118 00b4 652C2564 		.ascii	"e,%d,%d\015\012\000"
 5118      2C25640D 
 5118      0A00
 5119 00be 0000     		.space	2
 5120              	.LC11:
 5121 00c0 462C2564 		.ascii	"F,%d\015\000"
 5121      0D00
 5122 00c6 0000     		.space	2
 5123              	.LC12:
 5124 00c8 660D0A00 		.ascii	"f\015\012\000"
 5125              	.LC13:
 5126 00cc 67204952 		.ascii	"g IR check : 0x%x, address : 0x%x, data : 0x%x\015\012"
 5126      20636865 
 5126      636B203A 
 5126      20307825 
 5126      782C2061 
 5127 00fc 00       		.ascii	"\000"
 5128 00fd 000000   		.space	3
 5129              	.LC14:
 5130 0100 672C2564 		.ascii	"g,%d,%d,%d\015\012\000"
 5130      2C25642C 
 5130      25640D0A 
 5130      00
 5131 010d 000000   		.space	3
 5132              	.LC15:
 5133 0110 0A00     		.ascii	"\012\000"
 5134 0112 0000     		.space	2
 5135              	.LC16:
 5136 0114 22412220 		.ascii	"\"A\"               Accelerometer\015\012\000"
 5136      20202020 
 5136      20202020 
 5136      20202020 
 5136      20204163 
 5137 0136 0000     		.space	2
 5138              	.LC17:
ARM GAS  /var/folders/bw/wdbp2_bd0pn7gl5ybd33xbb80000gn/T//ccZ5cvgj.s 			page 92


 5139 0138 22422C23 		.ascii	"\"B,#\"             Body led 0=off 1=on 2=inverse\015"
 5139      22202020 
 5139      20202020 
 5139      20202020 
 5139      2020426F 
 5140 0168 0A00     		.ascii	"\012\000"
 5141 016a 0000     		.space	2
 5142              	.LC18:
 5143 016c 22622220 		.ascii	"\"b\"               Battery value\015\012\000"
 5143      20202020 
 5143      20202020 
 5143      20202020 
 5143      20204261 
 5144 018e 0000     		.space	2
 5145              	.LC19:
 5146 0190 22622220 		.ascii	"\"b\"               Battery state (1=ok, 0=low)\015"
 5146      20202020 
 5146      20202020 
 5146      20202020 
 5146      20204261 
 5147 01be 0A00     		.ascii	"\012\000"
 5148              	.LC20:
 5149 01c0 22432220 		.ascii	"\"C\"               Selector position\015\012\000"
 5149      20202020 
 5149      20202020 
 5149      20202020 
 5149      20205365 
 5150 01e6 0000     		.space	2
 5151              	.LC21:
 5152 01e8 22442C23 		.ascii	"\"D,#,#\"           Set motor speed left,right\015\012"
 5152      2C232220 
 5152      20202020 
 5152      20202020 
 5152      20205365 
 5153 0216 00       		.ascii	"\000"
 5154 0217 00       		.space	1
 5155              	.LC22:
 5156 0218 22452220 		.ascii	"\"E\"               Get motor speed left,right\015\012"
 5156      20202020 
 5156      20202020 
 5156      20202020 
 5156      20204765 
 5157 0246 00       		.ascii	"\000"
 5158 0247 00       		.space	1
 5159              	.LC23:
 5160 0248 22462C23 		.ascii	"\"F,#\"             Front led 0=off 1=on 2=inverse\015"
 5160      22202020 
 5160      20202020 
 5160      20202020 
 5160      20204672 
 5161 0279 0A00     		.ascii	"\012\000"
 5162 027b 00       		.space	1
 5163              	.LC24:
 5164 027c 22472220 		.ascii	"\"G\"               IR receiver\015\012\000"
 5164      20202020 
 5164      20202020 
 5164      20202020 
ARM GAS  /var/folders/bw/wdbp2_bd0pn7gl5ybd33xbb80000gn/T//ccZ5cvgj.s 			page 93


 5164      20204952 
 5165              	.LC25:
 5166 029c 22672220 		.ascii	"\"g\"               Gyro\015\012\000"
 5166      20202020 
 5166      20202020 
 5166      20202020 
 5166      20204779 
 5167 02b5 000000   		.space	3
 5168              	.LC26:
 5169 02b8 22482220 		.ascii	"\"H\"               Help\015\012\000"
 5169      20202020 
 5169      20202020 
 5169      20202020 
 5169      20204865 
 5170 02d1 000000   		.space	3
 5171              	.LC27:
 5172 02d4 22492220 		.ascii	"\"I\"               Get camera parameter\015\012\000"
 5172      20202020 
 5172      20202020 
 5172      20202020 
 5172      20204765 
 5173 02fd 000000   		.space	3
 5174              	.LC28:
 5175 0300 224A2C23 		.ascii	"\"J,#,#,#,#,#,#\"   Set camera parameter mode,width"
 5175      2C232C23 
 5175      2C232C23 
 5175      2C232220 
 5175      20205365 
 5176 0331 2C686569 		.ascii	",heigth,zoom(1,4 or 8),x1,y1\015\012\000"
 5176      6774682C 
 5176      7A6F6F6D 
 5176      28312C34 
 5176      206F7220 
 5177              	.LC29:
 5178 0350 224B2220 		.ascii	"\"K\"               Calibrate proximity sensors\015"
 5178      20202020 
 5178      20202020 
 5178      20202020 
 5178      20204361 
 5179 037e 0A00     		.ascii	"\012\000"
 5180              	.LC30:
 5181 0380 224C2C23 		.ascii	"\"L,#,#\"           Led number,0=off 1=on 2=inverse"
 5181      2C232220 
 5181      20202020 
 5181      20202020 
 5181      20204C65 
 5182 03b1 0D0A00   		.ascii	"\015\012\000"
 5183              	.LC31:
 5184 03b4 224D2220 		.ascii	"\"M\"               Floor sensors\015\012\000"
 5184      20202020 
 5184      20202020 
 5184      20202020 
 5184      2020466C 
 5185 03d6 0000     		.space	2
 5186              	.LC32:
 5187 03d8 224E2220 		.ascii	"\"N\"               Proximity\015\012\000"
 5187      20202020 
ARM GAS  /var/folders/bw/wdbp2_bd0pn7gl5ybd33xbb80000gn/T//ccZ5cvgj.s 			page 94


 5187      20202020 
 5187      20202020 
 5187      20205072 
 5188 03f6 0000     		.space	2
 5189              	.LC33:
 5190 03f8 224F2220 		.ascii	"\"O\"               Light sensors\015\012\000"
 5190      20202020 
 5190      20202020 
 5190      20202020 
 5190      20204C69 
 5191 041a 0000     		.space	2
 5192              	.LC34:
 5193 041c 22502C23 		.ascii	"\"P,#,#\"           Set motor position left,right\015"
 5193      2C232220 
 5193      20202020 
 5193      20202020 
 5193      20205365 
 5194 044c 0A00     		.ascii	"\012\000"
 5195 044e 0000     		.space	2
 5196              	.LC35:
 5197 0450 22512220 		.ascii	"\"Q\"               Get motor position left,right\015"
 5197      20202020 
 5197      20202020 
 5197      20202020 
 5197      20204765 
 5198 0480 0A00     		.ascii	"\012\000"
 5199 0482 0000     		.space	2
 5200              	.LC36:
 5201 0484 22522220 		.ascii	"\"R\"               Reset e-puck\015\012\000"
 5201      20202020 
 5201      20202020 
 5201      20202020 
 5201      20205265 
 5202 04a5 000000   		.space	3
 5203              	.LC37:
 5204 04a8 22532220 		.ascii	"\"S\"               Stop e-puck and turn off leds\015"
 5204      20202020 
 5204      20202020 
 5204      20202020 
 5204      20205374 
 5205 04d8 0A00     		.ascii	"\012\000"
 5206 04da 0000     		.space	2
 5207              	.LC38:
 5208 04dc 22542C23 		.ascii	"\"T,#\"             Play sound 1-5 else stop sound\015"
 5208      22202020 
 5208      20202020 
 5208      20202020 
 5208      2020506C 
 5209 050d 0A00     		.ascii	"\012\000"
 5210 050f 00       		.space	1
 5211              	.LC39:
 5212 0510 22742220 		.ascii	"\"t\"               Temperature\015\012\000"
 5212      20202020 
 5212      20202020 
 5212      20202020 
 5212      20205465 
 5213              	.LC40:
ARM GAS  /var/folders/bw/wdbp2_bd0pn7gl5ybd33xbb80000gn/T//ccZ5cvgj.s 			page 95


 5214 0530 22552220 		.ascii	"\"U\"               Get microphone amplitude\015\012"
 5214      20202020 
 5214      20202020 
 5214      20202020 
 5214      20204765 
 5215 055c 00       		.ascii	"\000"
 5216 055d 000000   		.space	3
 5217              	.LC41:
 5218 0560 22562220 		.ascii	"\"V\"               Version of SerCom\015\012\000"
 5218      20202020 
 5218      20202020 
 5218      20202020 
 5218      20205665 
 5219 0586 0000     		.space	2
 5220              	.LC42:
 5221 0588 22572220 		.ascii	"\"W\"               Write I2C (mod,reg,val)\015\012"
 5221      20202020 
 5221      20202020 
 5221      20202020 
 5221      20205772 
 5222 05b3 00       		.ascii	"\000"
 5223              	.LC43:
 5224 05b4 22592220 		.ascii	"\"Y\"               Read I2C val=(mod,reg)\015\012\000"
 5224      20202020 
 5224      20202020 
 5224      20202020 
 5224      20205265 
 5225 05df 00       		.space	1
 5226              	.LC44:
 5227 05e0 22412220 		.ascii	"\"A\"       Accelerometer\015\012\000"
 5227      20202020 
 5227      20204163 
 5227      63656C65 
 5227      726F6D65 
 5228 05fa 0000     		.space	2
 5229              	.LC45:
 5230 05fc 22622220 		.ascii	"\"b\"       Battery value\015\012\000"
 5230      20202020 
 5230      20204261 
 5230      74746572 
 5230      79207661 
 5231 0616 0000     		.space	2
 5232              	.LC46:
 5233 0618 22622220 		.ascii	"\"b\"       Battery state (1=ok, 0=low)\015\012\000"
 5233      20202020 
 5233      20204261 
 5233      74746572 
 5233      79207374 
 5234              	.LC47:
 5235 0640 22432220 		.ascii	"\"C\"       Selector position\015\012\000"
 5235      20202020 
 5235      20205365 
 5235      6C656374 
 5235      6F722070 
 5236 065e 0000     		.space	2
 5237              	.LC48:
 5238 0660 22442C23 		.ascii	"\"D,#,#\"   Set motor speed left,right\015\012\000"
ARM GAS  /var/folders/bw/wdbp2_bd0pn7gl5ybd33xbb80000gn/T//ccZ5cvgj.s 			page 96


 5238      2C232220 
 5238      20205365 
 5238      74206D6F 
 5238      746F7220 
 5239 0687 00       		.space	1
 5240              	.LC49:
 5241 0688 22452220 		.ascii	"\"E\"       Get motor speed left,right\015\012\000"
 5241      20202020 
 5241      20204765 
 5241      74206D6F 
 5241      746F7220 
 5242 06af 00       		.space	1
 5243              	.LC50:
 5244 06b0 22472220 		.ascii	"\"G\"       IR receiver\015\012\000"
 5244      20202020 
 5244      20204952 
 5244      20726563 
 5244      65697665 
 5245              	.LC51:
 5246 06c8 22482220 		.ascii	"\"H\"       Help\015\012\000"
 5246      20202020 
 5246      20204865 
 5246      6C700D0A 
 5246      00
 5247 06d9 000000   		.space	3
 5248              	.LC52:
 5249 06dc 224B2220 		.ascii	"\"K\"       Calibrate proximity sensors\015\012\000"
 5249      20202020 
 5249      20204361 
 5249      6C696272 
 5249      61746520 
 5250              	.LC53:
 5251 0704 224C2C23 		.ascii	"\"L,#,#\"   Led number,0=off 1=on 2=inverse\015\012"
 5251      2C232220 
 5251      20204C65 
 5251      64206E75 
 5251      6D626572 
 5252 072f 00       		.ascii	"\000"
 5253              	.LC54:
 5254 0730 224D2220 		.ascii	"\"M\"       Floor sensors\015\012\000"
 5254      20202020 
 5254      2020466C 
 5254      6F6F7220 
 5254      73656E73 
 5255 074a 0000     		.space	2
 5256              	.LC55:
 5257 074c 224E2220 		.ascii	"\"N\"       Proximity\015\012\000"
 5257      20202020 
 5257      20205072 
 5257      6F78696D 
 5257      6974790D 
 5258 0762 0000     		.space	2
 5259              	.LC56:
 5260 0764 224F2220 		.ascii	"\"O\"       Light sensors\015\012\000"
 5260      20202020 
 5260      20204C69 
 5260      67687420 
ARM GAS  /var/folders/bw/wdbp2_bd0pn7gl5ybd33xbb80000gn/T//ccZ5cvgj.s 			page 97


 5260      73656E73 
 5261 077e 0000     		.space	2
 5262              	.LC57:
 5263 0780 22502C23 		.ascii	"\"P,#,#\"   Set motor position left,right\015\012\000"
 5263      2C232220 
 5263      20205365 
 5263      74206D6F 
 5263      746F7220 
 5264 07aa 0000     		.space	2
 5265              	.LC58:
 5266 07ac 22512220 		.ascii	"\"Q\"       Get motor position left,right\015\012\000"
 5266      20202020 
 5266      20204765 
 5266      74206D6F 
 5266      746F7220 
 5267 07d6 0000     		.space	2
 5268              	.LC59:
 5269 07d8 22522220 		.ascii	"\"R\"       Reset e-puck\015\012\000"
 5269      20202020 
 5269      20205265 
 5269      73657420 
 5269      652D7075 
 5270 07f1 000000   		.space	3
 5271              	.LC60:
 5272 07f4 22532220 		.ascii	"\"S\"       Stop e-puck and turn off leds\015\012\000"
 5272      20202020 
 5272      20205374 
 5272      6F702065 
 5272      2D707563 
 5273 081e 0000     		.space	2
 5274              	.LC61:
 5275 0820 22552220 		.ascii	"\"U\"       Get microphone amplitude\015\012\000"
 5275      20202020 
 5275      20204765 
 5275      74206D69 
 5275      63726F70 
 5276 0845 000000   		.space	3
 5277              	.LC62:
 5278 0848 22562220 		.ascii	"\"V\"       Version of SerCom\015\012\000"
 5278      20202020 
 5278      20205665 
 5278      7273696F 
 5278      6E206F66 
 5279 0866 0000     		.space	2
 5280              	.LC63:
 5281 0868 692C2564 		.ascii	"i,%d,%d,%d,%d,%d\015\012\000"
 5281      2C25642C 
 5281      25642C25 
 5281      642C2564 
 5281      0D0A00
 5282 087b 00       		.space	1
 5283              	.LC64:
 5284 087c 4A2C2564 		.ascii	"J,%d,%d,%d,%d,%d,%d\015\000"
 5284      2C25642C 
 5284      25642C25 
 5284      642C2564 
 5284      2C25640D 
ARM GAS  /var/folders/bw/wdbp2_bd0pn7gl5ybd33xbb80000gn/T//ccZ5cvgj.s 			page 98


 5285 0891 000000   		.space	3
 5286              	.LC65:
 5287 0894 6A0D0A00 		.ascii	"j\015\012\000"
 5288              	.LC66:
 5289 0898 6B2C2053 		.ascii	"k, Starting calibration - Remove any object in sens"
 5289      74617274 
 5289      696E6720 
 5289      63616C69 
 5289      62726174 
 5290 08cb 6F727320 		.ascii	"ors range\015\012\000"
 5290      72616E67 
 5290      650D0A00 
 5291 08d7 00       		.space	1
 5292              	.LC67:
 5293 08d8 4C2C2564 		.ascii	"L,%d,%d\015\000"
 5293      2C25640D 
 5293      00
 5294 08e1 000000   		.space	3
 5295              	.LC68:
 5296 08e4 6C0D0A00 		.ascii	"l\015\012\000"
 5297              	.LC69:
 5298 08e8 6D2C2564 		.ascii	"m,%d,%d,%d,%d,%d\015\012\000"
 5298      2C25642C 
 5298      25642C25 
 5298      642C2564 
 5298      0D0A00
 5299 08fb 00       		.space	1
 5300              	.LC70:
 5301 08fc 6E2C2564 		.ascii	"n,%d,%d,%d,%d,%d,%d,%d,%d\015\012\000"
 5301      2C25642C 
 5301      25642C25 
 5301      642C2564 
 5301      2C25642C 
 5302              	.LC71:
 5303 0918 6E2C2564 		.ascii	"n,%d,%d,%d,%d,%d,%d,%d,%d,%d,%d\015\012\000"
 5303      2C25642C 
 5303      25642C25 
 5303      642C2564 
 5303      2C25642C 
 5304 093a 0000     		.space	2
 5305              	.LC72:
 5306 093c 6F2C2564 		.ascii	"o,%d,%d,%d,%d,%d,%d,%d,%d\015\012\000"
 5306      2C25642C 
 5306      25642C25 
 5306      642C2564 
 5306      2C25642C 
 5307              	.LC73:
 5308 0958 6F2C2564 		.ascii	"o,%d,%d,%d,%d,%d,%d,%d,%d,%d,%d\015\012\000"
 5308      2C25642C 
 5308      25642C25 
 5308      642C2564 
 5308      2C25642C 
 5309 097a 0000     		.space	2
 5310              	.LC74:
 5311 097c 502C2564 		.ascii	"P,%d,%d\015\000"
 5311      2C25640D 
 5311      00
ARM GAS  /var/folders/bw/wdbp2_bd0pn7gl5ybd33xbb80000gn/T//ccZ5cvgj.s 			page 99


 5312 0985 000000   		.space	3
 5313              	.LC75:
 5314 0988 700D0A00 		.ascii	"p\015\012\000"
 5315              	.LC76:
 5316 098c 712C2564 		.ascii	"q,%d,%d\015\012\000"
 5316      2C25640D 
 5316      0A00
 5317 0996 0000     		.space	2
 5318              	.LC77:
 5319 0998 730D0A00 		.ascii	"s\015\012\000"
 5320              	.LC78:
 5321 099c 542C2564 		.ascii	"T,%d\000"
 5321      00
 5322 09a1 000000   		.space	3
 5323              	.LC79:
 5324 09a4 740D0A00 		.ascii	"t\015\012\000"
 5325              	.LC80:
 5326 09a8 742C2564 		.ascii	"t,%d\015\012\000"
 5326      0D0A00
 5327 09af 00       		.space	1
 5328              	.LC81:
 5329 09b0 752C2564 		.ascii	"u,%d,%d,%d\015\012\000"
 5329      2C25642C 
 5329      25640D0A 
 5329      00
 5330 09bd 000000   		.space	3
 5331              	.LC82:
 5332 09c0 762C5665 		.ascii	"v,Version 1.2.2 August 2008 GCtronic\015\012\000"
 5332      7273696F 
 5332      6E20312E 
 5332      322E3220 
 5332      41756775 
 5333 09e7 00       		.space	1
 5334              	.LC83:
 5335 09e8 572C2564 		.ascii	"W,%d,%d,%d\015\000"
 5335      2C25642C 
 5335      25640D00 
 5336              	.LC84:
 5337 09f4 770D0A00 		.ascii	"w\015\012\000"
 5338              	.LC85:
 5339 09f8 592C2564 		.ascii	"Y,%d,%d\015\000"
 5339      2C25640D 
 5339      00
 5340 0a01 000000   		.space	3
 5341              	.LC86:
 5342 0a04 792C2564 		.ascii	"y,%d,%d\015\012\000"
 5342      2C25640D 
 5342      0A00
 5343 0a0e 0000     		.space	2
 5344              	.LC87:
 5345 0a10 792C2564 		.ascii	"y,%d\015\012\000"
 5345      0D0A00
 5346 0a17 00       		.space	1
 5347              	.LC88:
 5348 0a18 25643A20 		.ascii	"%d: %d\015\012\000"
 5348      25640D0A 
 5348      00
ARM GAS  /var/folders/bw/wdbp2_bd0pn7gl5ybd33xbb80000gn/T//ccZ5cvgj.s 			page 100


 5349 0a21 000000   		.space	3
 5350              	.LC89:
 5351 0a24 7A2C436F 		.ascii	"z,Command not found\015\012\000"
 5351      6D6D616E 
 5351      64206E6F 
 5351      7420666F 
 5351      756E640D 
 5352 0a3a 0000     		.space	2
 5353              	.LC90:
 5354 0a3c 6B2C2043 		.ascii	"k, Calibration finished\015\012\000"
 5354      616C6962 
 5354      72617469 
 5354      6F6E2066 
 5354      696E6973 
 5355 0a56 0000     		.space	2
 5356              	.LC91:
 5357 0a58 48572076 		.ascii	"HW version: %X\015\012\000"
 5357      65727369 
 5357      6F6E3A20 
 5357      25580D0A 
 5357      00
 5358 0a69 000000   		.space	3
 5359              	.LC92:
 5360 0a6c 672C302C 		.ascii	"g,0,0,0\015\012\000"
 5360      302C300D 
 5360      0A00
 5361 0a76 0000     		.space	2
 5362              	.LC93:
 5363 0a78 742C300D 		.ascii	"t,0\015\012\000"
 5363      0A00
 5364              		.text
 5365              	.Letext0:
 5366              		.file 2 "/Applications/Eclipse_e-puck2.app/Contents/Eclipse_e-puck2/Tools/gcc-arm-none-eabi-7-2017
 5367              		.file 3 "/Applications/Eclipse_e-puck2.app/Contents/Eclipse_e-puck2/Tools/gcc-arm-none-eabi-7-2017
 5368              		.file 4 "/Applications/Eclipse_e-puck2.app/Contents/Eclipse_e-puck2/Tools/gcc-arm-none-eabi-7-2017
 5369              		.file 5 "../../lib/e-puck2_main-processor/ChibiOS//os/rt/ports/ARMCMx/compilers/GCC/chtypes.h"
 5370              		.file 6 "../../lib/e-puck2_main-processor/ChibiOS//os/rt/include/chsystypes.h"
 5371              		.file 7 "../../lib/e-puck2_main-processor/ChibiOS//os/rt/include/chschd.h"
 5372              		.file 8 "../../lib/e-puck2_main-processor/ChibiOS//os/ext/CMSIS/include/core_cm4.h"
 5373              		.file 9 "../../lib/e-puck2_main-processor/ChibiOS//os/ext/CMSIS/ST/system_stm32f4xx.h"
 5374              		.file 10 "../../lib/e-puck2_main-processor/ChibiOS//os/ext/CMSIS/ST/stm32f407xx.h"
 5375              		.file 11 "../../lib/e-puck2_main-processor/ChibiOS//os/rt/ports/ARMCMx/chcore.h"
 5376              		.file 12 "../../lib/e-puck2_main-processor/ChibiOS//os/rt/ports/ARMCMx/chcore_v7m.h"
 5377              		.file 13 "../../lib/e-puck2_main-processor/ChibiOS//os/rt/include/chdebug.h"
 5378              		.file 14 "../../lib/e-puck2_main-processor/ChibiOS//os/rt/include/chtm.h"
 5379              		.file 15 "../../lib/e-puck2_main-processor/ChibiOS//os/rt/include/chstats.h"
 5380              		.file 16 "../../lib/e-puck2_main-processor/ChibiOS//os/rt/include/chsem.h"
 5381              		.file 17 "../../lib/e-puck2_main-processor/ChibiOS//os/rt/include/chmtx.h"
 5382              		.file 18 "../../lib/e-puck2_main-processor/ChibiOS//os/rt/include/chregistry.h"
 5383              		.file 19 "../../lib/e-puck2_main-processor/ChibiOS//os/rt/include/chevents.h"
 5384              		.file 20 "../../lib/e-puck2_main-processor/ChibiOS//os/rt/include/chqueues.h"
 5385              		.file 21 "../../lib/e-puck2_main-processor/ChibiOS//os/hal/ports/STM32/STM32F4xx/stm32_dma.h"
 5386              		.file 22 "../../lib/e-puck2_main-processor/ChibiOS//os/hal/include/hal_ioblock.h"
 5387              		.file 23 "../../lib/e-puck2_main-processor/ChibiOS//os/hal/ports/STM32/LLD/GPIOv2/pal_lld.h"
 5388              		.file 24 "../../lib/e-puck2_main-processor/ChibiOS//os/hal/include/adc.h"
 5389              		.file 25 "../../lib/e-puck2_main-processor/ChibiOS//os/hal/ports/STM32/STM32F4xx/adc_lld.h"
 5390              		.file 26 "../../lib/e-puck2_main-processor/ChibiOS//os/hal/include/can.h"
ARM GAS  /var/folders/bw/wdbp2_bd0pn7gl5ybd33xbb80000gn/T//ccZ5cvgj.s 			page 101


 5391              		.file 27 "../../lib/e-puck2_main-processor/ChibiOS//os/hal/ports/STM32/LLD/can_lld.h"
 5392              		.file 28 "../../lib/e-puck2_main-processor/ChibiOS//os/hal/include/dac.h"
 5393              		.file 29 "../../lib/e-puck2_main-processor/ChibiOS//os/hal/ports/STM32/LLD/DACv1/dac_lld.h"
 5394              		.file 30 "../../lib/e-puck2_main-processor/ChibiOS//os/hal/include/ext.h"
 5395              		.file 31 "../../lib/e-puck2_main-processor/ChibiOS//os/hal/ports/STM32/LLD/ext_lld.h"
 5396              		.file 32 "../../lib/e-puck2_main-processor/ChibiOS//os/hal/include/gpt.h"
 5397              		.file 33 "../../lib/e-puck2_main-processor/ChibiOS//os/hal/ports/STM32/LLD/TIMv1/gpt_lld.h"
 5398              		.file 34 "../../lib/e-puck2_main-processor/ChibiOS//os/hal/ports/STM32/LLD/TIMv1/stm32_tim.h"
 5399              		.file 35 "../../lib/e-puck2_main-processor/ChibiOS//os/hal/include/i2c.h"
 5400              		.file 36 "../../lib/e-puck2_main-processor/ChibiOS//os/hal/ports/STM32/LLD/I2Cv1/i2c_lld.h"
 5401              		.file 37 "../../lib/e-puck2_main-processor/ChibiOS//os/hal/include/i2s.h"
 5402              		.file 38 "../../lib/e-puck2_main-processor/ChibiOS//os/hal/ports/STM32/LLD/SPIv1/i2s_lld.h"
 5403              		.file 39 "../../lib/e-puck2_main-processor/ChibiOS//os/hal/include/pwm.h"
 5404              		.file 40 "../../lib/e-puck2_main-processor/ChibiOS//os/hal/ports/STM32/LLD/TIMv1/pwm_lld.h"
 5405              		.file 41 "../../lib/e-puck2_main-processor/ChibiOS//os/hal/include/serial.h"
 5406              		.file 42 "../../lib/e-puck2_main-processor/ChibiOS//os/hal/ports/STM32/LLD/USARTv1/serial_lld.h"
 5407              		.file 43 "../../lib/e-puck2_main-processor/ChibiOS//os/hal/include/sdc.h"
 5408              		.file 44 "../../lib/e-puck2_main-processor/ChibiOS//os/hal/ports/STM32/LLD/sdc_lld.h"
 5409              		.file 45 "../../lib/e-puck2_main-processor/ChibiOS//os/hal/include/spi.h"
 5410              		.file 46 "../../lib/e-puck2_main-processor/ChibiOS//os/hal/ports/STM32/LLD/SPIv1/spi_lld.h"
 5411              		.file 47 "../../lib/e-puck2_main-processor/ChibiOS//os/hal/include/usb.h"
 5412              		.file 48 "../../lib/e-puck2_main-processor/ChibiOS//os/hal/ports/STM32/LLD/OTGv1/usb_lld.h"
 5413              		.file 49 "../../lib/e-puck2_main-processor/ChibiOS//os/hal/ports/STM32/LLD/OTGv1/stm32_otg.h"
 5414              		.file 50 "../../lib/e-puck2_main-processor/ChibiOS_ext/os/hal/include/../ports/STM32/STM32F4xx/dcm
 5415              		.file 51 "/Applications/Eclipse_e-puck2.app/Contents/Eclipse_e-puck2/Tools/gcc-arm-none-eabi-7-201
 5416              		.file 52 "/Applications/Eclipse_e-puck2.app/Contents/Eclipse_e-puck2/Tools/gcc-arm-none-eabi-7-201
 5417              		.file 53 "/Applications/Eclipse_e-puck2.app/Contents/Eclipse_e-puck2/Tools/gcc-arm-none-eabi-7-201
 5418              		.file 54 "../../lib/e-puck2_main-processor/src/msgbus/messagebus.h"
 5419              		.file 55 "/Applications/Eclipse_e-puck2.app/Contents/Eclipse_e-puck2/Tools/gcc-arm-none-eabi-7-201
 5420              		.file 56 "/Applications/Eclipse_e-puck2.app/Contents/Eclipse_e-puck2/Tools/gcc-arm-none-eabi-7-201
 5421              		.file 57 "../../lib/e-puck2_main-processor/src/parameter/parameter.h"
 5422              		.file 58 "/Applications/Eclipse_e-puck2.app/Contents/Eclipse_e-puck2/Tools/gcc-arm-none-eabi-7-201
 5423              		.file 59 "./main.h"
 5424              		.file 60 "../../lib/e-puck2_main-processor/src/audio/play_melody.h"
 5425              		.file 61 "/Applications/Eclipse_e-puck2.app/Contents/Eclipse_e-puck2/Tools/gcc-arm-none-eabi-7-201
 5426              		.file 62 "../../lib/e-puck2_main-processor/src/epuck1x/a_d/advance_ad_scan/e_acc.h"
 5427              		.file 63 "../../lib/e-puck2_main-processor/src/epuck1x/motor_led/e_init_port.h"
 5428              		.file 64 "/Applications/Eclipse_e-puck2.app/Contents/Eclipse_e-puck2/Tools/gcc-arm-none-eabi-7-201
 5429              		.file 65 "../../lib/e-puck2_main-processor/src/epuck1x/uart/e_uart_char.h"
 5430              		.file 66 "../../lib/e-puck2_main-processor/src/epuck1x/I2C/e_I2C_protocol.h"
 5431              		.file 67 "/Applications/Eclipse_e-puck2.app/Contents/Eclipse_e-puck2/Tools/gcc-arm-none-eabi-7-201
 5432              		.file 68 "../../lib/e-puck2_main-processor/src/epuck1x/motor_led/advance_one_timer/e_motors.h"
 5433              		.file 69 "../../lib/e-puck2_main-processor/src/epuck1x/a_d/advance_ad_scan/e_prox.h"
 5434              		.file 70 "../../lib/e-puck2_main-processor/src/epuck1x/a_d/advance_ad_scan/e_micro.h"
 5435              		.file 71 "../../lib/e-puck2_main-processor/src/epuck1x/motor_led/advance_one_timer/e_led.h"
 5436              		.file 72 "../../lib/e-puck2_main-processor/ChibiOS//os/rt/include/chthreads.h"
 5437              		.file 73 "../../lib/e-puck2_main-processor/src/epuck1x/motor_led/advance_one_timer/e_remote_contro
 5438              		.file 74 "../../lib/e-puck2_main-processor/src/epuck1x/camera/fast_2_timer/e_poxxxx.h"
 5439              		.file 75 "../../lib/e-puck2_main-processor/src/epuck1x/codec/e_sound.h"
 5440              		.file 76 "../../lib/e-puck2_main-processor/src/epuck1x/utility/utility.h"
 5441              		.file 77 "../../lib/e-puck2_main-processor/src/epuck1x/acc_gyro/e_lsm330.h"
 5442              		.file 78 "../../lib/e-puck2_main-processor/src/epuck1x/DataEEPROM.h"
 5443              		.file 79 "../../lib/e-puck2_main-processor/src/camera/dcmi_camera.h"
 5444              		.file 80 "<built-in>"
 5445              		.section	.debug_info,"",%progbits
 5446              	.Ldebug_info0:
 5447 0000 E46B0000 		.4byte	0x6be4
ARM GAS  /var/folders/bw/wdbp2_bd0pn7gl5ybd33xbb80000gn/T//ccZ5cvgj.s 			page 102


 5448 0004 0400     		.2byte	0x4
 5449 0006 00000000 		.4byte	.Ldebug_abbrev0
 5450 000a 04       		.byte	0x4
 5451 000b 01       		.uleb128 0x1
 5452 000c B5100000 		.4byte	.LASF1015
 5453 0010 0C       		.byte	0xc
 5454 0011 CB210000 		.4byte	.LASF1016
 5455 0015 46180000 		.4byte	.LASF1017
 5456 0019 28000000 		.4byte	.Ldebug_ranges0+0x28
 5457 001d 00000000 		.4byte	0
 5458 0021 00000000 		.4byte	.Ldebug_line0
 5459 0025 02       		.uleb128 0x2
 5460 0026 CF280000 		.4byte	.LASF0
 5461 002a 02       		.byte	0x2
 5462 002b 29       		.byte	0x29
 5463 002c 30000000 		.4byte	0x30
 5464 0030 03       		.uleb128 0x3
 5465 0031 01       		.byte	0x1
 5466 0032 06       		.byte	0x6
 5467 0033 5D170000 		.4byte	.LASF2
 5468 0037 02       		.uleb128 0x2
 5469 0038 2B010000 		.4byte	.LASF1
 5470 003c 02       		.byte	0x2
 5471 003d 2B       		.byte	0x2b
 5472 003e 42000000 		.4byte	0x42
 5473 0042 03       		.uleb128 0x3
 5474 0043 01       		.byte	0x1
 5475 0044 08       		.byte	0x8
 5476 0045 500A0000 		.4byte	.LASF3
 5477 0049 02       		.uleb128 0x2
 5478 004a 8F080000 		.4byte	.LASF4
 5479 004e 02       		.byte	0x2
 5480 004f 37       		.byte	0x37
 5481 0050 54000000 		.4byte	0x54
 5482 0054 03       		.uleb128 0x3
 5483 0055 02       		.byte	0x2
 5484 0056 05       		.byte	0x5
 5485 0057 BD290000 		.4byte	.LASF5
 5486 005b 02       		.uleb128 0x2
 5487 005c 99080000 		.4byte	.LASF6
 5488 0060 02       		.byte	0x2
 5489 0061 39       		.byte	0x39
 5490 0062 66000000 		.4byte	0x66
 5491 0066 03       		.uleb128 0x3
 5492 0067 02       		.byte	0x2
 5493 0068 07       		.byte	0x7
 5494 0069 42170000 		.4byte	.LASF7
 5495 006d 02       		.uleb128 0x2
 5496 006e 1C220000 		.4byte	.LASF8
 5497 0072 02       		.byte	0x2
 5498 0073 4D       		.byte	0x4d
 5499 0074 78000000 		.4byte	0x78
 5500 0078 03       		.uleb128 0x3
 5501 0079 04       		.byte	0x4
 5502 007a 05       		.byte	0x5
 5503 007b B41A0000 		.4byte	.LASF9
 5504 007f 02       		.uleb128 0x2
ARM GAS  /var/folders/bw/wdbp2_bd0pn7gl5ybd33xbb80000gn/T//ccZ5cvgj.s 			page 103


 5505 0080 36220000 		.4byte	.LASF10
 5506 0084 02       		.byte	0x2
 5507 0085 4F       		.byte	0x4f
 5508 0086 8A000000 		.4byte	0x8a
 5509 008a 03       		.uleb128 0x3
 5510 008b 04       		.byte	0x4
 5511 008c 07       		.byte	0x7
 5512 008d 741C0000 		.4byte	.LASF11
 5513 0091 03       		.uleb128 0x3
 5514 0092 08       		.byte	0x8
 5515 0093 05       		.byte	0x5
 5516 0094 D3260000 		.4byte	.LASF12
 5517 0098 02       		.uleb128 0x2
 5518 0099 05130000 		.4byte	.LASF13
 5519 009d 02       		.byte	0x2
 5520 009e 69       		.byte	0x69
 5521 009f A3000000 		.4byte	0xa3
 5522 00a3 03       		.uleb128 0x3
 5523 00a4 08       		.byte	0x8
 5524 00a5 07       		.byte	0x7
 5525 00a6 7B240000 		.4byte	.LASF14
 5526 00aa 04       		.uleb128 0x4
 5527 00ab 04       		.byte	0x4
 5528 00ac 05       		.byte	0x5
 5529 00ad 696E7400 		.ascii	"int\000"
 5530 00b1 03       		.uleb128 0x3
 5531 00b2 04       		.byte	0x4
 5532 00b3 07       		.byte	0x7
 5533 00b4 45290000 		.4byte	.LASF15
 5534 00b8 02       		.uleb128 0x2
 5535 00b9 07160000 		.4byte	.LASF16
 5536 00bd 03       		.byte	0x3
 5537 00be 14       		.byte	0x14
 5538 00bf 25000000 		.4byte	0x25
 5539 00c3 02       		.uleb128 0x2
 5540 00c4 9A0E0000 		.4byte	.LASF17
 5541 00c8 03       		.byte	0x3
 5542 00c9 18       		.byte	0x18
 5543 00ca 37000000 		.4byte	0x37
 5544 00ce 05       		.uleb128 0x5
 5545 00cf C3000000 		.4byte	0xc3
 5546 00d3 02       		.uleb128 0x2
 5547 00d4 25170000 		.4byte	.LASF18
 5548 00d8 03       		.byte	0x3
 5549 00d9 20       		.byte	0x20
 5550 00da 49000000 		.4byte	0x49
 5551 00de 02       		.uleb128 0x2
 5552 00df 81020000 		.4byte	.LASF19
 5553 00e3 03       		.byte	0x3
 5554 00e4 24       		.byte	0x24
 5555 00e5 5B000000 		.4byte	0x5b
 5556 00e9 02       		.uleb128 0x2
 5557 00ea 64040000 		.4byte	.LASF20
 5558 00ee 03       		.byte	0x3
 5559 00ef 2C       		.byte	0x2c
 5560 00f0 6D000000 		.4byte	0x6d
 5561 00f4 06       		.uleb128 0x6
ARM GAS  /var/folders/bw/wdbp2_bd0pn7gl5ybd33xbb80000gn/T//ccZ5cvgj.s 			page 104


 5562 00f5 E9000000 		.4byte	0xe9
 5563 00f9 02       		.uleb128 0x2
 5564 00fa E51B0000 		.4byte	.LASF21
 5565 00fe 03       		.byte	0x3
 5566 00ff 30       		.byte	0x30
 5567 0100 7F000000 		.4byte	0x7f
 5568 0104 06       		.uleb128 0x6
 5569 0105 F9000000 		.4byte	0xf9
 5570 0109 05       		.uleb128 0x5
 5571 010a 04010000 		.4byte	0x104
 5572 010e 02       		.uleb128 0x2
 5573 010f CB0B0000 		.4byte	.LASF22
 5574 0113 03       		.byte	0x3
 5575 0114 3C       		.byte	0x3c
 5576 0115 98000000 		.4byte	0x98
 5577 0119 02       		.uleb128 0x2
 5578 011a 5E0E0000 		.4byte	.LASF23
 5579 011e 04       		.byte	0x4
 5580 011f D8       		.byte	0xd8
 5581 0120 B1000000 		.4byte	0xb1
 5582 0124 03       		.uleb128 0x3
 5583 0125 08       		.byte	0x8
 5584 0126 04       		.byte	0x4
 5585 0127 291C0000 		.4byte	.LASF24
 5586 012b 02       		.uleb128 0x2
 5587 012c DF0D0000 		.4byte	.LASF25
 5588 0130 05       		.byte	0x5
 5589 0131 45       		.byte	0x45
 5590 0132 F9000000 		.4byte	0xf9
 5591 0136 02       		.uleb128 0x2
 5592 0137 B0060000 		.4byte	.LASF26
 5593 013b 05       		.byte	0x5
 5594 013c 46       		.byte	0x46
 5595 013d 0E010000 		.4byte	0x10e
 5596 0141 02       		.uleb128 0x2
 5597 0142 D2140000 		.4byte	.LASF27
 5598 0146 05       		.byte	0x5
 5599 0147 48       		.byte	0x48
 5600 0148 C3000000 		.4byte	0xc3
 5601 014c 02       		.uleb128 0x2
 5602 014d 74250000 		.4byte	.LASF28
 5603 0151 05       		.byte	0x5
 5604 0152 49       		.byte	0x49
 5605 0153 C3000000 		.4byte	0xc3
 5606 0157 02       		.uleb128 0x2
 5607 0158 59140000 		.4byte	.LASF29
 5608 015c 05       		.byte	0x5
 5609 015d 4A       		.byte	0x4a
 5610 015e C3000000 		.4byte	0xc3
 5611 0162 02       		.uleb128 0x2
 5612 0163 A4160000 		.4byte	.LASF30
 5613 0167 05       		.byte	0x5
 5614 0168 4B       		.byte	0x4b
 5615 0169 C3000000 		.4byte	0xc3
 5616 016d 02       		.uleb128 0x2
 5617 016e 68070000 		.4byte	.LASF31
 5618 0172 05       		.byte	0x5
ARM GAS  /var/folders/bw/wdbp2_bd0pn7gl5ybd33xbb80000gn/T//ccZ5cvgj.s 			page 105


 5619 0173 4C       		.byte	0x4c
 5620 0174 F9000000 		.4byte	0xf9
 5621 0178 02       		.uleb128 0x2
 5622 0179 9D000000 		.4byte	.LASF32
 5623 017d 05       		.byte	0x5
 5624 017e 4D       		.byte	0x4d
 5625 017f E9000000 		.4byte	0xe9
 5626 0183 02       		.uleb128 0x2
 5627 0184 3E1C0000 		.4byte	.LASF33
 5628 0188 05       		.byte	0x5
 5629 0189 4F       		.byte	0x4f
 5630 018a F9000000 		.4byte	0xf9
 5631 018e 02       		.uleb128 0x2
 5632 018f 7D270000 		.4byte	.LASF34
 5633 0193 05       		.byte	0x5
 5634 0194 50       		.byte	0x50
 5635 0195 F9000000 		.4byte	0xf9
 5636 0199 02       		.uleb128 0x2
 5637 019a 6C1F0000 		.4byte	.LASF35
 5638 019e 05       		.byte	0x5
 5639 019f 51       		.byte	0x51
 5640 01a0 E9000000 		.4byte	0xe9
 5641 01a4 02       		.uleb128 0x2
 5642 01a5 97170000 		.4byte	.LASF36
 5643 01a9 05       		.byte	0x5
 5644 01aa 52       		.byte	0x52
 5645 01ab F9000000 		.4byte	0xf9
 5646 01af 02       		.uleb128 0x2
 5647 01b0 90040000 		.4byte	.LASF37
 5648 01b4 06       		.byte	0x6
 5649 01b5 33       		.byte	0x33
 5650 01b6 F9000000 		.4byte	0xf9
 5651 01ba 06       		.uleb128 0x6
 5652 01bb AF010000 		.4byte	0x1af
 5653 01bf 02       		.uleb128 0x2
 5654 01c0 1C040000 		.4byte	.LASF38
 5655 01c4 06       		.byte	0x6
 5656 01c5 3F       		.byte	0x3f
 5657 01c6 CA010000 		.4byte	0x1ca
 5658 01ca 07       		.uleb128 0x7
 5659 01cb 950A0000 		.4byte	.LASF62
 5660 01cf 68       		.byte	0x68
 5661 01d0 07       		.byte	0x7
 5662 01d1 C2       		.byte	0xc2
 5663 01d2 E8020000 		.4byte	0x2e8
 5664 01d6 08       		.uleb128 0x8
 5665 01d7 F5130000 		.4byte	.LASF39
 5666 01db 07       		.byte	0x7
 5667 01dc C3       		.byte	0xc3
 5668 01dd F3020000 		.4byte	0x2f3
 5669 01e1 00       		.byte	0
 5670 01e2 08       		.uleb128 0x8
 5671 01e3 C00E0000 		.4byte	.LASF40
 5672 01e7 07       		.byte	0x7
 5673 01e8 C5       		.byte	0xc5
 5674 01e9 F3020000 		.4byte	0x2f3
 5675 01ed 04       		.byte	0x4
ARM GAS  /var/folders/bw/wdbp2_bd0pn7gl5ybd33xbb80000gn/T//ccZ5cvgj.s 			page 106


 5676 01ee 08       		.uleb128 0x8
 5677 01ef E6120000 		.4byte	.LASF41
 5678 01f3 07       		.byte	0x7
 5679 01f4 C7       		.byte	0xc7
 5680 01f5 6D010000 		.4byte	0x16d
 5681 01f9 08       		.byte	0x8
 5682 01fa 08       		.uleb128 0x8
 5683 01fb 530B0000 		.4byte	.LASF42
 5684 01ff 07       		.byte	0x7
 5685 0200 C8       		.byte	0xc8
 5686 0201 9F0D0000 		.4byte	0xd9f
 5687 0205 0C       		.byte	0xc
 5688 0206 08       		.uleb128 0x8
 5689 0207 36030000 		.4byte	.LASF43
 5690 020b 07       		.byte	0x7
 5691 020c CA       		.byte	0xca
 5692 020d F3020000 		.4byte	0x2f3
 5693 0211 10       		.byte	0x10
 5694 0212 08       		.uleb128 0x8
 5695 0213 FF270000 		.4byte	.LASF44
 5696 0217 07       		.byte	0x7
 5697 0218 CB       		.byte	0xcb
 5698 0219 F3020000 		.4byte	0x2f3
 5699 021d 14       		.byte	0x14
 5700 021e 08       		.uleb128 0x8
 5701 021f F4250000 		.4byte	.LASF45
 5702 0223 07       		.byte	0x7
 5703 0224 D2       		.byte	0xd2
 5704 0225 15110000 		.4byte	0x1115
 5705 0229 18       		.byte	0x18
 5706 022a 08       		.uleb128 0x8
 5707 022b 611F0000 		.4byte	.LASF46
 5708 022f 07       		.byte	0x7
 5709 0230 D8       		.byte	0xd8
 5710 0231 2C110000 		.4byte	0x112c
 5711 0235 1C       		.byte	0x1c
 5712 0236 08       		.uleb128 0x8
 5713 0237 812A0000 		.4byte	.LASF47
 5714 023b 07       		.byte	0x7
 5715 023c DD       		.byte	0xdd
 5716 023d 4C010000 		.4byte	0x14c
 5717 0241 20       		.byte	0x20
 5718 0242 08       		.uleb128 0x8
 5719 0243 1A250000 		.4byte	.LASF48
 5720 0247 07       		.byte	0x7
 5721 0248 E1       		.byte	0xe1
 5722 0249 41010000 		.4byte	0x141
 5723 024d 21       		.byte	0x21
 5724 024e 08       		.uleb128 0x8
 5725 024f 931A0000 		.4byte	.LASF49
 5726 0253 07       		.byte	0x7
 5727 0254 E6       		.byte	0xe6
 5728 0255 57010000 		.4byte	0x157
 5729 0259 22       		.byte	0x22
 5730 025a 08       		.uleb128 0x8
 5731 025b 8D170000 		.4byte	.LASF50
 5732 025f 07       		.byte	0x7
ARM GAS  /var/folders/bw/wdbp2_bd0pn7gl5ybd33xbb80000gn/T//ccZ5cvgj.s 			page 107


 5733 0260 EC       		.byte	0xec
 5734 0261 62010000 		.4byte	0x162
 5735 0265 23       		.byte	0x23
 5736 0266 08       		.uleb128 0x8
 5737 0267 8C1A0000 		.4byte	.LASF51
 5738 026b 07       		.byte	0x7
 5739 026c F3       		.byte	0xf3
 5740 026d BA010000 		.4byte	0x1ba
 5741 0271 24       		.byte	0x24
 5742 0272 09       		.uleb128 0x9
 5743 0273 705F7500 		.ascii	"p_u\000"
 5744 0277 07       		.byte	0x7
 5745 0278 3101     		.2byte	0x131
 5746 027a 44100000 		.4byte	0x1044
 5747 027e 28       		.byte	0x28
 5748 027f 0A       		.uleb128 0xa
 5749 0280 F1050000 		.4byte	.LASF52
 5750 0284 07       		.byte	0x7
 5751 0285 3601     		.2byte	0x136
 5752 0287 F9020000 		.4byte	0x2f9
 5753 028b 2C       		.byte	0x2c
 5754 028c 0A       		.uleb128 0xa
 5755 028d 3B180000 		.4byte	.LASF53
 5756 0291 07       		.byte	0x7
 5757 0292 3C01     		.2byte	0x13c
 5758 0294 1D030000 		.4byte	0x31d
 5759 0298 30       		.byte	0x30
 5760 0299 0A       		.uleb128 0xa
 5761 029a BC080000 		.4byte	.LASF54
 5762 029e 07       		.byte	0x7
 5763 029f 4001     		.2byte	0x140
 5764 02a1 78010000 		.4byte	0x178
 5765 02a5 38       		.byte	0x38
 5766 02a6 0A       		.uleb128 0xa
 5767 02a7 0D230000 		.4byte	.LASF55
 5768 02ab 07       		.byte	0x7
 5769 02ac 4601     		.2byte	0x146
 5770 02ae 83010000 		.4byte	0x183
 5771 02b2 3C       		.byte	0x3c
 5772 02b3 0A       		.uleb128 0xa
 5773 02b4 5F250000 		.4byte	.LASF56
 5774 02b8 07       		.byte	0x7
 5775 02b9 4D01     		.2byte	0x14d
 5776 02bb 0F110000 		.4byte	0x110f
 5777 02bf 40       		.byte	0x40
 5778 02c0 0A       		.uleb128 0xa
 5779 02c1 02210000 		.4byte	.LASF57
 5780 02c5 07       		.byte	0x7
 5781 02c6 5101     		.2byte	0x151
 5782 02c8 6D010000 		.4byte	0x16d
 5783 02cc 44       		.byte	0x44
 5784 02cd 0A       		.uleb128 0xa
 5785 02ce 61140000 		.4byte	.LASF58
 5786 02d2 07       		.byte	0x7
 5787 02d3 5801     		.2byte	0x158
 5788 02d5 D0030000 		.4byte	0x3d0
 5789 02d9 48       		.byte	0x48
ARM GAS  /var/folders/bw/wdbp2_bd0pn7gl5ybd33xbb80000gn/T//ccZ5cvgj.s 			page 108


 5790 02da 0A       		.uleb128 0xa
 5791 02db C22A0000 		.4byte	.LASF59
 5792 02df 07       		.byte	0x7
 5793 02e0 5E01     		.2byte	0x15e
 5794 02e2 F50F0000 		.4byte	0xff5
 5795 02e6 50       		.byte	0x50
 5796 02e7 00       		.byte	0
 5797 02e8 02       		.uleb128 0x2
 5798 02e9 68280000 		.4byte	.LASF60
 5799 02ed 06       		.byte	0x6
 5800 02ee 44       		.byte	0x44
 5801 02ef F3020000 		.4byte	0x2f3
 5802 02f3 0B       		.uleb128 0xb
 5803 02f4 04       		.byte	0x4
 5804 02f5 BF010000 		.4byte	0x1bf
 5805 02f9 02       		.uleb128 0x2
 5806 02fa 3B060000 		.4byte	.LASF61
 5807 02fe 06       		.byte	0x6
 5808 02ff 49       		.byte	0x49
 5809 0300 04030000 		.4byte	0x304
 5810 0304 07       		.uleb128 0x7
 5811 0305 9B2A0000 		.4byte	.LASF63
 5812 0309 04       		.byte	0x4
 5813 030a 07       		.byte	0x7
 5814 030b B0       		.byte	0xb0
 5815 030c 1D030000 		.4byte	0x31d
 5816 0310 08       		.uleb128 0x8
 5817 0311 F5130000 		.4byte	.LASF39
 5818 0315 07       		.byte	0x7
 5819 0316 B1       		.byte	0xb1
 5820 0317 F3020000 		.4byte	0x2f3
 5821 031b 00       		.byte	0
 5822 031c 00       		.byte	0
 5823 031d 02       		.uleb128 0x2
 5824 031e 601A0000 		.4byte	.LASF64
 5825 0322 06       		.byte	0x6
 5826 0323 50       		.byte	0x50
 5827 0324 28030000 		.4byte	0x328
 5828 0328 07       		.uleb128 0x7
 5829 0329 0D030000 		.4byte	.LASF65
 5830 032d 08       		.byte	0x8
 5831 032e 07       		.byte	0x7
 5832 032f B7       		.byte	0xb7
 5833 0330 4D030000 		.4byte	0x34d
 5834 0334 08       		.uleb128 0x8
 5835 0335 F5130000 		.4byte	.LASF39
 5836 0339 07       		.byte	0x7
 5837 033a B8       		.byte	0xb8
 5838 033b F3020000 		.4byte	0x2f3
 5839 033f 00       		.byte	0
 5840 0340 08       		.uleb128 0x8
 5841 0341 C00E0000 		.4byte	.LASF40
 5842 0345 07       		.byte	0x7
 5843 0346 B9       		.byte	0xb9
 5844 0347 F3020000 		.4byte	0x2f3
 5845 034b 04       		.byte	0x4
 5846 034c 00       		.byte	0
ARM GAS  /var/folders/bw/wdbp2_bd0pn7gl5ybd33xbb80000gn/T//ccZ5cvgj.s 			page 109


 5847 034d 02       		.uleb128 0x2
 5848 034e 880A0000 		.4byte	.LASF66
 5849 0352 06       		.byte	0x6
 5850 0353 57       		.byte	0x57
 5851 0354 58030000 		.4byte	0x358
 5852 0358 0C       		.uleb128 0xc
 5853 0359 02220000 		.4byte	.LASF67
 5854 035d 1C       		.byte	0x1c
 5855 035e 07       		.byte	0x7
 5856 035f 9001     		.2byte	0x190
 5857 0361 B4030000 		.4byte	0x3b4
 5858 0365 0A       		.uleb128 0xa
 5859 0366 4E1D0000 		.4byte	.LASF68
 5860 036a 07       		.byte	0x7
 5861 036b 9101     		.2byte	0x191
 5862 036d 1D030000 		.4byte	0x31d
 5863 0371 00       		.byte	0
 5864 0372 0A       		.uleb128 0xa
 5865 0373 42240000 		.4byte	.LASF69
 5866 0377 07       		.byte	0x7
 5867 0378 9201     		.2byte	0x192
 5868 037a 6D010000 		.4byte	0x16d
 5869 037e 08       		.byte	0x8
 5870 037f 0A       		.uleb128 0xa
 5871 0380 BF0D0000 		.4byte	.LASF70
 5872 0384 07       		.byte	0x7
 5873 0385 9401     		.2byte	0x194
 5874 0387 9F0D0000 		.4byte	0xd9f
 5875 038b 0C       		.byte	0xc
 5876 038c 0A       		.uleb128 0xa
 5877 038d 34160000 		.4byte	.LASF71
 5878 0391 07       		.byte	0x7
 5879 0392 9701     		.2byte	0x197
 5880 0394 F3020000 		.4byte	0x2f3
 5881 0398 10       		.byte	0x10
 5882 0399 0A       		.uleb128 0xa
 5883 039a B80E0000 		.4byte	.LASF72
 5884 039e 07       		.byte	0x7
 5885 039f 9801     		.2byte	0x198
 5886 03a1 F3020000 		.4byte	0x2f3
 5887 03a5 14       		.byte	0x14
 5888 03a6 0A       		.uleb128 0xa
 5889 03a7 7F0B0000 		.4byte	.LASF73
 5890 03ab 07       		.byte	0x7
 5891 03ac 9B01     		.2byte	0x19b
 5892 03ae F3020000 		.4byte	0x2f3
 5893 03b2 18       		.byte	0x18
 5894 03b3 00       		.byte	0
 5895 03b4 02       		.uleb128 0x2
 5896 03b5 91200000 		.4byte	.LASF74
 5897 03b9 06       		.byte	0x6
 5898 03ba 5C       		.byte	0x5c
 5899 03bb BF030000 		.4byte	0x3bf
 5900 03bf 0B       		.uleb128 0xb
 5901 03c0 04       		.byte	0x4
 5902 03c1 C5030000 		.4byte	0x3c5
 5903 03c5 0D       		.uleb128 0xd
ARM GAS  /var/folders/bw/wdbp2_bd0pn7gl5ybd33xbb80000gn/T//ccZ5cvgj.s 			page 110


 5904 03c6 D0030000 		.4byte	0x3d0
 5905 03ca 0E       		.uleb128 0xe
 5906 03cb D0030000 		.4byte	0x3d0
 5907 03cf 00       		.byte	0
 5908 03d0 0F       		.uleb128 0xf
 5909 03d1 04       		.byte	0x4
 5910 03d2 02       		.uleb128 0x2
 5911 03d3 970D0000 		.4byte	.LASF75
 5912 03d7 06       		.byte	0x6
 5913 03d8 61       		.byte	0x61
 5914 03d9 DD030000 		.4byte	0x3dd
 5915 03dd 0C       		.uleb128 0xc
 5916 03de 09250000 		.4byte	.LASF76
 5917 03e2 14       		.byte	0x14
 5918 03e3 07       		.byte	0x7
 5919 03e4 6B01     		.2byte	0x16b
 5920 03e6 2C040000 		.4byte	0x42c
 5921 03ea 0A       		.uleb128 0xa
 5922 03eb C50D0000 		.4byte	.LASF77
 5923 03ef 07       		.byte	0x7
 5924 03f0 6C01     		.2byte	0x16c
 5925 03f2 32110000 		.4byte	0x1132
 5926 03f6 00       		.byte	0
 5927 03f7 0A       		.uleb128 0xa
 5928 03f8 2E0A0000 		.4byte	.LASF78
 5929 03fc 07       		.byte	0x7
 5930 03fd 6D01     		.2byte	0x16d
 5931 03ff 32110000 		.4byte	0x1132
 5932 0403 04       		.byte	0x4
 5933 0404 0A       		.uleb128 0xa
 5934 0405 EF160000 		.4byte	.LASF79
 5935 0409 07       		.byte	0x7
 5936 040a 6E01     		.2byte	0x16e
 5937 040c AF010000 		.4byte	0x1af
 5938 0410 08       		.byte	0x8
 5939 0411 0A       		.uleb128 0xa
 5940 0412 F4240000 		.4byte	.LASF80
 5941 0416 07       		.byte	0x7
 5942 0417 6F01     		.2byte	0x16f
 5943 0419 B4030000 		.4byte	0x3b4
 5944 041d 0C       		.byte	0xc
 5945 041e 0A       		.uleb128 0xa
 5946 041f 590B0000 		.4byte	.LASF81
 5947 0423 07       		.byte	0x7
 5948 0424 7101     		.2byte	0x171
 5949 0426 D0030000 		.4byte	0x3d0
 5950 042a 10       		.byte	0x10
 5951 042b 00       		.byte	0
 5952 042c 02       		.uleb128 0x2
 5953 042d 48260000 		.4byte	.LASF82
 5954 0431 06       		.byte	0x6
 5955 0432 66       		.byte	0x66
 5956 0433 37040000 		.4byte	0x437
 5957 0437 0C       		.uleb128 0xc
 5958 0438 46040000 		.4byte	.LASF83
 5959 043c 10       		.byte	0x10
 5960 043d 07       		.byte	0x7
ARM GAS  /var/folders/bw/wdbp2_bd0pn7gl5ybd33xbb80000gn/T//ccZ5cvgj.s 			page 111


 5961 043e 7B01     		.2byte	0x17b
 5962 0440 79040000 		.4byte	0x479
 5963 0444 0A       		.uleb128 0xa
 5964 0445 C50D0000 		.4byte	.LASF77
 5965 0449 07       		.byte	0x7
 5966 044a 7C01     		.2byte	0x17c
 5967 044c 32110000 		.4byte	0x1132
 5968 0450 00       		.byte	0
 5969 0451 0A       		.uleb128 0xa
 5970 0452 2E0A0000 		.4byte	.LASF78
 5971 0456 07       		.byte	0x7
 5972 0457 7E01     		.2byte	0x17e
 5973 0459 32110000 		.4byte	0x1132
 5974 045d 04       		.byte	0x4
 5975 045e 0A       		.uleb128 0xa
 5976 045f EF160000 		.4byte	.LASF79
 5977 0463 07       		.byte	0x7
 5978 0464 8001     		.2byte	0x180
 5979 0466 AF010000 		.4byte	0x1af
 5980 046a 08       		.byte	0x8
 5981 046b 0A       		.uleb128 0xa
 5982 046c F0010000 		.4byte	.LASF84
 5983 0470 07       		.byte	0x7
 5984 0471 8201     		.2byte	0x182
 5985 0473 BA010000 		.4byte	0x1ba
 5986 0477 0C       		.byte	0xc
 5987 0478 00       		.byte	0
 5988 0479 02       		.uleb128 0x2
 5989 047a 220B0000 		.4byte	.LASF85
 5990 047e 06       		.byte	0x6
 5991 047f 6B       		.byte	0x6b
 5992 0480 84040000 		.4byte	0x484
 5993 0484 10       		.uleb128 0x10
 5994 0485 4C220000 		.4byte	.LASF86
 5995 0489 1404     		.2byte	0x414
 5996 048b 07       		.byte	0x7
 5997 048c A201     		.2byte	0x1a2
 5998 048e C7040000 		.4byte	0x4c7
 5999 0492 0A       		.uleb128 0xa
 6000 0493 16160000 		.4byte	.LASF87
 6001 0497 07       		.byte	0x7
 6002 0498 AA01     		.2byte	0x1aa
 6003 049a 1B110000 		.4byte	0x111b
 6004 049e 00       		.byte	0
 6005 049f 0A       		.uleb128 0xa
 6006 04a0 AF150000 		.4byte	.LASF88
 6007 04a4 07       		.byte	0x7
 6008 04a5 AF01     		.2byte	0x1af
 6009 04a7 99010000 		.4byte	0x199
 6010 04ab 04       		.byte	0x4
 6011 04ac 0A       		.uleb128 0xa
 6012 04ad 04030000 		.4byte	.LASF89
 6013 04b1 07       		.byte	0x7
 6014 04b2 B301     		.2byte	0x1b3
 6015 04b4 99010000 		.4byte	0x199
 6016 04b8 08       		.byte	0x8
 6017 04b9 0A       		.uleb128 0xa
ARM GAS  /var/folders/bw/wdbp2_bd0pn7gl5ybd33xbb80000gn/T//ccZ5cvgj.s 			page 112


 6018 04ba B7190000 		.4byte	.LASF90
 6019 04be 07       		.byte	0x7
 6020 04bf B901     		.2byte	0x1b9
 6021 04c1 870F0000 		.4byte	0xf87
 6022 04c5 0C       		.byte	0xc
 6023 04c6 00       		.byte	0
 6024 04c7 02       		.uleb128 0x2
 6025 04c8 1F010000 		.4byte	.LASF91
 6026 04cc 06       		.byte	0x6
 6027 04cd 70       		.byte	0x70
 6028 04ce D2040000 		.4byte	0x4d2
 6029 04d2 10       		.uleb128 0x10
 6030 04d3 A0190000 		.4byte	.LASF92
 6031 04d7 7006     		.2byte	0x670
 6032 04d9 07       		.byte	0x7
 6033 04da C201     		.2byte	0x1c2
 6034 04dc 3F050000 		.4byte	0x53f
 6035 04e0 0A       		.uleb128 0xa
 6036 04e1 35060000 		.4byte	.LASF93
 6037 04e5 07       		.byte	0x7
 6038 04e6 C601     		.2byte	0x1c6
 6039 04e8 4D030000 		.4byte	0x34d
 6040 04ec 00       		.byte	0
 6041 04ed 0A       		.uleb128 0xa
 6042 04ee DB050000 		.4byte	.LASF94
 6043 04f2 07       		.byte	0x7
 6044 04f3 CA01     		.2byte	0x1ca
 6045 04f5 2C040000 		.4byte	0x42c
 6046 04f9 1C       		.byte	0x1c
 6047 04fa 09       		.uleb128 0x9
 6048 04fb 64626700 		.ascii	"dbg\000"
 6049 04ff 07       		.byte	0x7
 6050 0500 CE01     		.2byte	0x1ce
 6051 0502 79040000 		.4byte	0x479
 6052 0506 2C       		.byte	0x2c
 6053 0507 11       		.uleb128 0x11
 6054 0508 BD1A0000 		.4byte	.LASF95
 6055 050c 07       		.byte	0x7
 6056 050d D201     		.2byte	0x1d2
 6057 050f BF010000 		.4byte	0x1bf
 6058 0513 4004     		.2byte	0x440
 6059 0515 12       		.uleb128 0x12
 6060 0516 746D00   		.ascii	"tm\000"
 6061 0519 07       		.byte	0x7
 6062 051a D701     		.2byte	0x1d7
 6063 051c A70F0000 		.4byte	0xfa7
 6064 0520 A804     		.2byte	0x4a8
 6065 0522 11       		.uleb128 0x11
 6066 0523 650E0000 		.4byte	.LASF96
 6067 0527 07       		.byte	0x7
 6068 0528 DD01     		.2byte	0x1dd
 6069 052a 39100000 		.4byte	0x1039
 6070 052e B004     		.2byte	0x4b0
 6071 0530 11       		.uleb128 0x11
 6072 0531 D1240000 		.4byte	.LASF97
 6073 0535 07       		.byte	0x7
 6074 0536 E301     		.2byte	0x1e3
ARM GAS  /var/folders/bw/wdbp2_bd0pn7gl5ybd33xbb80000gn/T//ccZ5cvgj.s 			page 113


 6075 0538 38110000 		.4byte	0x1138
 6076 053c E804     		.2byte	0x4e8
 6077 053e 00       		.byte	0
 6078 053f 13       		.uleb128 0x13
 6079 0540 F9000000 		.4byte	0xf9
 6080 0544 4F050000 		.4byte	0x54f
 6081 0548 14       		.uleb128 0x14
 6082 0549 B1000000 		.4byte	0xb1
 6083 054d 01       		.byte	0x1
 6084 054e 00       		.byte	0
 6085 054f 13       		.uleb128 0x13
 6086 0550 F9000000 		.4byte	0xf9
 6087 0554 5F050000 		.4byte	0x55f
 6088 0558 14       		.uleb128 0x14
 6089 0559 B1000000 		.4byte	0xb1
 6090 055d 07       		.byte	0x7
 6091 055e 00       		.byte	0
 6092 055f 15       		.uleb128 0x15
 6093 0560 4E240000 		.4byte	.LASF98
 6094 0564 08       		.byte	0x8
 6095 0565 A706     		.2byte	0x6a7
 6096 0567 F4000000 		.4byte	0xf4
 6097 056b 16       		.uleb128 0x16
 6098 056c E5180000 		.4byte	.LASF99
 6099 0570 09       		.byte	0x9
 6100 0571 4C       		.byte	0x4c
 6101 0572 F9000000 		.4byte	0xf9
 6102 0576 17       		.uleb128 0x17
 6103 0577 50       		.byte	0x50
 6104 0578 0A       		.byte	0xa
 6105 0579 C4       		.byte	0xc4
 6106 057a 6D060000 		.4byte	0x66d
 6107 057e 18       		.uleb128 0x18
 6108 057f 535200   		.ascii	"SR\000"
 6109 0582 0A       		.byte	0xa
 6110 0583 C6       		.byte	0xc6
 6111 0584 04010000 		.4byte	0x104
 6112 0588 00       		.byte	0
 6113 0589 18       		.uleb128 0x18
 6114 058a 43523100 		.ascii	"CR1\000"
 6115 058e 0A       		.byte	0xa
 6116 058f C7       		.byte	0xc7
 6117 0590 04010000 		.4byte	0x104
 6118 0594 04       		.byte	0x4
 6119 0595 18       		.uleb128 0x18
 6120 0596 43523200 		.ascii	"CR2\000"
 6121 059a 0A       		.byte	0xa
 6122 059b C8       		.byte	0xc8
 6123 059c 04010000 		.4byte	0x104
 6124 05a0 08       		.byte	0x8
 6125 05a1 08       		.uleb128 0x8
 6126 05a2 56030000 		.4byte	.LASF100
 6127 05a6 0A       		.byte	0xa
 6128 05a7 C9       		.byte	0xc9
 6129 05a8 04010000 		.4byte	0x104
 6130 05ac 0C       		.byte	0xc
 6131 05ad 08       		.uleb128 0x8
ARM GAS  /var/folders/bw/wdbp2_bd0pn7gl5ybd33xbb80000gn/T//ccZ5cvgj.s 			page 114


 6132 05ae 5C030000 		.4byte	.LASF101
 6133 05b2 0A       		.byte	0xa
 6134 05b3 CA       		.byte	0xca
 6135 05b4 04010000 		.4byte	0x104
 6136 05b8 10       		.byte	0x10
 6137 05b9 08       		.uleb128 0x8
 6138 05ba 600B0000 		.4byte	.LASF102
 6139 05be 0A       		.byte	0xa
 6140 05bf CB       		.byte	0xcb
 6141 05c0 04010000 		.4byte	0x104
 6142 05c4 14       		.byte	0x14
 6143 05c5 08       		.uleb128 0x8
 6144 05c6 660B0000 		.4byte	.LASF103
 6145 05ca 0A       		.byte	0xa
 6146 05cb CC       		.byte	0xcc
 6147 05cc 04010000 		.4byte	0x104
 6148 05d0 18       		.byte	0x18
 6149 05d1 08       		.uleb128 0x8
 6150 05d2 6C0B0000 		.4byte	.LASF104
 6151 05d6 0A       		.byte	0xa
 6152 05d7 CD       		.byte	0xcd
 6153 05d8 04010000 		.4byte	0x104
 6154 05dc 1C       		.byte	0x1c
 6155 05dd 08       		.uleb128 0x8
 6156 05de 720B0000 		.4byte	.LASF105
 6157 05e2 0A       		.byte	0xa
 6158 05e3 CE       		.byte	0xce
 6159 05e4 04010000 		.4byte	0x104
 6160 05e8 20       		.byte	0x20
 6161 05e9 18       		.uleb128 0x18
 6162 05ea 48545200 		.ascii	"HTR\000"
 6163 05ee 0A       		.byte	0xa
 6164 05ef CF       		.byte	0xcf
 6165 05f0 04010000 		.4byte	0x104
 6166 05f4 24       		.byte	0x24
 6167 05f5 18       		.uleb128 0x18
 6168 05f6 4C545200 		.ascii	"LTR\000"
 6169 05fa 0A       		.byte	0xa
 6170 05fb D0       		.byte	0xd0
 6171 05fc 04010000 		.4byte	0x104
 6172 0600 28       		.byte	0x28
 6173 0601 08       		.uleb128 0x8
 6174 0602 F6140000 		.4byte	.LASF106
 6175 0606 0A       		.byte	0xa
 6176 0607 D1       		.byte	0xd1
 6177 0608 04010000 		.4byte	0x104
 6178 060c 2C       		.byte	0x2c
 6179 060d 08       		.uleb128 0x8
 6180 060e FB140000 		.4byte	.LASF107
 6181 0612 0A       		.byte	0xa
 6182 0613 D2       		.byte	0xd2
 6183 0614 04010000 		.4byte	0x104
 6184 0618 30       		.byte	0x30
 6185 0619 08       		.uleb128 0x8
 6186 061a 00150000 		.4byte	.LASF108
 6187 061e 0A       		.byte	0xa
 6188 061f D3       		.byte	0xd3
ARM GAS  /var/folders/bw/wdbp2_bd0pn7gl5ybd33xbb80000gn/T//ccZ5cvgj.s 			page 115


 6189 0620 04010000 		.4byte	0x104
 6190 0624 34       		.byte	0x34
 6191 0625 08       		.uleb128 0x8
 6192 0626 660D0000 		.4byte	.LASF109
 6193 062a 0A       		.byte	0xa
 6194 062b D4       		.byte	0xd4
 6195 062c 04010000 		.4byte	0x104
 6196 0630 38       		.byte	0x38
 6197 0631 08       		.uleb128 0x8
 6198 0632 13260000 		.4byte	.LASF110
 6199 0636 0A       		.byte	0xa
 6200 0637 D5       		.byte	0xd5
 6201 0638 04010000 		.4byte	0x104
 6202 063c 3C       		.byte	0x3c
 6203 063d 08       		.uleb128 0x8
 6204 063e 18260000 		.4byte	.LASF111
 6205 0642 0A       		.byte	0xa
 6206 0643 D6       		.byte	0xd6
 6207 0644 04010000 		.4byte	0x104
 6208 0648 40       		.byte	0x40
 6209 0649 08       		.uleb128 0x8
 6210 064a 1D260000 		.4byte	.LASF112
 6211 064e 0A       		.byte	0xa
 6212 064f D7       		.byte	0xd7
 6213 0650 04010000 		.4byte	0x104
 6214 0654 44       		.byte	0x44
 6215 0655 08       		.uleb128 0x8
 6216 0656 22260000 		.4byte	.LASF113
 6217 065a 0A       		.byte	0xa
 6218 065b D8       		.byte	0xd8
 6219 065c 04010000 		.4byte	0x104
 6220 0660 48       		.byte	0x48
 6221 0661 18       		.uleb128 0x18
 6222 0662 445200   		.ascii	"DR\000"
 6223 0665 0A       		.byte	0xa
 6224 0666 D9       		.byte	0xd9
 6225 0667 04010000 		.4byte	0x104
 6226 066b 4C       		.byte	0x4c
 6227 066c 00       		.byte	0
 6228 066d 02       		.uleb128 0x2
 6229 066e 36170000 		.4byte	.LASF114
 6230 0672 0A       		.byte	0xa
 6231 0673 DA       		.byte	0xda
 6232 0674 76050000 		.4byte	0x576
 6233 0678 17       		.uleb128 0x17
 6234 0679 10       		.byte	0x10
 6235 067a 0A       		.byte	0xa
 6236 067b E9       		.byte	0xe9
 6237 067c B1060000 		.4byte	0x6b1
 6238 0680 18       		.uleb128 0x18
 6239 0681 54495200 		.ascii	"TIR\000"
 6240 0685 0A       		.byte	0xa
 6241 0686 EB       		.byte	0xeb
 6242 0687 04010000 		.4byte	0x104
 6243 068b 00       		.byte	0
 6244 068c 08       		.uleb128 0x8
 6245 068d 92120000 		.4byte	.LASF115
ARM GAS  /var/folders/bw/wdbp2_bd0pn7gl5ybd33xbb80000gn/T//ccZ5cvgj.s 			page 116


 6246 0691 0A       		.byte	0xa
 6247 0692 EC       		.byte	0xec
 6248 0693 04010000 		.4byte	0x104
 6249 0697 04       		.byte	0x4
 6250 0698 08       		.uleb128 0x8
 6251 0699 AF1A0000 		.4byte	.LASF116
 6252 069d 0A       		.byte	0xa
 6253 069e ED       		.byte	0xed
 6254 069f 04010000 		.4byte	0x104
 6255 06a3 08       		.byte	0x8
 6256 06a4 08       		.uleb128 0x8
 6257 06a5 9E170000 		.4byte	.LASF117
 6258 06a9 0A       		.byte	0xa
 6259 06aa EE       		.byte	0xee
 6260 06ab 04010000 		.4byte	0x104
 6261 06af 0C       		.byte	0xc
 6262 06b0 00       		.byte	0
 6263 06b1 02       		.uleb128 0x2
 6264 06b2 1F060000 		.4byte	.LASF118
 6265 06b6 0A       		.byte	0xa
 6266 06b7 EF       		.byte	0xef
 6267 06b8 78060000 		.4byte	0x678
 6268 06bc 17       		.uleb128 0x17
 6269 06bd 10       		.byte	0x10
 6270 06be 0A       		.byte	0xa
 6271 06bf F5       		.byte	0xf5
 6272 06c0 F5060000 		.4byte	0x6f5
 6273 06c4 18       		.uleb128 0x18
 6274 06c5 52495200 		.ascii	"RIR\000"
 6275 06c9 0A       		.byte	0xa
 6276 06ca F7       		.byte	0xf7
 6277 06cb 04010000 		.4byte	0x104
 6278 06cf 00       		.byte	0
 6279 06d0 08       		.uleb128 0x8
 6280 06d1 AE210000 		.4byte	.LASF119
 6281 06d5 0A       		.byte	0xa
 6282 06d6 F8       		.byte	0xf8
 6283 06d7 04010000 		.4byte	0x104
 6284 06db 04       		.byte	0x4
 6285 06dc 08       		.uleb128 0x8
 6286 06dd 0D1C0000 		.4byte	.LASF120
 6287 06e1 0A       		.byte	0xa
 6288 06e2 F9       		.byte	0xf9
 6289 06e3 04010000 		.4byte	0x104
 6290 06e7 08       		.byte	0x8
 6291 06e8 08       		.uleb128 0x8
 6292 06e9 81190000 		.4byte	.LASF121
 6293 06ed 0A       		.byte	0xa
 6294 06ee FA       		.byte	0xfa
 6295 06ef 04010000 		.4byte	0x104
 6296 06f3 0C       		.byte	0xc
 6297 06f4 00       		.byte	0
 6298 06f5 02       		.uleb128 0x2
 6299 06f6 9A200000 		.4byte	.LASF122
 6300 06fa 0A       		.byte	0xa
 6301 06fb FB       		.byte	0xfb
 6302 06fc BC060000 		.4byte	0x6bc
ARM GAS  /var/folders/bw/wdbp2_bd0pn7gl5ybd33xbb80000gn/T//ccZ5cvgj.s 			page 117


 6303 0700 19       		.uleb128 0x19
 6304 0701 08       		.byte	0x8
 6305 0702 0A       		.byte	0xa
 6306 0703 0101     		.2byte	0x101
 6307 0705 24070000 		.4byte	0x724
 6308 0709 09       		.uleb128 0x9
 6309 070a 46523100 		.ascii	"FR1\000"
 6310 070e 0A       		.byte	0xa
 6311 070f 0301     		.2byte	0x103
 6312 0711 04010000 		.4byte	0x104
 6313 0715 00       		.byte	0
 6314 0716 09       		.uleb128 0x9
 6315 0717 46523200 		.ascii	"FR2\000"
 6316 071b 0A       		.byte	0xa
 6317 071c 0401     		.2byte	0x104
 6318 071e 04010000 		.4byte	0x104
 6319 0722 04       		.byte	0x4
 6320 0723 00       		.byte	0
 6321 0724 1A       		.uleb128 0x1a
 6322 0725 97120000 		.4byte	.LASF123
 6323 0729 0A       		.byte	0xa
 6324 072a 0501     		.2byte	0x105
 6325 072c 00070000 		.4byte	0x700
 6326 0730 1B       		.uleb128 0x1b
 6327 0731 2003     		.2byte	0x320
 6328 0733 0A       		.byte	0xa
 6329 0734 0B01     		.2byte	0x10b
 6330 0736 66080000 		.4byte	0x866
 6331 073a 09       		.uleb128 0x9
 6332 073b 4D435200 		.ascii	"MCR\000"
 6333 073f 0A       		.byte	0xa
 6334 0740 0D01     		.2byte	0x10d
 6335 0742 04010000 		.4byte	0x104
 6336 0746 00       		.byte	0
 6337 0747 09       		.uleb128 0x9
 6338 0748 4D535200 		.ascii	"MSR\000"
 6339 074c 0A       		.byte	0xa
 6340 074d 0E01     		.2byte	0x10e
 6341 074f 04010000 		.4byte	0x104
 6342 0753 04       		.byte	0x4
 6343 0754 09       		.uleb128 0x9
 6344 0755 54535200 		.ascii	"TSR\000"
 6345 0759 0A       		.byte	0xa
 6346 075a 0F01     		.2byte	0x10f
 6347 075c 04010000 		.4byte	0x104
 6348 0760 08       		.byte	0x8
 6349 0761 0A       		.uleb128 0xa
 6350 0762 990F0000 		.4byte	.LASF124
 6351 0766 0A       		.byte	0xa
 6352 0767 1001     		.2byte	0x110
 6353 0769 04010000 		.4byte	0x104
 6354 076d 0C       		.byte	0xc
 6355 076e 0A       		.uleb128 0xa
 6356 076f 4F100000 		.4byte	.LASF125
 6357 0773 0A       		.byte	0xa
 6358 0774 1101     		.2byte	0x111
 6359 0776 04010000 		.4byte	0x104
ARM GAS  /var/folders/bw/wdbp2_bd0pn7gl5ybd33xbb80000gn/T//ccZ5cvgj.s 			page 118


 6360 077a 10       		.byte	0x10
 6361 077b 09       		.uleb128 0x9
 6362 077c 49455200 		.ascii	"IER\000"
 6363 0780 0A       		.byte	0xa
 6364 0781 1201     		.2byte	0x112
 6365 0783 04010000 		.4byte	0x104
 6366 0787 14       		.byte	0x14
 6367 0788 09       		.uleb128 0x9
 6368 0789 45535200 		.ascii	"ESR\000"
 6369 078d 0A       		.byte	0xa
 6370 078e 1301     		.2byte	0x113
 6371 0790 04010000 		.4byte	0x104
 6372 0794 18       		.byte	0x18
 6373 0795 09       		.uleb128 0x9
 6374 0796 42545200 		.ascii	"BTR\000"
 6375 079a 0A       		.byte	0xa
 6376 079b 1401     		.2byte	0x114
 6377 079d 04010000 		.4byte	0x104
 6378 07a1 1C       		.byte	0x1c
 6379 07a2 0A       		.uleb128 0xa
 6380 07a3 55230000 		.4byte	.LASF126
 6381 07a7 0A       		.byte	0xa
 6382 07a8 1501     		.2byte	0x115
 6383 07aa 66080000 		.4byte	0x866
 6384 07ae 20       		.byte	0x20
 6385 07af 11       		.uleb128 0x11
 6386 07b0 C7130000 		.4byte	.LASF127
 6387 07b4 0A       		.byte	0xa
 6388 07b5 1601     		.2byte	0x116
 6389 07b7 76080000 		.4byte	0x876
 6390 07bb 8001     		.2byte	0x180
 6391 07bd 11       		.uleb128 0x11
 6392 07be 94270000 		.4byte	.LASF128
 6393 07c2 0A       		.byte	0xa
 6394 07c3 1701     		.2byte	0x117
 6395 07c5 86080000 		.4byte	0x886
 6396 07c9 B001     		.2byte	0x1b0
 6397 07cb 11       		.uleb128 0x11
 6398 07cc 5F230000 		.4byte	.LASF129
 6399 07d0 0A       		.byte	0xa
 6400 07d1 1801     		.2byte	0x118
 6401 07d3 96080000 		.4byte	0x896
 6402 07d7 D001     		.2byte	0x1d0
 6403 07d9 12       		.uleb128 0x12
 6404 07da 464D5200 		.ascii	"FMR\000"
 6405 07de 0A       		.byte	0xa
 6406 07df 1901     		.2byte	0x119
 6407 07e1 04010000 		.4byte	0x104
 6408 07e5 0002     		.2byte	0x200
 6409 07e7 11       		.uleb128 0x11
 6410 07e8 F40B0000 		.4byte	.LASF130
 6411 07ec 0A       		.byte	0xa
 6412 07ed 1A01     		.2byte	0x11a
 6413 07ef 04010000 		.4byte	0x104
 6414 07f3 0402     		.2byte	0x204
 6415 07f5 11       		.uleb128 0x11
 6416 07f6 69230000 		.4byte	.LASF131
ARM GAS  /var/folders/bw/wdbp2_bd0pn7gl5ybd33xbb80000gn/T//ccZ5cvgj.s 			page 119


 6417 07fa 0A       		.byte	0xa
 6418 07fb 1B01     		.2byte	0x11b
 6419 07fd F9000000 		.4byte	0xf9
 6420 0801 0802     		.2byte	0x208
 6421 0803 11       		.uleb128 0x11
 6422 0804 6F250000 		.4byte	.LASF132
 6423 0808 0A       		.byte	0xa
 6424 0809 1C01     		.2byte	0x11c
 6425 080b 04010000 		.4byte	0x104
 6426 080f 0C02     		.2byte	0x20c
 6427 0811 11       		.uleb128 0x11
 6428 0812 73230000 		.4byte	.LASF133
 6429 0816 0A       		.byte	0xa
 6430 0817 1D01     		.2byte	0x11d
 6431 0819 F9000000 		.4byte	0xf9
 6432 081d 1002     		.2byte	0x210
 6433 081f 11       		.uleb128 0x11
 6434 0820 501C0000 		.4byte	.LASF134
 6435 0824 0A       		.byte	0xa
 6436 0825 1E01     		.2byte	0x11e
 6437 0827 04010000 		.4byte	0x104
 6438 082b 1402     		.2byte	0x214
 6439 082d 11       		.uleb128 0x11
 6440 082e 7D230000 		.4byte	.LASF135
 6441 0832 0A       		.byte	0xa
 6442 0833 1F01     		.2byte	0x11f
 6443 0835 F9000000 		.4byte	0xf9
 6444 0839 1802     		.2byte	0x218
 6445 083b 11       		.uleb128 0x11
 6446 083c E3040000 		.4byte	.LASF136
 6447 0840 0A       		.byte	0xa
 6448 0841 2001     		.2byte	0x120
 6449 0843 04010000 		.4byte	0x104
 6450 0847 1C02     		.2byte	0x21c
 6451 0849 11       		.uleb128 0x11
 6452 084a 87230000 		.4byte	.LASF137
 6453 084e 0A       		.byte	0xa
 6454 084f 2101     		.2byte	0x121
 6455 0851 4F050000 		.4byte	0x54f
 6456 0855 2002     		.2byte	0x220
 6457 0857 11       		.uleb128 0x11
 6458 0858 D3060000 		.4byte	.LASF138
 6459 085c 0A       		.byte	0xa
 6460 085d 2201     		.2byte	0x122
 6461 085f A6080000 		.4byte	0x8a6
 6462 0863 4002     		.2byte	0x240
 6463 0865 00       		.byte	0
 6464 0866 13       		.uleb128 0x13
 6465 0867 F9000000 		.4byte	0xf9
 6466 086b 76080000 		.4byte	0x876
 6467 086f 14       		.uleb128 0x14
 6468 0870 B1000000 		.4byte	0xb1
 6469 0874 57       		.byte	0x57
 6470 0875 00       		.byte	0
 6471 0876 13       		.uleb128 0x13
 6472 0877 B1060000 		.4byte	0x6b1
 6473 087b 86080000 		.4byte	0x886
ARM GAS  /var/folders/bw/wdbp2_bd0pn7gl5ybd33xbb80000gn/T//ccZ5cvgj.s 			page 120


 6474 087f 14       		.uleb128 0x14
 6475 0880 B1000000 		.4byte	0xb1
 6476 0884 02       		.byte	0x2
 6477 0885 00       		.byte	0
 6478 0886 13       		.uleb128 0x13
 6479 0887 F5060000 		.4byte	0x6f5
 6480 088b 96080000 		.4byte	0x896
 6481 088f 14       		.uleb128 0x14
 6482 0890 B1000000 		.4byte	0xb1
 6483 0894 01       		.byte	0x1
 6484 0895 00       		.byte	0
 6485 0896 13       		.uleb128 0x13
 6486 0897 F9000000 		.4byte	0xf9
 6487 089b A6080000 		.4byte	0x8a6
 6488 089f 14       		.uleb128 0x14
 6489 08a0 B1000000 		.4byte	0xb1
 6490 08a4 0B       		.byte	0xb
 6491 08a5 00       		.byte	0
 6492 08a6 13       		.uleb128 0x13
 6493 08a7 24070000 		.4byte	0x724
 6494 08ab B6080000 		.4byte	0x8b6
 6495 08af 14       		.uleb128 0x14
 6496 08b0 B1000000 		.4byte	0xb1
 6497 08b4 1B       		.byte	0x1b
 6498 08b5 00       		.byte	0
 6499 08b6 1A       		.uleb128 0x1a
 6500 08b7 2D0E0000 		.4byte	.LASF139
 6501 08bb 0A       		.byte	0xa
 6502 08bc 2301     		.2byte	0x123
 6503 08be 30070000 		.4byte	0x730
 6504 08c2 19       		.uleb128 0x19
 6505 08c3 38       		.byte	0x38
 6506 08c4 0A       		.byte	0xa
 6507 08c5 3601     		.2byte	0x136
 6508 08c7 80090000 		.4byte	0x980
 6509 08cb 09       		.uleb128 0x9
 6510 08cc 435200   		.ascii	"CR\000"
 6511 08cf 0A       		.byte	0xa
 6512 08d0 3801     		.2byte	0x138
 6513 08d2 04010000 		.4byte	0x104
 6514 08d6 00       		.byte	0
 6515 08d7 0A       		.uleb128 0xa
 6516 08d8 59190000 		.4byte	.LASF140
 6517 08dc 0A       		.byte	0xa
 6518 08dd 3901     		.2byte	0x139
 6519 08df 04010000 		.4byte	0x104
 6520 08e3 04       		.byte	0x4
 6521 08e4 0A       		.uleb128 0xa
 6522 08e5 A3230000 		.4byte	.LASF141
 6523 08e9 0A       		.byte	0xa
 6524 08ea 3A01     		.2byte	0x13a
 6525 08ec 04010000 		.4byte	0x104
 6526 08f0 08       		.byte	0x8
 6527 08f1 0A       		.uleb128 0xa
 6528 08f2 D61E0000 		.4byte	.LASF142
 6529 08f6 0A       		.byte	0xa
 6530 08f7 3B01     		.2byte	0x13b
ARM GAS  /var/folders/bw/wdbp2_bd0pn7gl5ybd33xbb80000gn/T//ccZ5cvgj.s 			page 121


 6531 08f9 04010000 		.4byte	0x104
 6532 08fd 0C       		.byte	0xc
 6533 08fe 0A       		.uleb128 0xa
 6534 08ff 310B0000 		.4byte	.LASF143
 6535 0903 0A       		.byte	0xa
 6536 0904 3C01     		.2byte	0x13c
 6537 0906 04010000 		.4byte	0x104
 6538 090a 10       		.byte	0x10
 6539 090b 0A       		.uleb128 0xa
 6540 090c AB230000 		.4byte	.LASF144
 6541 0910 0A       		.byte	0xa
 6542 0911 3D01     		.2byte	0x13d
 6543 0913 04010000 		.4byte	0x104
 6544 0917 14       		.byte	0x14
 6545 0918 0A       		.uleb128 0xa
 6546 0919 DE1E0000 		.4byte	.LASF145
 6547 091d 0A       		.byte	0xa
 6548 091e 3E01     		.2byte	0x13e
 6549 0920 04010000 		.4byte	0x104
 6550 0924 18       		.byte	0x18
 6551 0925 0A       		.uleb128 0xa
 6552 0926 380B0000 		.4byte	.LASF146
 6553 092a 0A       		.byte	0xa
 6554 092b 3F01     		.2byte	0x13f
 6555 092d 04010000 		.4byte	0x104
 6556 0931 1C       		.byte	0x1c
 6557 0932 0A       		.uleb128 0xa
 6558 0933 05240000 		.4byte	.LASF147
 6559 0937 0A       		.byte	0xa
 6560 0938 4001     		.2byte	0x140
 6561 093a 04010000 		.4byte	0x104
 6562 093e 20       		.byte	0x20
 6563 093f 0A       		.uleb128 0xa
 6564 0940 201F0000 		.4byte	.LASF148
 6565 0944 0A       		.byte	0xa
 6566 0945 4101     		.2byte	0x141
 6567 0947 04010000 		.4byte	0x104
 6568 094b 24       		.byte	0x24
 6569 094c 0A       		.uleb128 0xa
 6570 094d B6270000 		.4byte	.LASF149
 6571 0951 0A       		.byte	0xa
 6572 0952 4201     		.2byte	0x142
 6573 0954 04010000 		.4byte	0x104
 6574 0958 28       		.byte	0x28
 6575 0959 0A       		.uleb128 0xa
 6576 095a FB010000 		.4byte	.LASF150
 6577 095e 0A       		.byte	0xa
 6578 095f 4301     		.2byte	0x143
 6579 0961 04010000 		.4byte	0x104
 6580 0965 2C       		.byte	0x2c
 6581 0966 0A       		.uleb128 0xa
 6582 0967 00020000 		.4byte	.LASF151
 6583 096b 0A       		.byte	0xa
 6584 096c 4401     		.2byte	0x144
 6585 096e 04010000 		.4byte	0x104
 6586 0972 30       		.byte	0x30
 6587 0973 09       		.uleb128 0x9
ARM GAS  /var/folders/bw/wdbp2_bd0pn7gl5ybd33xbb80000gn/T//ccZ5cvgj.s 			page 122


 6588 0974 535200   		.ascii	"SR\000"
 6589 0977 0A       		.byte	0xa
 6590 0978 4501     		.2byte	0x145
 6591 097a 04010000 		.4byte	0x104
 6592 097e 34       		.byte	0x34
 6593 097f 00       		.byte	0
 6594 0980 1A       		.uleb128 0x1a
 6595 0981 B2200000 		.4byte	.LASF152
 6596 0985 0A       		.byte	0xa
 6597 0986 4601     		.2byte	0x146
 6598 0988 C2080000 		.4byte	0x8c2
 6599 098c 19       		.uleb128 0x19
 6600 098d 2C       		.byte	0x2c
 6601 098e 0A       		.byte	0xa
 6602 098f 5801     		.2byte	0x158
 6603 0991 220A0000 		.4byte	0xa22
 6604 0995 09       		.uleb128 0x9
 6605 0996 435200   		.ascii	"CR\000"
 6606 0999 0A       		.byte	0xa
 6607 099a 5A01     		.2byte	0x15a
 6608 099c 04010000 		.4byte	0x104
 6609 09a0 00       		.byte	0
 6610 09a1 09       		.uleb128 0x9
 6611 09a2 535200   		.ascii	"SR\000"
 6612 09a5 0A       		.byte	0xa
 6613 09a6 5B01     		.2byte	0x15b
 6614 09a8 04010000 		.4byte	0x104
 6615 09ac 04       		.byte	0x4
 6616 09ad 0A       		.uleb128 0xa
 6617 09ae 7D0A0000 		.4byte	.LASF153
 6618 09b2 0A       		.byte	0xa
 6619 09b3 5C01     		.2byte	0x15c
 6620 09b5 04010000 		.4byte	0x104
 6621 09b9 08       		.byte	0x8
 6622 09ba 09       		.uleb128 0x9
 6623 09bb 49455200 		.ascii	"IER\000"
 6624 09bf 0A       		.byte	0xa
 6625 09c0 5D01     		.2byte	0x15d
 6626 09c2 04010000 		.4byte	0x104
 6627 09c6 0C       		.byte	0xc
 6628 09c7 0A       		.uleb128 0xa
 6629 09c8 49240000 		.4byte	.LASF154
 6630 09cc 0A       		.byte	0xa
 6631 09cd 5E01     		.2byte	0x15e
 6632 09cf 04010000 		.4byte	0x104
 6633 09d3 10       		.byte	0x10
 6634 09d4 09       		.uleb128 0x9
 6635 09d5 49435200 		.ascii	"ICR\000"
 6636 09d9 0A       		.byte	0xa
 6637 09da 5F01     		.2byte	0x15f
 6638 09dc 04010000 		.4byte	0x104
 6639 09e0 14       		.byte	0x14
 6640 09e1 0A       		.uleb128 0xa
 6641 09e2 381D0000 		.4byte	.LASF155
 6642 09e6 0A       		.byte	0xa
 6643 09e7 6001     		.2byte	0x160
 6644 09e9 04010000 		.4byte	0x104
ARM GAS  /var/folders/bw/wdbp2_bd0pn7gl5ybd33xbb80000gn/T//ccZ5cvgj.s 			page 123


 6645 09ed 18       		.byte	0x18
 6646 09ee 0A       		.uleb128 0xa
 6647 09ef A3290000 		.4byte	.LASF156
 6648 09f3 0A       		.byte	0xa
 6649 09f4 6101     		.2byte	0x161
 6650 09f6 04010000 		.4byte	0x104
 6651 09fa 1C       		.byte	0x1c
 6652 09fb 0A       		.uleb128 0xa
 6653 09fc 8C140000 		.4byte	.LASF157
 6654 0a00 0A       		.byte	0xa
 6655 0a01 6201     		.2byte	0x162
 6656 0a03 04010000 		.4byte	0x104
 6657 0a07 20       		.byte	0x20
 6658 0a08 0A       		.uleb128 0xa
 6659 0a09 FD1D0000 		.4byte	.LASF158
 6660 0a0d 0A       		.byte	0xa
 6661 0a0e 6301     		.2byte	0x163
 6662 0a10 04010000 		.4byte	0x104
 6663 0a14 24       		.byte	0x24
 6664 0a15 09       		.uleb128 0x9
 6665 0a16 445200   		.ascii	"DR\000"
 6666 0a19 0A       		.byte	0xa
 6667 0a1a 6401     		.2byte	0x164
 6668 0a1c 04010000 		.4byte	0x104
 6669 0a20 28       		.byte	0x28
 6670 0a21 00       		.byte	0
 6671 0a22 1A       		.uleb128 0x1a
 6672 0a23 EF040000 		.4byte	.LASF159
 6673 0a27 0A       		.byte	0xa
 6674 0a28 6501     		.2byte	0x165
 6675 0a2a 8C090000 		.4byte	0x98c
 6676 0a2e 19       		.uleb128 0x19
 6677 0a2f 18       		.byte	0x18
 6678 0a30 0A       		.byte	0xa
 6679 0a31 6B01     		.2byte	0x16b
 6680 0a33 850A0000 		.4byte	0xa85
 6681 0a37 09       		.uleb128 0x9
 6682 0a38 435200   		.ascii	"CR\000"
 6683 0a3b 0A       		.byte	0xa
 6684 0a3c 6D01     		.2byte	0x16d
 6685 0a3e 04010000 		.4byte	0x104
 6686 0a42 00       		.byte	0
 6687 0a43 0A       		.uleb128 0xa
 6688 0a44 AD240000 		.4byte	.LASF160
 6689 0a48 0A       		.byte	0xa
 6690 0a49 6E01     		.2byte	0x16e
 6691 0a4b 04010000 		.4byte	0x104
 6692 0a4f 04       		.byte	0x4
 6693 0a50 09       		.uleb128 0x9
 6694 0a51 50415200 		.ascii	"PAR\000"
 6695 0a55 0A       		.byte	0xa
 6696 0a56 6F01     		.2byte	0x16f
 6697 0a58 04010000 		.4byte	0x104
 6698 0a5c 08       		.byte	0x8
 6699 0a5d 0A       		.uleb128 0xa
 6700 0a5e BA040000 		.4byte	.LASF161
 6701 0a62 0A       		.byte	0xa
ARM GAS  /var/folders/bw/wdbp2_bd0pn7gl5ybd33xbb80000gn/T//ccZ5cvgj.s 			page 124


 6702 0a63 7001     		.2byte	0x170
 6703 0a65 04010000 		.4byte	0x104
 6704 0a69 0C       		.byte	0xc
 6705 0a6a 0A       		.uleb128 0xa
 6706 0a6b 03090000 		.4byte	.LASF162
 6707 0a6f 0A       		.byte	0xa
 6708 0a70 7101     		.2byte	0x171
 6709 0a72 04010000 		.4byte	0x104
 6710 0a76 10       		.byte	0x10
 6711 0a77 09       		.uleb128 0x9
 6712 0a78 46435200 		.ascii	"FCR\000"
 6713 0a7c 0A       		.byte	0xa
 6714 0a7d 7201     		.2byte	0x172
 6715 0a7f 04010000 		.4byte	0x104
 6716 0a83 14       		.byte	0x14
 6717 0a84 00       		.byte	0
 6718 0a85 1A       		.uleb128 0x1a
 6719 0a86 0D090000 		.4byte	.LASF163
 6720 0a8a 0A       		.byte	0xa
 6721 0a8b 7301     		.2byte	0x173
 6722 0a8d 2E0A0000 		.4byte	0xa2e
 6723 0a91 13       		.uleb128 0x13
 6724 0a92 04010000 		.4byte	0x104
 6725 0a96 A10A0000 		.4byte	0xaa1
 6726 0a9a 14       		.uleb128 0x14
 6727 0a9b B1000000 		.4byte	0xb1
 6728 0a9f 01       		.byte	0x1
 6729 0aa0 00       		.byte	0
 6730 0aa1 06       		.uleb128 0x6
 6731 0aa2 910A0000 		.4byte	0xa91
 6732 0aa6 13       		.uleb128 0x13
 6733 0aa7 04010000 		.4byte	0x104
 6734 0aab B60A0000 		.4byte	0xab6
 6735 0aaf 14       		.uleb128 0x14
 6736 0ab0 B1000000 		.4byte	0xb1
 6737 0ab4 03       		.byte	0x3
 6738 0ab5 00       		.byte	0
 6739 0ab6 06       		.uleb128 0x6
 6740 0ab7 A60A0000 		.4byte	0xaa6
 6741 0abb 19       		.uleb128 0x19
 6742 0abc 28       		.byte	0x28
 6743 0abd 0A       		.byte	0xa
 6744 0abe 3F02     		.2byte	0x23f
 6745 0ac0 460B0000 		.4byte	0xb46
 6746 0ac4 09       		.uleb128 0x9
 6747 0ac5 43523100 		.ascii	"CR1\000"
 6748 0ac9 0A       		.byte	0xa
 6749 0aca 4102     		.2byte	0x241
 6750 0acc 04010000 		.4byte	0x104
 6751 0ad0 00       		.byte	0
 6752 0ad1 09       		.uleb128 0x9
 6753 0ad2 43523200 		.ascii	"CR2\000"
 6754 0ad6 0A       		.byte	0xa
 6755 0ad7 4202     		.2byte	0x242
 6756 0ad9 04010000 		.4byte	0x104
 6757 0add 04       		.byte	0x4
 6758 0ade 0A       		.uleb128 0xa
ARM GAS  /var/folders/bw/wdbp2_bd0pn7gl5ybd33xbb80000gn/T//ccZ5cvgj.s 			page 125


 6759 0adf B82A0000 		.4byte	.LASF164
 6760 0ae3 0A       		.byte	0xa
 6761 0ae4 4302     		.2byte	0x243
 6762 0ae6 04010000 		.4byte	0x104
 6763 0aea 08       		.byte	0x8
 6764 0aeb 0A       		.uleb128 0xa
 6765 0aec BD2A0000 		.4byte	.LASF165
 6766 0af0 0A       		.byte	0xa
 6767 0af1 4402     		.2byte	0x244
 6768 0af3 04010000 		.4byte	0x104
 6769 0af7 0C       		.byte	0xc
 6770 0af8 09       		.uleb128 0x9
 6771 0af9 445200   		.ascii	"DR\000"
 6772 0afc 0A       		.byte	0xa
 6773 0afd 4502     		.2byte	0x245
 6774 0aff 04010000 		.4byte	0x104
 6775 0b03 10       		.byte	0x10
 6776 0b04 09       		.uleb128 0x9
 6777 0b05 53523100 		.ascii	"SR1\000"
 6778 0b09 0A       		.byte	0xa
 6779 0b0a 4602     		.2byte	0x246
 6780 0b0c 04010000 		.4byte	0x104
 6781 0b10 14       		.byte	0x14
 6782 0b11 09       		.uleb128 0x9
 6783 0b12 53523200 		.ascii	"SR2\000"
 6784 0b16 0A       		.byte	0xa
 6785 0b17 4702     		.2byte	0x247
 6786 0b19 04010000 		.4byte	0x104
 6787 0b1d 18       		.byte	0x18
 6788 0b1e 09       		.uleb128 0x9
 6789 0b1f 43435200 		.ascii	"CCR\000"
 6790 0b23 0A       		.byte	0xa
 6791 0b24 4802     		.2byte	0x248
 6792 0b26 04010000 		.4byte	0x104
 6793 0b2a 1C       		.byte	0x1c
 6794 0b2b 0A       		.uleb128 0xa
 6795 0b2c E2050000 		.4byte	.LASF166
 6796 0b30 0A       		.byte	0xa
 6797 0b31 4902     		.2byte	0x249
 6798 0b33 04010000 		.4byte	0x104
 6799 0b37 20       		.byte	0x20
 6800 0b38 0A       		.uleb128 0xa
 6801 0b39 1E290000 		.4byte	.LASF167
 6802 0b3d 0A       		.byte	0xa
 6803 0b3e 4A02     		.2byte	0x24a
 6804 0b40 04010000 		.4byte	0x104
 6805 0b44 24       		.byte	0x24
 6806 0b45 00       		.byte	0
 6807 0b46 1A       		.uleb128 0x1a
 6808 0b47 75190000 		.4byte	.LASF168
 6809 0b4b 0A       		.byte	0xa
 6810 0b4c 4B02     		.2byte	0x24b
 6811 0b4e BB0A0000 		.4byte	0xabb
 6812 0b52 19       		.uleb128 0x19
 6813 0b53 84       		.byte	0x84
 6814 0b54 0A       		.byte	0xa
 6815 0b55 BF02     		.2byte	0x2bf
ARM GAS  /var/folders/bw/wdbp2_bd0pn7gl5ybd33xbb80000gn/T//ccZ5cvgj.s 			page 126


 6816 0b57 600C0000 		.4byte	0xc60
 6817 0b5b 0A       		.uleb128 0xa
 6818 0b5c AA190000 		.4byte	.LASF169
 6819 0b60 0A       		.byte	0xa
 6820 0b61 C102     		.2byte	0x2c1
 6821 0b63 04010000 		.4byte	0x104
 6822 0b67 00       		.byte	0
 6823 0b68 0A       		.uleb128 0xa
 6824 0b69 E4250000 		.4byte	.LASF170
 6825 0b6d 0A       		.byte	0xa
 6826 0b6e C202     		.2byte	0x2c2
 6827 0b70 04010000 		.4byte	0x104
 6828 0b74 04       		.byte	0x4
 6829 0b75 09       		.uleb128 0x9
 6830 0b76 41524700 		.ascii	"ARG\000"
 6831 0b7a 0A       		.byte	0xa
 6832 0b7b C302     		.2byte	0x2c3
 6833 0b7d 04010000 		.4byte	0x104
 6834 0b81 08       		.byte	0x8
 6835 0b82 09       		.uleb128 0x9
 6836 0b83 434D4400 		.ascii	"CMD\000"
 6837 0b87 0A       		.byte	0xa
 6838 0b88 C402     		.2byte	0x2c4
 6839 0b8a 04010000 		.4byte	0x104
 6840 0b8e 0C       		.byte	0xc
 6841 0b8f 0A       		.uleb128 0xa
 6842 0b90 FA1C0000 		.4byte	.LASF171
 6843 0b94 0A       		.byte	0xa
 6844 0b95 C502     		.2byte	0x2c5
 6845 0b97 09010000 		.4byte	0x109
 6846 0b9b 10       		.byte	0x10
 6847 0b9c 0A       		.uleb128 0xa
 6848 0b9d FA060000 		.4byte	.LASF172
 6849 0ba1 0A       		.byte	0xa
 6850 0ba2 C602     		.2byte	0x2c6
 6851 0ba4 09010000 		.4byte	0x109
 6852 0ba8 14       		.byte	0x14
 6853 0ba9 0A       		.uleb128 0xa
 6854 0baa 00070000 		.4byte	.LASF173
 6855 0bae 0A       		.byte	0xa
 6856 0baf C702     		.2byte	0x2c7
 6857 0bb1 09010000 		.4byte	0x109
 6858 0bb5 18       		.byte	0x18
 6859 0bb6 0A       		.uleb128 0xa
 6860 0bb7 06070000 		.4byte	.LASF174
 6861 0bbb 0A       		.byte	0xa
 6862 0bbc C802     		.2byte	0x2c8
 6863 0bbe 09010000 		.4byte	0x109
 6864 0bc2 1C       		.byte	0x1c
 6865 0bc3 0A       		.uleb128 0xa
 6866 0bc4 0C070000 		.4byte	.LASF175
 6867 0bc8 0A       		.byte	0xa
 6868 0bc9 C902     		.2byte	0x2c9
 6869 0bcb 09010000 		.4byte	0x109
 6870 0bcf 20       		.byte	0x20
 6871 0bd0 0A       		.uleb128 0xa
 6872 0bd1 2D160000 		.4byte	.LASF176
ARM GAS  /var/folders/bw/wdbp2_bd0pn7gl5ybd33xbb80000gn/T//ccZ5cvgj.s 			page 127


 6873 0bd5 0A       		.byte	0xa
 6874 0bd6 CA02     		.2byte	0x2ca
 6875 0bd8 04010000 		.4byte	0x104
 6876 0bdc 24       		.byte	0x24
 6877 0bdd 0A       		.uleb128 0xa
 6878 0bde D6170000 		.4byte	.LASF177
 6879 0be2 0A       		.byte	0xa
 6880 0be3 CB02     		.2byte	0x2cb
 6881 0be5 04010000 		.4byte	0x104
 6882 0be9 28       		.byte	0x28
 6883 0bea 0A       		.uleb128 0xa
 6884 0beb 0A290000 		.4byte	.LASF178
 6885 0bef 0A       		.byte	0xa
 6886 0bf0 CC02     		.2byte	0x2cc
 6887 0bf2 04010000 		.4byte	0x104
 6888 0bf6 2C       		.byte	0x2c
 6889 0bf7 0A       		.uleb128 0xa
 6890 0bf8 B12A0000 		.4byte	.LASF179
 6891 0bfc 0A       		.byte	0xa
 6892 0bfd CD02     		.2byte	0x2cd
 6893 0bff 09010000 		.4byte	0x109
 6894 0c03 30       		.byte	0x30
 6895 0c04 09       		.uleb128 0x9
 6896 0c05 53544100 		.ascii	"STA\000"
 6897 0c09 0A       		.byte	0xa
 6898 0c0a CE02     		.2byte	0x2ce
 6899 0c0c 09010000 		.4byte	0x109
 6900 0c10 34       		.byte	0x34
 6901 0c11 09       		.uleb128 0x9
 6902 0c12 49435200 		.ascii	"ICR\000"
 6903 0c16 0A       		.byte	0xa
 6904 0c17 CF02     		.2byte	0x2cf
 6905 0c19 04010000 		.4byte	0x104
 6906 0c1d 38       		.byte	0x38
 6907 0c1e 0A       		.uleb128 0xa
 6908 0c1f 39020000 		.4byte	.LASF180
 6909 0c23 0A       		.byte	0xa
 6910 0c24 D002     		.2byte	0x2d0
 6911 0c26 04010000 		.4byte	0x104
 6912 0c2a 3C       		.byte	0x3c
 6913 0c2b 0A       		.uleb128 0xa
 6914 0c2c 55230000 		.4byte	.LASF126
 6915 0c30 0A       		.byte	0xa
 6916 0c31 D102     		.2byte	0x2d1
 6917 0c33 3F050000 		.4byte	0x53f
 6918 0c37 40       		.byte	0x40
 6919 0c38 0A       		.uleb128 0xa
 6920 0c39 CF160000 		.4byte	.LASF181
 6921 0c3d 0A       		.byte	0xa
 6922 0c3e D202     		.2byte	0x2d2
 6923 0c40 09010000 		.4byte	0x109
 6924 0c44 48       		.byte	0x48
 6925 0c45 0A       		.uleb128 0xa
 6926 0c46 5F230000 		.4byte	.LASF129
 6927 0c4a 0A       		.byte	0xa
 6928 0c4b D302     		.2byte	0x2d3
 6929 0c4d 600C0000 		.4byte	0xc60
ARM GAS  /var/folders/bw/wdbp2_bd0pn7gl5ybd33xbb80000gn/T//ccZ5cvgj.s 			page 128


 6930 0c51 4C       		.byte	0x4c
 6931 0c52 0A       		.uleb128 0xa
 6932 0c53 660A0000 		.4byte	.LASF182
 6933 0c57 0A       		.byte	0xa
 6934 0c58 D402     		.2byte	0x2d4
 6935 0c5a 04010000 		.4byte	0x104
 6936 0c5e 80       		.byte	0x80
 6937 0c5f 00       		.byte	0
 6938 0c60 13       		.uleb128 0x13
 6939 0c61 F9000000 		.4byte	0xf9
 6940 0c65 700C0000 		.4byte	0xc70
 6941 0c69 14       		.uleb128 0x14
 6942 0c6a B1000000 		.4byte	0xb1
 6943 0c6e 0C       		.byte	0xc
 6944 0c6f 00       		.byte	0
 6945 0c70 1A       		.uleb128 0x1a
 6946 0c71 92240000 		.4byte	.LASF183
 6947 0c75 0A       		.byte	0xa
 6948 0c76 D502     		.2byte	0x2d5
 6949 0c78 520B0000 		.4byte	0xb52
 6950 0c7c 19       		.uleb128 0x19
 6951 0c7d 24       		.byte	0x24
 6952 0c7e 0A       		.byte	0xa
 6953 0c7f DB02     		.2byte	0x2db
 6954 0c81 F90C0000 		.4byte	0xcf9
 6955 0c85 09       		.uleb128 0x9
 6956 0c86 43523100 		.ascii	"CR1\000"
 6957 0c8a 0A       		.byte	0xa
 6958 0c8b DD02     		.2byte	0x2dd
 6959 0c8d 04010000 		.4byte	0x104
 6960 0c91 00       		.byte	0
 6961 0c92 09       		.uleb128 0x9
 6962 0c93 43523200 		.ascii	"CR2\000"
 6963 0c97 0A       		.byte	0xa
 6964 0c98 DE02     		.2byte	0x2de
 6965 0c9a 04010000 		.4byte	0x104
 6966 0c9e 04       		.byte	0x4
 6967 0c9f 09       		.uleb128 0x9
 6968 0ca0 535200   		.ascii	"SR\000"
 6969 0ca3 0A       		.byte	0xa
 6970 0ca4 DF02     		.2byte	0x2df
 6971 0ca6 04010000 		.4byte	0x104
 6972 0caa 08       		.byte	0x8
 6973 0cab 09       		.uleb128 0x9
 6974 0cac 445200   		.ascii	"DR\000"
 6975 0caf 0A       		.byte	0xa
 6976 0cb0 E002     		.2byte	0x2e0
 6977 0cb2 04010000 		.4byte	0x104
 6978 0cb6 0C       		.byte	0xc
 6979 0cb7 0A       		.uleb128 0xa
 6980 0cb8 7F080000 		.4byte	.LASF184
 6981 0cbc 0A       		.byte	0xa
 6982 0cbd E102     		.2byte	0x2e1
 6983 0cbf 04010000 		.4byte	0x104
 6984 0cc3 10       		.byte	0x10
 6985 0cc4 0A       		.uleb128 0xa
 6986 0cc5 9D0C0000 		.4byte	.LASF185
ARM GAS  /var/folders/bw/wdbp2_bd0pn7gl5ybd33xbb80000gn/T//ccZ5cvgj.s 			page 129


 6987 0cc9 0A       		.byte	0xa
 6988 0cca E202     		.2byte	0x2e2
 6989 0ccc 04010000 		.4byte	0x104
 6990 0cd0 14       		.byte	0x14
 6991 0cd1 0A       		.uleb128 0xa
 6992 0cd2 960B0000 		.4byte	.LASF186
 6993 0cd6 0A       		.byte	0xa
 6994 0cd7 E302     		.2byte	0x2e3
 6995 0cd9 04010000 		.4byte	0x104
 6996 0cdd 18       		.byte	0x18
 6997 0cde 0A       		.uleb128 0xa
 6998 0cdf A6260000 		.4byte	.LASF187
 6999 0ce3 0A       		.byte	0xa
 7000 0ce4 E402     		.2byte	0x2e4
 7001 0ce6 04010000 		.4byte	0x104
 7002 0cea 1C       		.byte	0x1c
 7003 0ceb 0A       		.uleb128 0xa
 7004 0cec 22080000 		.4byte	.LASF188
 7005 0cf0 0A       		.byte	0xa
 7006 0cf1 E502     		.2byte	0x2e5
 7007 0cf3 04010000 		.4byte	0x104
 7008 0cf7 20       		.byte	0x20
 7009 0cf8 00       		.byte	0
 7010 0cf9 1A       		.uleb128 0x1a
 7011 0cfa E8240000 		.4byte	.LASF189
 7012 0cfe 0A       		.byte	0xa
 7013 0cff E602     		.2byte	0x2e6
 7014 0d01 7C0C0000 		.4byte	0xc7c
 7015 0d05 19       		.uleb128 0x19
 7016 0d06 1C       		.byte	0x1c
 7017 0d07 0A       		.byte	0xa
 7018 0d08 0903     		.2byte	0x309
 7019 0d0a 680D0000 		.4byte	0xd68
 7020 0d0e 09       		.uleb128 0x9
 7021 0d0f 535200   		.ascii	"SR\000"
 7022 0d12 0A       		.byte	0xa
 7023 0d13 0B03     		.2byte	0x30b
 7024 0d15 04010000 		.4byte	0x104
 7025 0d19 00       		.byte	0
 7026 0d1a 09       		.uleb128 0x9
 7027 0d1b 445200   		.ascii	"DR\000"
 7028 0d1e 0A       		.byte	0xa
 7029 0d1f 0C03     		.2byte	0x30c
 7030 0d21 04010000 		.4byte	0x104
 7031 0d25 04       		.byte	0x4
 7032 0d26 09       		.uleb128 0x9
 7033 0d27 42525200 		.ascii	"BRR\000"
 7034 0d2b 0A       		.byte	0xa
 7035 0d2c 0D03     		.2byte	0x30d
 7036 0d2e 04010000 		.4byte	0x104
 7037 0d32 08       		.byte	0x8
 7038 0d33 09       		.uleb128 0x9
 7039 0d34 43523100 		.ascii	"CR1\000"
 7040 0d38 0A       		.byte	0xa
 7041 0d39 0E03     		.2byte	0x30e
 7042 0d3b 04010000 		.4byte	0x104
 7043 0d3f 0C       		.byte	0xc
ARM GAS  /var/folders/bw/wdbp2_bd0pn7gl5ybd33xbb80000gn/T//ccZ5cvgj.s 			page 130


 7044 0d40 09       		.uleb128 0x9
 7045 0d41 43523200 		.ascii	"CR2\000"
 7046 0d45 0A       		.byte	0xa
 7047 0d46 0F03     		.2byte	0x30f
 7048 0d48 04010000 		.4byte	0x104
 7049 0d4c 10       		.byte	0x10
 7050 0d4d 09       		.uleb128 0x9
 7051 0d4e 43523300 		.ascii	"CR3\000"
 7052 0d52 0A       		.byte	0xa
 7053 0d53 1003     		.2byte	0x310
 7054 0d55 04010000 		.4byte	0x104
 7055 0d59 14       		.byte	0x14
 7056 0d5a 0A       		.uleb128 0xa
 7057 0d5b E1280000 		.4byte	.LASF190
 7058 0d5f 0A       		.byte	0xa
 7059 0d60 1103     		.2byte	0x311
 7060 0d62 04010000 		.4byte	0x104
 7061 0d66 18       		.byte	0x18
 7062 0d67 00       		.byte	0
 7063 0d68 1A       		.uleb128 0x1a
 7064 0d69 E3290000 		.4byte	.LASF191
 7065 0d6d 0A       		.byte	0xa
 7066 0d6e 1203     		.2byte	0x312
 7067 0d70 050D0000 		.4byte	0xd05
 7068 0d74 13       		.uleb128 0x13
 7069 0d75 04010000 		.4byte	0x104
 7070 0d79 840D0000 		.4byte	0xd84
 7071 0d7d 14       		.uleb128 0x14
 7072 0d7e B1000000 		.4byte	0xb1
 7073 0d82 0E       		.byte	0xe
 7074 0d83 00       		.byte	0
 7075 0d84 06       		.uleb128 0x6
 7076 0d85 740D0000 		.4byte	0xd74
 7077 0d89 02       		.uleb128 0x2
 7078 0d8a 351C0000 		.4byte	.LASF192
 7079 0d8e 0B       		.byte	0xb
 7080 0d8f 65       		.byte	0x65
 7081 0d90 D0030000 		.4byte	0x3d0
 7082 0d94 02       		.uleb128 0x2
 7083 0d95 040A0000 		.4byte	.LASF193
 7084 0d99 0B       		.byte	0xb
 7085 0d9a 6D       		.byte	0x6d
 7086 0d9b 0E010000 		.4byte	0x10e
 7087 0d9f 07       		.uleb128 0x7
 7088 0da0 971B0000 		.4byte	.LASF194
 7089 0da4 04       		.byte	0x4
 7090 0da5 0B       		.byte	0xb
 7091 0da6 89       		.byte	0x89
 7092 0da7 B80D0000 		.4byte	0xdb8
 7093 0dab 18       		.uleb128 0x18
 7094 0dac 72313300 		.ascii	"r13\000"
 7095 0db0 0B       		.byte	0xb
 7096 0db1 8A       		.byte	0x8a
 7097 0db2 F90E0000 		.4byte	0xef9
 7098 0db6 00       		.byte	0
 7099 0db7 00       		.byte	0
 7100 0db8 07       		.uleb128 0x7
ARM GAS  /var/folders/bw/wdbp2_bd0pn7gl5ybd33xbb80000gn/T//ccZ5cvgj.s 			page 131


 7101 0db9 09000000 		.4byte	.LASF195
 7102 0dbd 64       		.byte	0x64
 7103 0dbe 0C       		.byte	0xc
 7104 0dbf F4       		.byte	0xf4
 7105 0dc0 F90E0000 		.4byte	0xef9
 7106 0dc4 18       		.uleb128 0x18
 7107 0dc5 73313600 		.ascii	"s16\000"
 7108 0dc9 0C       		.byte	0xc
 7109 0dca F6       		.byte	0xf6
 7110 0dcb 890D0000 		.4byte	0xd89
 7111 0dcf 00       		.byte	0
 7112 0dd0 18       		.uleb128 0x18
 7113 0dd1 73313700 		.ascii	"s17\000"
 7114 0dd5 0C       		.byte	0xc
 7115 0dd6 F7       		.byte	0xf7
 7116 0dd7 890D0000 		.4byte	0xd89
 7117 0ddb 04       		.byte	0x4
 7118 0ddc 18       		.uleb128 0x18
 7119 0ddd 73313800 		.ascii	"s18\000"
 7120 0de1 0C       		.byte	0xc
 7121 0de2 F8       		.byte	0xf8
 7122 0de3 890D0000 		.4byte	0xd89
 7123 0de7 08       		.byte	0x8
 7124 0de8 18       		.uleb128 0x18
 7125 0de9 73313900 		.ascii	"s19\000"
 7126 0ded 0C       		.byte	0xc
 7127 0dee F9       		.byte	0xf9
 7128 0def 890D0000 		.4byte	0xd89
 7129 0df3 0C       		.byte	0xc
 7130 0df4 18       		.uleb128 0x18
 7131 0df5 73323000 		.ascii	"s20\000"
 7132 0df9 0C       		.byte	0xc
 7133 0dfa FA       		.byte	0xfa
 7134 0dfb 890D0000 		.4byte	0xd89
 7135 0dff 10       		.byte	0x10
 7136 0e00 18       		.uleb128 0x18
 7137 0e01 73323100 		.ascii	"s21\000"
 7138 0e05 0C       		.byte	0xc
 7139 0e06 FB       		.byte	0xfb
 7140 0e07 890D0000 		.4byte	0xd89
 7141 0e0b 14       		.byte	0x14
 7142 0e0c 18       		.uleb128 0x18
 7143 0e0d 73323200 		.ascii	"s22\000"
 7144 0e11 0C       		.byte	0xc
 7145 0e12 FC       		.byte	0xfc
 7146 0e13 890D0000 		.4byte	0xd89
 7147 0e17 18       		.byte	0x18
 7148 0e18 18       		.uleb128 0x18
 7149 0e19 73323300 		.ascii	"s23\000"
 7150 0e1d 0C       		.byte	0xc
 7151 0e1e FD       		.byte	0xfd
 7152 0e1f 890D0000 		.4byte	0xd89
 7153 0e23 1C       		.byte	0x1c
 7154 0e24 18       		.uleb128 0x18
 7155 0e25 73323400 		.ascii	"s24\000"
 7156 0e29 0C       		.byte	0xc
 7157 0e2a FE       		.byte	0xfe
ARM GAS  /var/folders/bw/wdbp2_bd0pn7gl5ybd33xbb80000gn/T//ccZ5cvgj.s 			page 132


 7158 0e2b 890D0000 		.4byte	0xd89
 7159 0e2f 20       		.byte	0x20
 7160 0e30 18       		.uleb128 0x18
 7161 0e31 73323500 		.ascii	"s25\000"
 7162 0e35 0C       		.byte	0xc
 7163 0e36 FF       		.byte	0xff
 7164 0e37 890D0000 		.4byte	0xd89
 7165 0e3b 24       		.byte	0x24
 7166 0e3c 09       		.uleb128 0x9
 7167 0e3d 73323600 		.ascii	"s26\000"
 7168 0e41 0C       		.byte	0xc
 7169 0e42 0001     		.2byte	0x100
 7170 0e44 890D0000 		.4byte	0xd89
 7171 0e48 28       		.byte	0x28
 7172 0e49 09       		.uleb128 0x9
 7173 0e4a 73323700 		.ascii	"s27\000"
 7174 0e4e 0C       		.byte	0xc
 7175 0e4f 0101     		.2byte	0x101
 7176 0e51 890D0000 		.4byte	0xd89
 7177 0e55 2C       		.byte	0x2c
 7178 0e56 09       		.uleb128 0x9
 7179 0e57 73323800 		.ascii	"s28\000"
 7180 0e5b 0C       		.byte	0xc
 7181 0e5c 0201     		.2byte	0x102
 7182 0e5e 890D0000 		.4byte	0xd89
 7183 0e62 30       		.byte	0x30
 7184 0e63 09       		.uleb128 0x9
 7185 0e64 73323900 		.ascii	"s29\000"
 7186 0e68 0C       		.byte	0xc
 7187 0e69 0301     		.2byte	0x103
 7188 0e6b 890D0000 		.4byte	0xd89
 7189 0e6f 34       		.byte	0x34
 7190 0e70 09       		.uleb128 0x9
 7191 0e71 73333000 		.ascii	"s30\000"
 7192 0e75 0C       		.byte	0xc
 7193 0e76 0401     		.2byte	0x104
 7194 0e78 890D0000 		.4byte	0xd89
 7195 0e7c 38       		.byte	0x38
 7196 0e7d 09       		.uleb128 0x9
 7197 0e7e 73333100 		.ascii	"s31\000"
 7198 0e82 0C       		.byte	0xc
 7199 0e83 0501     		.2byte	0x105
 7200 0e85 890D0000 		.4byte	0xd89
 7201 0e89 3C       		.byte	0x3c
 7202 0e8a 09       		.uleb128 0x9
 7203 0e8b 723400   		.ascii	"r4\000"
 7204 0e8e 0C       		.byte	0xc
 7205 0e8f 0701     		.2byte	0x107
 7206 0e91 890D0000 		.4byte	0xd89
 7207 0e95 40       		.byte	0x40
 7208 0e96 09       		.uleb128 0x9
 7209 0e97 723500   		.ascii	"r5\000"
 7210 0e9a 0C       		.byte	0xc
 7211 0e9b 0801     		.2byte	0x108
 7212 0e9d 890D0000 		.4byte	0xd89
 7213 0ea1 44       		.byte	0x44
 7214 0ea2 09       		.uleb128 0x9
ARM GAS  /var/folders/bw/wdbp2_bd0pn7gl5ybd33xbb80000gn/T//ccZ5cvgj.s 			page 133


 7215 0ea3 723600   		.ascii	"r6\000"
 7216 0ea6 0C       		.byte	0xc
 7217 0ea7 0901     		.2byte	0x109
 7218 0ea9 890D0000 		.4byte	0xd89
 7219 0ead 48       		.byte	0x48
 7220 0eae 09       		.uleb128 0x9
 7221 0eaf 723700   		.ascii	"r7\000"
 7222 0eb2 0C       		.byte	0xc
 7223 0eb3 0A01     		.2byte	0x10a
 7224 0eb5 890D0000 		.4byte	0xd89
 7225 0eb9 4C       		.byte	0x4c
 7226 0eba 09       		.uleb128 0x9
 7227 0ebb 723800   		.ascii	"r8\000"
 7228 0ebe 0C       		.byte	0xc
 7229 0ebf 0B01     		.2byte	0x10b
 7230 0ec1 890D0000 		.4byte	0xd89
 7231 0ec5 50       		.byte	0x50
 7232 0ec6 09       		.uleb128 0x9
 7233 0ec7 723900   		.ascii	"r9\000"
 7234 0eca 0C       		.byte	0xc
 7235 0ecb 0C01     		.2byte	0x10c
 7236 0ecd 890D0000 		.4byte	0xd89
 7237 0ed1 54       		.byte	0x54
 7238 0ed2 09       		.uleb128 0x9
 7239 0ed3 72313000 		.ascii	"r10\000"
 7240 0ed7 0C       		.byte	0xc
 7241 0ed8 0D01     		.2byte	0x10d
 7242 0eda 890D0000 		.4byte	0xd89
 7243 0ede 58       		.byte	0x58
 7244 0edf 09       		.uleb128 0x9
 7245 0ee0 72313100 		.ascii	"r11\000"
 7246 0ee4 0C       		.byte	0xc
 7247 0ee5 0E01     		.2byte	0x10e
 7248 0ee7 890D0000 		.4byte	0xd89
 7249 0eeb 5C       		.byte	0x5c
 7250 0eec 09       		.uleb128 0x9
 7251 0eed 6C7200   		.ascii	"lr\000"
 7252 0ef0 0C       		.byte	0xc
 7253 0ef1 0F01     		.2byte	0x10f
 7254 0ef3 890D0000 		.4byte	0xd89
 7255 0ef7 60       		.byte	0x60
 7256 0ef8 00       		.byte	0
 7257 0ef9 0B       		.uleb128 0xb
 7258 0efa 04       		.byte	0x4
 7259 0efb B80D0000 		.4byte	0xdb8
 7260 0eff 17       		.uleb128 0x17
 7261 0f00 10       		.byte	0x10
 7262 0f01 0D       		.byte	0xd
 7263 0f02 51       		.byte	0x51
 7264 0f03 380F0000 		.4byte	0xf38
 7265 0f07 08       		.uleb128 0x8
 7266 0f08 C9230000 		.4byte	.LASF196
 7267 0f0c 0D       		.byte	0xd
 7268 0f0d 55       		.byte	0x55
 7269 0f0e AF010000 		.4byte	0x1af
 7270 0f12 00       		.byte	0
 7271 0f13 08       		.uleb128 0x8
ARM GAS  /var/folders/bw/wdbp2_bd0pn7gl5ybd33xbb80000gn/T//ccZ5cvgj.s 			page 134


 7272 0f14 C61C0000 		.4byte	.LASF197
 7273 0f18 0D       		.byte	0xd
 7274 0f19 59       		.byte	0x59
 7275 0f1a F3020000 		.4byte	0x2f3
 7276 0f1e 04       		.byte	0x4
 7277 0f1f 08       		.uleb128 0x8
 7278 0f20 5C0D0000 		.4byte	.LASF198
 7279 0f24 0D       		.byte	0xd
 7280 0f25 5D       		.byte	0x5d
 7281 0f26 D0030000 		.4byte	0x3d0
 7282 0f2a 08       		.byte	0x8
 7283 0f2b 08       		.uleb128 0x8
 7284 0f2c 080B0000 		.4byte	.LASF199
 7285 0f30 0D       		.byte	0xd
 7286 0f31 61       		.byte	0x61
 7287 0f32 C3000000 		.4byte	0xc3
 7288 0f36 0C       		.byte	0xc
 7289 0f37 00       		.byte	0
 7290 0f38 02       		.uleb128 0x2
 7291 0f39 400E0000 		.4byte	.LASF200
 7292 0f3d 0D       		.byte	0xd
 7293 0f3e 62       		.byte	0x62
 7294 0f3f FF0E0000 		.4byte	0xeff
 7295 0f43 1C       		.uleb128 0x1c
 7296 0f44 0804     		.2byte	0x408
 7297 0f46 0D       		.byte	0xd
 7298 0f47 67       		.byte	0x67
 7299 0f48 710F0000 		.4byte	0xf71
 7300 0f4c 08       		.uleb128 0x8
 7301 0f4d 230F0000 		.4byte	.LASF201
 7302 0f51 0D       		.byte	0xd
 7303 0f52 6B       		.byte	0x6b
 7304 0f53 B1000000 		.4byte	0xb1
 7305 0f57 00       		.byte	0
 7306 0f58 08       		.uleb128 0x8
 7307 0f59 FE160000 		.4byte	.LASF202
 7308 0f5d 0D       		.byte	0xd
 7309 0f5e 6F       		.byte	0x6f
 7310 0f5f 710F0000 		.4byte	0xf71
 7311 0f63 04       		.byte	0x4
 7312 0f64 08       		.uleb128 0x8
 7313 0f65 6B0A0000 		.4byte	.LASF203
 7314 0f69 0D       		.byte	0xd
 7315 0f6a 73       		.byte	0x73
 7316 0f6b 770F0000 		.4byte	0xf77
 7317 0f6f 08       		.byte	0x8
 7318 0f70 00       		.byte	0
 7319 0f71 0B       		.uleb128 0xb
 7320 0f72 04       		.byte	0x4
 7321 0f73 380F0000 		.4byte	0xf38
 7322 0f77 13       		.uleb128 0x13
 7323 0f78 380F0000 		.4byte	0xf38
 7324 0f7c 870F0000 		.4byte	0xf87
 7325 0f80 14       		.uleb128 0x14
 7326 0f81 B1000000 		.4byte	0xb1
 7327 0f85 3F       		.byte	0x3f
 7328 0f86 00       		.byte	0
ARM GAS  /var/folders/bw/wdbp2_bd0pn7gl5ybd33xbb80000gn/T//ccZ5cvgj.s 			page 135


 7329 0f87 02       		.uleb128 0x2
 7330 0f88 15000000 		.4byte	.LASF204
 7331 0f8c 0D       		.byte	0xd
 7332 0f8d 74       		.byte	0x74
 7333 0f8e 430F0000 		.4byte	0xf43
 7334 0f92 17       		.uleb128 0x17
 7335 0f93 04       		.byte	0x4
 7336 0f94 0E       		.byte	0xe
 7337 0f95 38       		.byte	0x38
 7338 0f96 A70F0000 		.4byte	0xfa7
 7339 0f9a 08       		.uleb128 0x8
 7340 0f9b 9F240000 		.4byte	.LASF205
 7341 0f9f 0E       		.byte	0xe
 7342 0fa0 3C       		.byte	0x3c
 7343 0fa1 2B010000 		.4byte	0x12b
 7344 0fa5 00       		.byte	0
 7345 0fa6 00       		.byte	0
 7346 0fa7 02       		.uleb128 0x2
 7347 0fa8 BE280000 		.4byte	.LASF206
 7348 0fac 0E       		.byte	0xe
 7349 0fad 3D       		.byte	0x3d
 7350 0fae 920F0000 		.4byte	0xf92
 7351 0fb2 17       		.uleb128 0x17
 7352 0fb3 18       		.byte	0x18
 7353 0fb4 0E       		.byte	0xe
 7354 0fb5 48       		.byte	0x48
 7355 0fb6 F50F0000 		.4byte	0xff5
 7356 0fba 08       		.uleb128 0x8
 7357 0fbb 33080000 		.4byte	.LASF207
 7358 0fbf 0E       		.byte	0xe
 7359 0fc0 49       		.byte	0x49
 7360 0fc1 2B010000 		.4byte	0x12b
 7361 0fc5 00       		.byte	0
 7362 0fc6 08       		.uleb128 0x8
 7363 0fc7 EA010000 		.4byte	.LASF208
 7364 0fcb 0E       		.byte	0xe
 7365 0fcc 4A       		.byte	0x4a
 7366 0fcd 2B010000 		.4byte	0x12b
 7367 0fd1 04       		.byte	0x4
 7368 0fd2 08       		.uleb128 0x8
 7369 0fd3 C51B0000 		.4byte	.LASF209
 7370 0fd7 0E       		.byte	0xe
 7371 0fd8 4B       		.byte	0x4b
 7372 0fd9 2B010000 		.4byte	0x12b
 7373 0fdd 08       		.byte	0x8
 7374 0fde 18       		.uleb128 0x18
 7375 0fdf 6E00     		.ascii	"n\000"
 7376 0fe1 0E       		.byte	0xe
 7377 0fe2 4C       		.byte	0x4c
 7378 0fe3 A4010000 		.4byte	0x1a4
 7379 0fe7 0C       		.byte	0xc
 7380 0fe8 08       		.uleb128 0x8
 7381 0fe9 641B0000 		.4byte	.LASF210
 7382 0fed 0E       		.byte	0xe
 7383 0fee 4D       		.byte	0x4d
 7384 0fef 36010000 		.4byte	0x136
 7385 0ff3 10       		.byte	0x10
ARM GAS  /var/folders/bw/wdbp2_bd0pn7gl5ybd33xbb80000gn/T//ccZ5cvgj.s 			page 136


 7386 0ff4 00       		.byte	0
 7387 0ff5 02       		.uleb128 0x2
 7388 0ff6 3C270000 		.4byte	.LASF211
 7389 0ffa 0E       		.byte	0xe
 7390 0ffb 4E       		.byte	0x4e
 7391 0ffc B20F0000 		.4byte	0xfb2
 7392 1000 17       		.uleb128 0x17
 7393 1001 38       		.byte	0x38
 7394 1002 0F       		.byte	0xf
 7395 1003 38       		.byte	0x38
 7396 1004 39100000 		.4byte	0x1039
 7397 1008 08       		.uleb128 0x8
 7398 1009 70070000 		.4byte	.LASF212
 7399 100d 0F       		.byte	0xf
 7400 100e 39       		.byte	0x39
 7401 100f A4010000 		.4byte	0x1a4
 7402 1013 00       		.byte	0
 7403 1014 08       		.uleb128 0x8
 7404 1015 D40B0000 		.4byte	.LASF213
 7405 1019 0F       		.byte	0xf
 7406 101a 3A       		.byte	0x3a
 7407 101b A4010000 		.4byte	0x1a4
 7408 101f 04       		.byte	0x4
 7409 1020 08       		.uleb128 0x8
 7410 1021 89260000 		.4byte	.LASF214
 7411 1025 0F       		.byte	0xf
 7412 1026 3B       		.byte	0x3b
 7413 1027 F50F0000 		.4byte	0xff5
 7414 102b 08       		.byte	0x8
 7415 102c 08       		.uleb128 0x8
 7416 102d BC000000 		.4byte	.LASF215
 7417 1031 0F       		.byte	0xf
 7418 1032 3D       		.byte	0x3d
 7419 1033 F50F0000 		.4byte	0xff5
 7420 1037 20       		.byte	0x20
 7421 1038 00       		.byte	0
 7422 1039 02       		.uleb128 0x2
 7423 103a FB050000 		.4byte	.LASF216
 7424 103e 0F       		.byte	0xf
 7425 103f 3F       		.byte	0x3f
 7426 1040 00100000 		.4byte	0x1000
 7427 1044 1D       		.uleb128 0x1d
 7428 1045 04       		.byte	0x4
 7429 1046 07       		.byte	0x7
 7430 1047 FA       		.byte	0xfa
 7431 1048 A1100000 		.4byte	0x10a1
 7432 104c 1E       		.uleb128 0x1e
 7433 104d 79120000 		.4byte	.LASF217
 7434 1051 07       		.byte	0x7
 7435 1052 0101     		.2byte	0x101
 7436 1054 78010000 		.4byte	0x178
 7437 1058 1E       		.uleb128 0x1e
 7438 1059 FA080000 		.4byte	.LASF218
 7439 105d 07       		.byte	0x7
 7440 105e 0801     		.2byte	0x108
 7441 1060 78010000 		.4byte	0x178
 7442 1064 1E       		.uleb128 0x1e
ARM GAS  /var/folders/bw/wdbp2_bd0pn7gl5ybd33xbb80000gn/T//ccZ5cvgj.s 			page 137


 7443 1065 BE200000 		.4byte	.LASF219
 7444 1069 07       		.byte	0x7
 7445 106a 0F01     		.2byte	0x10f
 7446 106c D0030000 		.4byte	0x3d0
 7447 1070 1E       		.uleb128 0x1e
 7448 1071 891B0000 		.4byte	.LASF220
 7449 1075 07       		.byte	0x7
 7450 1076 1601     		.2byte	0x116
 7451 1078 A1100000 		.4byte	0x10a1
 7452 107c 1E       		.uleb128 0x1e
 7453 107d 35010000 		.4byte	.LASF221
 7454 1081 07       		.byte	0x7
 7455 1082 1E01     		.2byte	0x11e
 7456 1084 CC100000 		.4byte	0x10cc
 7457 1088 1E       		.uleb128 0x1e
 7458 1089 1F210000 		.4byte	.LASF222
 7459 108d 07       		.byte	0x7
 7460 108e 2701     		.2byte	0x127
 7461 1090 0F110000 		.4byte	0x110f
 7462 1094 1E       		.uleb128 0x1e
 7463 1095 3C250000 		.4byte	.LASF223
 7464 1099 07       		.byte	0x7
 7465 109a 2F01     		.2byte	0x12f
 7466 109c 83010000 		.4byte	0x183
 7467 10a0 00       		.byte	0
 7468 10a1 0B       		.uleb128 0xb
 7469 10a2 04       		.byte	0x4
 7470 10a3 E8020000 		.4byte	0x2e8
 7471 10a7 07       		.uleb128 0x7
 7472 10a8 081A0000 		.4byte	.LASF224
 7473 10ac 0C       		.byte	0xc
 7474 10ad 10       		.byte	0x10
 7475 10ae 34       		.byte	0x34
 7476 10af CC100000 		.4byte	0x10cc
 7477 10b3 08       		.uleb128 0x8
 7478 10b4 81260000 		.4byte	.LASF225
 7479 10b8 10       		.byte	0x10
 7480 10b9 35       		.byte	0x35
 7481 10ba 1D030000 		.4byte	0x31d
 7482 10be 00       		.byte	0
 7483 10bf 08       		.uleb128 0x8
 7484 10c0 820A0000 		.4byte	.LASF226
 7485 10c4 10       		.byte	0x10
 7486 10c5 37       		.byte	0x37
 7487 10c6 99010000 		.4byte	0x199
 7488 10ca 08       		.byte	0x8
 7489 10cb 00       		.byte	0
 7490 10cc 0B       		.uleb128 0xb
 7491 10cd 04       		.byte	0x4
 7492 10ce A7100000 		.4byte	0x10a7
 7493 10d2 07       		.uleb128 0x7
 7494 10d3 CB0C0000 		.4byte	.LASF227
 7495 10d7 14       		.byte	0x14
 7496 10d8 11       		.byte	0x11
 7497 10d9 39       		.byte	0x39
 7498 10da 0F110000 		.4byte	0x110f
 7499 10de 08       		.uleb128 0x8
ARM GAS  /var/folders/bw/wdbp2_bd0pn7gl5ybd33xbb80000gn/T//ccZ5cvgj.s 			page 138


 7500 10df DD1A0000 		.4byte	.LASF228
 7501 10e3 11       		.byte	0x11
 7502 10e4 3A       		.byte	0x3a
 7503 10e5 1D030000 		.4byte	0x31d
 7504 10e9 00       		.byte	0
 7505 10ea 08       		.uleb128 0x8
 7506 10eb C1180000 		.4byte	.LASF229
 7507 10ef 11       		.byte	0x11
 7508 10f0 3C       		.byte	0x3c
 7509 10f1 F3020000 		.4byte	0x2f3
 7510 10f5 08       		.byte	0x8
 7511 10f6 08       		.uleb128 0x8
 7512 10f7 21020000 		.4byte	.LASF230
 7513 10fb 11       		.byte	0x11
 7514 10fc 3E       		.byte	0x3e
 7515 10fd 6A120000 		.4byte	0x126a
 7516 1101 0C       		.byte	0xc
 7517 1102 08       		.uleb128 0x8
 7518 1103 80090000 		.4byte	.LASF231
 7519 1107 11       		.byte	0x11
 7520 1108 41       		.byte	0x41
 7521 1109 99010000 		.4byte	0x199
 7522 110d 10       		.byte	0x10
 7523 110e 00       		.byte	0
 7524 110f 0B       		.uleb128 0xb
 7525 1110 04       		.byte	0x4
 7526 1111 D2100000 		.4byte	0x10d2
 7527 1115 0B       		.uleb128 0xb
 7528 1116 04       		.byte	0x4
 7529 1117 27110000 		.4byte	0x1127
 7530 111b 06       		.uleb128 0x6
 7531 111c 15110000 		.4byte	0x1115
 7532 1120 03       		.uleb128 0x3
 7533 1121 01       		.byte	0x1
 7534 1122 08       		.byte	0x8
 7535 1123 211D0000 		.4byte	.LASF232
 7536 1127 05       		.uleb128 0x5
 7537 1128 20110000 		.4byte	0x1120
 7538 112c 0B       		.uleb128 0xb
 7539 112d 04       		.byte	0x4
 7540 112e 940D0000 		.4byte	0xd94
 7541 1132 0B       		.uleb128 0xb
 7542 1133 04       		.byte	0x4
 7543 1134 D2030000 		.4byte	0x3d2
 7544 1138 13       		.uleb128 0x13
 7545 1139 940D0000 		.4byte	0xd94
 7546 113d 48110000 		.4byte	0x1148
 7547 1141 14       		.uleb128 0x14
 7548 1142 B1000000 		.4byte	0xb1
 7549 1146 30       		.byte	0x30
 7550 1147 00       		.byte	0
 7551 1148 1F       		.uleb128 0x1f
 7552 1149 636800   		.ascii	"ch\000"
 7553 114c 07       		.byte	0x7
 7554 114d 0902     		.2byte	0x209
 7555 114f C7040000 		.4byte	0x4c7
 7556 1153 17       		.uleb128 0x17
ARM GAS  /var/folders/bw/wdbp2_bd0pn7gl5ybd33xbb80000gn/T//ccZ5cvgj.s 			page 139


 7557 1154 16       		.byte	0x16
 7558 1155 12       		.byte	0x12
 7559 1156 34       		.byte	0x34
 7560 1157 34120000 		.4byte	0x1234
 7561 115b 08       		.uleb128 0x8
 7562 115c B5260000 		.4byte	.LASF233
 7563 1160 12       		.byte	0x12
 7564 1161 35       		.byte	0x35
 7565 1162 34120000 		.4byte	0x1234
 7566 1166 00       		.byte	0
 7567 1167 08       		.uleb128 0x8
 7568 1168 F0280000 		.4byte	.LASF234
 7569 116c 12       		.byte	0x12
 7570 116d 36       		.byte	0x36
 7571 116e C3000000 		.4byte	0xc3
 7572 1172 04       		.byte	0x4
 7573 1173 08       		.uleb128 0x8
 7574 1174 AA030000 		.4byte	.LASF235
 7575 1178 12       		.byte	0x12
 7576 1179 37       		.byte	0x37
 7577 117a C3000000 		.4byte	0xc3
 7578 117e 05       		.byte	0x5
 7579 117f 08       		.uleb128 0x8
 7580 1180 2C190000 		.4byte	.LASF236
 7581 1184 12       		.byte	0x12
 7582 1185 38       		.byte	0x38
 7583 1186 DE000000 		.4byte	0xde
 7584 118a 06       		.byte	0x6
 7585 118b 08       		.uleb128 0x8
 7586 118c 27000000 		.4byte	.LASF237
 7587 1190 12       		.byte	0x12
 7588 1191 39       		.byte	0x39
 7589 1192 C3000000 		.4byte	0xc3
 7590 1196 08       		.byte	0x8
 7591 1197 08       		.uleb128 0x8
 7592 1198 BB160000 		.4byte	.LASF238
 7593 119c 12       		.byte	0x12
 7594 119d 3A       		.byte	0x3a
 7595 119e C3000000 		.4byte	0xc3
 7596 11a2 09       		.byte	0x9
 7597 11a3 08       		.uleb128 0x8
 7598 11a4 10290000 		.4byte	.LASF239
 7599 11a8 12       		.byte	0x12
 7600 11a9 3B       		.byte	0x3b
 7601 11aa C3000000 		.4byte	0xc3
 7602 11ae 0A       		.byte	0xa
 7603 11af 08       		.uleb128 0x8
 7604 11b0 0E270000 		.4byte	.LASF240
 7605 11b4 12       		.byte	0x12
 7606 11b5 3C       		.byte	0x3c
 7607 11b6 C3000000 		.4byte	0xc3
 7608 11ba 0B       		.byte	0xb
 7609 11bb 08       		.uleb128 0x8
 7610 11bc 4A060000 		.4byte	.LASF241
 7611 11c0 12       		.byte	0x12
 7612 11c1 3D       		.byte	0x3d
 7613 11c2 C3000000 		.4byte	0xc3
ARM GAS  /var/folders/bw/wdbp2_bd0pn7gl5ybd33xbb80000gn/T//ccZ5cvgj.s 			page 140


 7614 11c6 0C       		.byte	0xc
 7615 11c7 08       		.uleb128 0x8
 7616 11c8 1F0D0000 		.4byte	.LASF242
 7617 11cc 12       		.byte	0x12
 7618 11cd 3E       		.byte	0x3e
 7619 11ce C3000000 		.4byte	0xc3
 7620 11d2 0D       		.byte	0xd
 7621 11d3 08       		.uleb128 0x8
 7622 11d4 A3060000 		.4byte	.LASF243
 7623 11d8 12       		.byte	0x12
 7624 11d9 3F       		.byte	0x3f
 7625 11da C3000000 		.4byte	0xc3
 7626 11de 0E       		.byte	0xe
 7627 11df 08       		.uleb128 0x8
 7628 11e0 C70E0000 		.4byte	.LASF244
 7629 11e4 12       		.byte	0x12
 7630 11e5 40       		.byte	0x40
 7631 11e6 C3000000 		.4byte	0xc3
 7632 11ea 0F       		.byte	0xf
 7633 11eb 08       		.uleb128 0x8
 7634 11ec AA040000 		.4byte	.LASF245
 7635 11f0 12       		.byte	0x12
 7636 11f1 41       		.byte	0x41
 7637 11f2 C3000000 		.4byte	0xc3
 7638 11f6 10       		.byte	0x10
 7639 11f7 08       		.uleb128 0x8
 7640 11f8 90090000 		.4byte	.LASF246
 7641 11fc 12       		.byte	0x12
 7642 11fd 43       		.byte	0x43
 7643 11fe C3000000 		.4byte	0xc3
 7644 1202 11       		.byte	0x11
 7645 1203 08       		.uleb128 0x8
 7646 1204 62030000 		.4byte	.LASF247
 7647 1208 12       		.byte	0x12
 7648 1209 44       		.byte	0x44
 7649 120a C3000000 		.4byte	0xc3
 7650 120e 12       		.byte	0x12
 7651 120f 08       		.uleb128 0x8
 7652 1210 AB180000 		.4byte	.LASF248
 7653 1214 12       		.byte	0x12
 7654 1215 45       		.byte	0x45
 7655 1216 C3000000 		.4byte	0xc3
 7656 121a 13       		.byte	0x13
 7657 121b 08       		.uleb128 0x8
 7658 121c CB1F0000 		.4byte	.LASF249
 7659 1220 12       		.byte	0x12
 7660 1221 46       		.byte	0x46
 7661 1222 C3000000 		.4byte	0xc3
 7662 1226 14       		.byte	0x14
 7663 1227 08       		.uleb128 0x8
 7664 1228 13010000 		.4byte	.LASF250
 7665 122c 12       		.byte	0x12
 7666 122d 48       		.byte	0x48
 7667 122e C3000000 		.4byte	0xc3
 7668 1232 15       		.byte	0x15
 7669 1233 00       		.byte	0
 7670 1234 13       		.uleb128 0x13
ARM GAS  /var/folders/bw/wdbp2_bd0pn7gl5ybd33xbb80000gn/T//ccZ5cvgj.s 			page 141


 7671 1235 20110000 		.4byte	0x1120
 7672 1239 44120000 		.4byte	0x1244
 7673 123d 14       		.uleb128 0x14
 7674 123e B1000000 		.4byte	0xb1
 7675 1242 03       		.byte	0x3
 7676 1243 00       		.byte	0
 7677 1244 02       		.uleb128 0x2
 7678 1245 4E160000 		.4byte	.LASF251
 7679 1249 12       		.byte	0x12
 7680 124a 49       		.byte	0x49
 7681 124b 53110000 		.4byte	0x1153
 7682 124f 05       		.uleb128 0x5
 7683 1250 44120000 		.4byte	0x1244
 7684 1254 16       		.uleb128 0x16
 7685 1255 E60B0000 		.4byte	.LASF252
 7686 1259 12       		.byte	0x12
 7687 125a 6E       		.byte	0x6e
 7688 125b 4F120000 		.4byte	0x124f
 7689 125f 02       		.uleb128 0x2
 7690 1260 00230000 		.4byte	.LASF253
 7691 1264 11       		.byte	0x11
 7692 1265 34       		.byte	0x34
 7693 1266 D2100000 		.4byte	0x10d2
 7694 126a 0B       		.uleb128 0xb
 7695 126b 04       		.byte	0x4
 7696 126c 5F120000 		.4byte	0x125f
 7697 1270 02       		.uleb128 0x2
 7698 1271 3E0C0000 		.4byte	.LASF254
 7699 1275 13       		.byte	0x13
 7700 1276 34       		.byte	0x34
 7701 1277 7B120000 		.4byte	0x127b
 7702 127b 07       		.uleb128 0x7
 7703 127c A8290000 		.4byte	.LASF255
 7704 1280 14       		.byte	0x14
 7705 1281 13       		.byte	0x13
 7706 1282 39       		.byte	0x39
 7707 1283 C4120000 		.4byte	0x12c4
 7708 1287 08       		.uleb128 0x8
 7709 1288 CB020000 		.4byte	.LASF256
 7710 128c 13       		.byte	0x13
 7711 128d 3A       		.byte	0x3a
 7712 128e C4120000 		.4byte	0x12c4
 7713 1292 00       		.byte	0
 7714 1293 08       		.uleb128 0x8
 7715 1294 0D240000 		.4byte	.LASF257
 7716 1298 13       		.byte	0x13
 7717 1299 3D       		.byte	0x3d
 7718 129a F3020000 		.4byte	0x2f3
 7719 129e 04       		.byte	0x4
 7720 129f 08       		.uleb128 0x8
 7721 12a0 25040000 		.4byte	.LASF258
 7722 12a4 13       		.byte	0x13
 7723 12a5 3F       		.byte	0x3f
 7724 12a6 83010000 		.4byte	0x183
 7725 12aa 08       		.byte	0x8
 7726 12ab 08       		.uleb128 0x8
 7727 12ac 43250000 		.4byte	.LASF259
ARM GAS  /var/folders/bw/wdbp2_bd0pn7gl5ybd33xbb80000gn/T//ccZ5cvgj.s 			page 142


 7728 12b0 13       		.byte	0x13
 7729 12b1 41       		.byte	0x41
 7730 12b2 8E010000 		.4byte	0x18e
 7731 12b6 0C       		.byte	0xc
 7732 12b7 08       		.uleb128 0x8
 7733 12b8 0F0F0000 		.4byte	.LASF260
 7734 12bc 13       		.byte	0x13
 7735 12bd 43       		.byte	0x43
 7736 12be 8E010000 		.4byte	0x18e
 7737 12c2 10       		.byte	0x10
 7738 12c3 00       		.byte	0
 7739 12c4 0B       		.uleb128 0xb
 7740 12c5 04       		.byte	0x4
 7741 12c6 70120000 		.4byte	0x1270
 7742 12ca 07       		.uleb128 0x7
 7743 12cb 52250000 		.4byte	.LASF261
 7744 12cf 04       		.byte	0x4
 7745 12d0 13       		.byte	0x13
 7746 12d1 4A       		.byte	0x4a
 7747 12d2 E3120000 		.4byte	0x12e3
 7748 12d6 08       		.uleb128 0x8
 7749 12d7 B2240000 		.4byte	.LASF262
 7750 12db 13       		.byte	0x13
 7751 12dc 4B       		.byte	0x4b
 7752 12dd C4120000 		.4byte	0x12c4
 7753 12e1 00       		.byte	0
 7754 12e2 00       		.byte	0
 7755 12e3 02       		.uleb128 0x2
 7756 12e4 D7160000 		.4byte	.LASF263
 7757 12e8 13       		.byte	0x13
 7758 12e9 4E       		.byte	0x4e
 7759 12ea CA120000 		.4byte	0x12ca
 7760 12ee 02       		.uleb128 0x2
 7761 12ef 4F0F0000 		.4byte	.LASF264
 7762 12f3 14       		.byte	0x14
 7763 12f4 3F       		.byte	0x3f
 7764 12f5 F9120000 		.4byte	0x12f9
 7765 12f9 07       		.uleb128 0x7
 7766 12fa F5120000 		.4byte	.LASF265
 7767 12fe 24       		.byte	0x24
 7768 12ff 14       		.byte	0x14
 7769 1300 4D       		.byte	0x4d
 7770 1301 66130000 		.4byte	0x1366
 7771 1305 08       		.uleb128 0x8
 7772 1306 15060000 		.4byte	.LASF266
 7773 130a 14       		.byte	0x14
 7774 130b 4E       		.byte	0x4e
 7775 130c 1D030000 		.4byte	0x31d
 7776 1310 00       		.byte	0
 7777 1311 08       		.uleb128 0x8
 7778 1312 98220000 		.4byte	.LASF267
 7779 1316 14       		.byte	0x14
 7780 1317 4F       		.byte	0x4f
 7781 1318 19010000 		.4byte	0x119
 7782 131c 08       		.byte	0x8
 7783 131d 08       		.uleb128 0x8
 7784 131e EC130000 		.4byte	.LASF268
ARM GAS  /var/folders/bw/wdbp2_bd0pn7gl5ybd33xbb80000gn/T//ccZ5cvgj.s 			page 143


 7785 1322 14       		.byte	0x14
 7786 1323 50       		.byte	0x50
 7787 1324 88130000 		.4byte	0x1388
 7788 1328 0C       		.byte	0xc
 7789 1329 08       		.uleb128 0x8
 7790 132a 61050000 		.4byte	.LASF269
 7791 132e 14       		.byte	0x14
 7792 132f 51       		.byte	0x51
 7793 1330 88130000 		.4byte	0x1388
 7794 1334 10       		.byte	0x10
 7795 1335 08       		.uleb128 0x8
 7796 1336 CC1C0000 		.4byte	.LASF270
 7797 133a 14       		.byte	0x14
 7798 133b 53       		.byte	0x53
 7799 133c 88130000 		.4byte	0x1388
 7800 1340 14       		.byte	0x14
 7801 1341 08       		.uleb128 0x8
 7802 1342 8F1B0000 		.4byte	.LASF271
 7803 1346 14       		.byte	0x14
 7804 1347 54       		.byte	0x54
 7805 1348 88130000 		.4byte	0x1388
 7806 134c 18       		.byte	0x18
 7807 134d 08       		.uleb128 0x8
 7808 134e 16210000 		.4byte	.LASF272
 7809 1352 14       		.byte	0x14
 7810 1353 55       		.byte	0x55
 7811 1354 66130000 		.4byte	0x1366
 7812 1358 1C       		.byte	0x1c
 7813 1359 08       		.uleb128 0x8
 7814 135a 0F1E0000 		.4byte	.LASF273
 7815 135e 14       		.byte	0x14
 7816 135f 56       		.byte	0x56
 7817 1360 D0030000 		.4byte	0x3d0
 7818 1364 20       		.byte	0x20
 7819 1365 00       		.byte	0
 7820 1366 02       		.uleb128 0x2
 7821 1367 16050000 		.4byte	.LASF274
 7822 136b 14       		.byte	0x14
 7823 136c 42       		.byte	0x42
 7824 136d 71130000 		.4byte	0x1371
 7825 1371 0B       		.uleb128 0xb
 7826 1372 04       		.byte	0x4
 7827 1373 77130000 		.4byte	0x1377
 7828 1377 0D       		.uleb128 0xd
 7829 1378 82130000 		.4byte	0x1382
 7830 137c 0E       		.uleb128 0xe
 7831 137d 82130000 		.4byte	0x1382
 7832 1381 00       		.byte	0
 7833 1382 0B       		.uleb128 0xb
 7834 1383 04       		.byte	0x4
 7835 1384 EE120000 		.4byte	0x12ee
 7836 1388 0B       		.uleb128 0xb
 7837 1389 04       		.byte	0x4
 7838 138a C3000000 		.4byte	0xc3
 7839 138e 02       		.uleb128 0x2
 7840 138f 55060000 		.4byte	.LASF275
 7841 1393 14       		.byte	0x14
ARM GAS  /var/folders/bw/wdbp2_bd0pn7gl5ybd33xbb80000gn/T//ccZ5cvgj.s 			page 144


 7842 1394 64       		.byte	0x64
 7843 1395 EE120000 		.4byte	0x12ee
 7844 1399 02       		.uleb128 0x2
 7845 139a F1290000 		.4byte	.LASF276
 7846 139e 14       		.byte	0x14
 7847 139f 71       		.byte	0x71
 7848 13a0 EE120000 		.4byte	0x12ee
 7849 13a4 20       		.uleb128 0x20
 7850 13a5 19010000 		.4byte	0x119
 7851 13a9 BD130000 		.4byte	0x13bd
 7852 13ad 0E       		.uleb128 0xe
 7853 13ae D0030000 		.4byte	0x3d0
 7854 13b2 0E       		.uleb128 0xe
 7855 13b3 BD130000 		.4byte	0x13bd
 7856 13b7 0E       		.uleb128 0xe
 7857 13b8 19010000 		.4byte	0x119
 7858 13bc 00       		.byte	0
 7859 13bd 0B       		.uleb128 0xb
 7860 13be 04       		.byte	0x4
 7861 13bf CE000000 		.4byte	0xce
 7862 13c3 0B       		.uleb128 0xb
 7863 13c4 04       		.byte	0x4
 7864 13c5 A4130000 		.4byte	0x13a4
 7865 13c9 20       		.uleb128 0x20
 7866 13ca 19010000 		.4byte	0x119
 7867 13ce E2130000 		.4byte	0x13e2
 7868 13d2 0E       		.uleb128 0xe
 7869 13d3 D0030000 		.4byte	0x3d0
 7870 13d7 0E       		.uleb128 0xe
 7871 13d8 88130000 		.4byte	0x1388
 7872 13dc 0E       		.uleb128 0xe
 7873 13dd 19010000 		.4byte	0x119
 7874 13e1 00       		.byte	0
 7875 13e2 0B       		.uleb128 0xb
 7876 13e3 04       		.byte	0x4
 7877 13e4 C9130000 		.4byte	0x13c9
 7878 13e8 20       		.uleb128 0x20
 7879 13e9 78010000 		.4byte	0x178
 7880 13ed FC130000 		.4byte	0x13fc
 7881 13f1 0E       		.uleb128 0xe
 7882 13f2 D0030000 		.4byte	0x3d0
 7883 13f6 0E       		.uleb128 0xe
 7884 13f7 C3000000 		.4byte	0xc3
 7885 13fb 00       		.byte	0
 7886 13fc 0B       		.uleb128 0xb
 7887 13fd 04       		.byte	0x4
 7888 13fe E8130000 		.4byte	0x13e8
 7889 1402 20       		.uleb128 0x20
 7890 1403 78010000 		.4byte	0x178
 7891 1407 11140000 		.4byte	0x1411
 7892 140b 0E       		.uleb128 0xe
 7893 140c D0030000 		.4byte	0x3d0
 7894 1410 00       		.byte	0
 7895 1411 0B       		.uleb128 0xb
 7896 1412 04       		.byte	0x4
 7897 1413 02140000 		.4byte	0x1402
 7898 1417 17       		.uleb128 0x17
ARM GAS  /var/folders/bw/wdbp2_bd0pn7gl5ybd33xbb80000gn/T//ccZ5cvgj.s 			page 145


 7899 1418 0C       		.byte	0xc
 7900 1419 15       		.byte	0x15
 7901 141a DA       		.byte	0xda
 7902 141b 5C140000 		.4byte	0x145c
 7903 141f 08       		.uleb128 0x8
 7904 1420 82290000 		.4byte	.LASF277
 7905 1424 15       		.byte	0x15
 7906 1425 DB       		.byte	0xdb
 7907 1426 5C140000 		.4byte	0x145c
 7908 142a 00       		.byte	0
 7909 142b 08       		.uleb128 0x8
 7910 142c 3F120000 		.4byte	.LASF278
 7911 1430 15       		.byte	0x15
 7912 1431 DC       		.byte	0xdc
 7913 1432 62140000 		.4byte	0x1462
 7914 1436 04       		.byte	0x4
 7915 1437 08       		.uleb128 0x8
 7916 1438 41050000 		.4byte	.LASF279
 7917 143c 15       		.byte	0x15
 7918 143d DD       		.byte	0xdd
 7919 143e C3000000 		.4byte	0xc3
 7920 1442 08       		.byte	0x8
 7921 1443 08       		.uleb128 0x8
 7922 1444 F6220000 		.4byte	.LASF280
 7923 1448 15       		.byte	0x15
 7924 1449 DF       		.byte	0xdf
 7925 144a C3000000 		.4byte	0xc3
 7926 144e 09       		.byte	0x9
 7927 144f 08       		.uleb128 0x8
 7928 1450 5D040000 		.4byte	.LASF281
 7929 1454 15       		.byte	0x15
 7930 1455 E0       		.byte	0xe0
 7931 1456 C3000000 		.4byte	0xc3
 7932 145a 0A       		.byte	0xa
 7933 145b 00       		.byte	0
 7934 145c 0B       		.uleb128 0xb
 7935 145d 04       		.byte	0x4
 7936 145e 850A0000 		.4byte	0xa85
 7937 1462 0B       		.uleb128 0xb
 7938 1463 04       		.byte	0x4
 7939 1464 04010000 		.4byte	0x104
 7940 1468 02       		.uleb128 0x2
 7941 1469 1A150000 		.4byte	.LASF282
 7942 146d 15       		.byte	0x15
 7943 146e E1       		.byte	0xe1
 7944 146f 17140000 		.4byte	0x1417
 7945 1473 05       		.uleb128 0x5
 7946 1474 68140000 		.4byte	0x1468
 7947 1478 13       		.uleb128 0x13
 7948 1479 73140000 		.4byte	0x1473
 7949 147d 88140000 		.4byte	0x1488
 7950 1481 14       		.uleb128 0x14
 7951 1482 B1000000 		.4byte	0xb1
 7952 1486 0F       		.byte	0xf
 7953 1487 00       		.byte	0
 7954 1488 05       		.uleb128 0x5
 7955 1489 78140000 		.4byte	0x1478
ARM GAS  /var/folders/bw/wdbp2_bd0pn7gl5ybd33xbb80000gn/T//ccZ5cvgj.s 			page 146


 7956 148d 15       		.uleb128 0x15
 7957 148e C31E0000 		.4byte	.LASF283
 7958 1492 15       		.byte	0x15
 7959 1493 BB01     		.2byte	0x1bb
 7960 1495 88140000 		.4byte	0x1488
 7961 1499 20       		.uleb128 0x20
 7962 149a 78010000 		.4byte	0x178
 7963 149e B2140000 		.4byte	0x14b2
 7964 14a2 0E       		.uleb128 0xe
 7965 14a3 D0030000 		.4byte	0x3d0
 7966 14a7 0E       		.uleb128 0xe
 7967 14a8 C3000000 		.4byte	0xc3
 7968 14ac 0E       		.uleb128 0xe
 7969 14ad AF010000 		.4byte	0x1af
 7970 14b1 00       		.byte	0
 7971 14b2 0B       		.uleb128 0xb
 7972 14b3 04       		.byte	0x4
 7973 14b4 99140000 		.4byte	0x1499
 7974 14b8 20       		.uleb128 0x20
 7975 14b9 78010000 		.4byte	0x178
 7976 14bd CC140000 		.4byte	0x14cc
 7977 14c1 0E       		.uleb128 0xe
 7978 14c2 D0030000 		.4byte	0x3d0
 7979 14c6 0E       		.uleb128 0xe
 7980 14c7 AF010000 		.4byte	0x1af
 7981 14cb 00       		.byte	0
 7982 14cc 0B       		.uleb128 0xb
 7983 14cd 04       		.byte	0x4
 7984 14ce B8140000 		.4byte	0x14b8
 7985 14d2 20       		.uleb128 0x20
 7986 14d3 19010000 		.4byte	0x119
 7987 14d7 F0140000 		.4byte	0x14f0
 7988 14db 0E       		.uleb128 0xe
 7989 14dc D0030000 		.4byte	0x3d0
 7990 14e0 0E       		.uleb128 0xe
 7991 14e1 BD130000 		.4byte	0x13bd
 7992 14e5 0E       		.uleb128 0xe
 7993 14e6 19010000 		.4byte	0x119
 7994 14ea 0E       		.uleb128 0xe
 7995 14eb AF010000 		.4byte	0x1af
 7996 14ef 00       		.byte	0
 7997 14f0 0B       		.uleb128 0xb
 7998 14f1 04       		.byte	0x4
 7999 14f2 D2140000 		.4byte	0x14d2
 8000 14f6 20       		.uleb128 0x20
 8001 14f7 19010000 		.4byte	0x119
 8002 14fb 14150000 		.4byte	0x1514
 8003 14ff 0E       		.uleb128 0xe
 8004 1500 D0030000 		.4byte	0x3d0
 8005 1504 0E       		.uleb128 0xe
 8006 1505 88130000 		.4byte	0x1388
 8007 1509 0E       		.uleb128 0xe
 8008 150a 19010000 		.4byte	0x119
 8009 150e 0E       		.uleb128 0xe
 8010 150f AF010000 		.4byte	0x1af
 8011 1513 00       		.byte	0
 8012 1514 0B       		.uleb128 0xb
ARM GAS  /var/folders/bw/wdbp2_bd0pn7gl5ybd33xbb80000gn/T//ccZ5cvgj.s 			page 147


 8013 1515 04       		.byte	0x4
 8014 1516 F6140000 		.4byte	0x14f6
 8015 151a 21       		.uleb128 0x21
 8016 151b 07       		.byte	0x7
 8017 151c 01       		.byte	0x1
 8018 151d 42000000 		.4byte	0x42
 8019 1521 16       		.byte	0x16
 8020 1522 28       		.byte	0x28
 8021 1523 5E150000 		.4byte	0x155e
 8022 1527 22       		.uleb128 0x22
 8023 1528 CE010000 		.4byte	.LASF284
 8024 152c 00       		.byte	0
 8025 152d 22       		.uleb128 0x22
 8026 152e 19100000 		.4byte	.LASF285
 8027 1532 01       		.byte	0x1
 8028 1533 22       		.uleb128 0x22
 8029 1534 290C0000 		.4byte	.LASF286
 8030 1538 02       		.byte	0x2
 8031 1539 22       		.uleb128 0x22
 8032 153a 48200000 		.4byte	.LASF287
 8033 153e 03       		.byte	0x3
 8034 153f 22       		.uleb128 0x22
 8035 1540 47280000 		.4byte	.LASF288
 8036 1544 04       		.byte	0x4
 8037 1545 22       		.uleb128 0x22
 8038 1546 85080000 		.4byte	.LASF289
 8039 154a 05       		.byte	0x5
 8040 154b 22       		.uleb128 0x22
 8041 154c C0220000 		.4byte	.LASF290
 8042 1550 06       		.byte	0x6
 8043 1551 22       		.uleb128 0x22
 8044 1552 011C0000 		.4byte	.LASF291
 8045 1556 07       		.byte	0x7
 8046 1557 22       		.uleb128 0x22
 8047 1558 07280000 		.4byte	.LASF292
 8048 155c 08       		.byte	0x8
 8049 155d 00       		.byte	0
 8050 155e 02       		.uleb128 0x2
 8051 155f 701A0000 		.4byte	.LASF293
 8052 1563 16       		.byte	0x16
 8053 1564 32       		.byte	0x32
 8054 1565 1A150000 		.4byte	0x151a
 8055 1569 17       		.uleb128 0x17
 8056 156a 08       		.byte	0x8
 8057 156b 16       		.byte	0x16
 8058 156c 37       		.byte	0x37
 8059 156d 8A150000 		.4byte	0x158a
 8060 1571 08       		.uleb128 0x8
 8061 1572 FC070000 		.4byte	.LASF294
 8062 1576 16       		.byte	0x16
 8063 1577 38       		.byte	0x38
 8064 1578 F9000000 		.4byte	0xf9
 8065 157c 00       		.byte	0
 8066 157d 08       		.uleb128 0x8
 8067 157e B3210000 		.4byte	.LASF295
 8068 1582 16       		.byte	0x16
 8069 1583 39       		.byte	0x39
ARM GAS  /var/folders/bw/wdbp2_bd0pn7gl5ybd33xbb80000gn/T//ccZ5cvgj.s 			page 148


 8070 1584 F9000000 		.4byte	0xf9
 8071 1588 04       		.byte	0x4
 8072 1589 00       		.byte	0
 8073 158a 02       		.uleb128 0x2
 8074 158b 6B240000 		.4byte	.LASF296
 8075 158f 16       		.byte	0x16
 8076 1590 3A       		.byte	0x3a
 8077 1591 69150000 		.4byte	0x1569
 8078 1595 20       		.uleb128 0x20
 8079 1596 A4150000 		.4byte	0x15a4
 8080 159a A4150000 		.4byte	0x15a4
 8081 159e 0E       		.uleb128 0xe
 8082 159f D0030000 		.4byte	0x3d0
 8083 15a3 00       		.byte	0
 8084 15a4 03       		.uleb128 0x3
 8085 15a5 01       		.byte	0x1
 8086 15a6 02       		.byte	0x2
 8087 15a7 4B010000 		.4byte	.LASF297
 8088 15ab 0B       		.uleb128 0xb
 8089 15ac 04       		.byte	0x4
 8090 15ad 95150000 		.4byte	0x1595
 8091 15b1 20       		.uleb128 0x20
 8092 15b2 A4150000 		.4byte	0x15a4
 8093 15b6 CF150000 		.4byte	0x15cf
 8094 15ba 0E       		.uleb128 0xe
 8095 15bb D0030000 		.4byte	0x3d0
 8096 15bf 0E       		.uleb128 0xe
 8097 15c0 F9000000 		.4byte	0xf9
 8098 15c4 0E       		.uleb128 0xe
 8099 15c5 88130000 		.4byte	0x1388
 8100 15c9 0E       		.uleb128 0xe
 8101 15ca F9000000 		.4byte	0xf9
 8102 15ce 00       		.byte	0
 8103 15cf 0B       		.uleb128 0xb
 8104 15d0 04       		.byte	0x4
 8105 15d1 B1150000 		.4byte	0x15b1
 8106 15d5 20       		.uleb128 0x20
 8107 15d6 A4150000 		.4byte	0x15a4
 8108 15da F3150000 		.4byte	0x15f3
 8109 15de 0E       		.uleb128 0xe
 8110 15df D0030000 		.4byte	0x3d0
 8111 15e3 0E       		.uleb128 0xe
 8112 15e4 F9000000 		.4byte	0xf9
 8113 15e8 0E       		.uleb128 0xe
 8114 15e9 BD130000 		.4byte	0x13bd
 8115 15ed 0E       		.uleb128 0xe
 8116 15ee F9000000 		.4byte	0xf9
 8117 15f2 00       		.byte	0
 8118 15f3 0B       		.uleb128 0xb
 8119 15f4 04       		.byte	0x4
 8120 15f5 D5150000 		.4byte	0x15d5
 8121 15f9 20       		.uleb128 0x20
 8122 15fa A4150000 		.4byte	0x15a4
 8123 15fe 0D160000 		.4byte	0x160d
 8124 1602 0E       		.uleb128 0xe
 8125 1603 D0030000 		.4byte	0x3d0
 8126 1607 0E       		.uleb128 0xe
ARM GAS  /var/folders/bw/wdbp2_bd0pn7gl5ybd33xbb80000gn/T//ccZ5cvgj.s 			page 149


 8127 1608 0D160000 		.4byte	0x160d
 8128 160c 00       		.byte	0
 8129 160d 0B       		.uleb128 0xb
 8130 160e 04       		.byte	0x4
 8131 160f 8A150000 		.4byte	0x158a
 8132 1613 0B       		.uleb128 0xb
 8133 1614 04       		.byte	0x4
 8134 1615 F9150000 		.4byte	0x15f9
 8135 1619 13       		.uleb128 0x13
 8136 161a F9000000 		.4byte	0xf9
 8137 161e 29160000 		.4byte	0x1629
 8138 1622 14       		.uleb128 0x14
 8139 1623 B1000000 		.4byte	0xb1
 8140 1627 03       		.byte	0x3
 8141 1628 00       		.byte	0
 8142 1629 17       		.uleb128 0x17
 8143 162a 04       		.byte	0x4
 8144 162b 17       		.byte	0x17
 8145 162c B3       		.byte	0xb3
 8146 162d 4A160000 		.4byte	0x164a
 8147 1631 18       		.uleb128 0x18
 8148 1632 73657400 		.ascii	"set\000"
 8149 1636 17       		.byte	0x17
 8150 1637 B4       		.byte	0xb4
 8151 1638 DE000000 		.4byte	0xde
 8152 163c 00       		.byte	0
 8153 163d 08       		.uleb128 0x8
 8154 163e 220E0000 		.4byte	.LASF298
 8155 1642 17       		.byte	0x17
 8156 1643 B5       		.byte	0xb5
 8157 1644 DE000000 		.4byte	0xde
 8158 1648 02       		.byte	0x2
 8159 1649 00       		.byte	0
 8160 164a 1D       		.uleb128 0x1d
 8161 164b 04       		.byte	0x4
 8162 164c 17       		.byte	0x17
 8163 164d B1       		.byte	0xb1
 8164 164e 65160000 		.4byte	0x1665
 8165 1652 23       		.uleb128 0x23
 8166 1653 5700     		.ascii	"W\000"
 8167 1655 17       		.byte	0x17
 8168 1656 B2       		.byte	0xb2
 8169 1657 F9000000 		.4byte	0xf9
 8170 165b 23       		.uleb128 0x23
 8171 165c 4800     		.ascii	"H\000"
 8172 165e 17       		.byte	0x17
 8173 165f B6       		.byte	0xb6
 8174 1660 29160000 		.4byte	0x1629
 8175 1664 00       		.byte	0
 8176 1665 06       		.uleb128 0x6
 8177 1666 4A160000 		.4byte	0x164a
 8178 166a 17       		.uleb128 0x17
 8179 166b 2C       		.byte	0x2c
 8180 166c 17       		.byte	0x17
 8181 166d A9       		.byte	0xa9
 8182 166e F7160000 		.4byte	0x16f7
 8183 1672 08       		.uleb128 0x8
ARM GAS  /var/folders/bw/wdbp2_bd0pn7gl5ybd33xbb80000gn/T//ccZ5cvgj.s 			page 150


 8184 1673 27230000 		.4byte	.LASF299
 8185 1677 17       		.byte	0x17
 8186 1678 AB       		.byte	0xab
 8187 1679 04010000 		.4byte	0x104
 8188 167d 00       		.byte	0
 8189 167e 08       		.uleb128 0x8
 8190 167f CB030000 		.4byte	.LASF300
 8191 1683 17       		.byte	0x17
 8192 1684 AC       		.byte	0xac
 8193 1685 04010000 		.4byte	0x104
 8194 1689 04       		.byte	0x4
 8195 168a 08       		.uleb128 0x8
 8196 168b D50F0000 		.4byte	.LASF301
 8197 168f 17       		.byte	0x17
 8198 1690 AD       		.byte	0xad
 8199 1691 04010000 		.4byte	0x104
 8200 1695 08       		.byte	0x8
 8201 1696 08       		.uleb128 0x8
 8202 1697 16220000 		.4byte	.LASF302
 8203 169b 17       		.byte	0x17
 8204 169c AE       		.byte	0xae
 8205 169d 04010000 		.4byte	0x104
 8206 16a1 0C       		.byte	0xc
 8207 16a2 18       		.uleb128 0x18
 8208 16a3 49445200 		.ascii	"IDR\000"
 8209 16a7 17       		.byte	0x17
 8210 16a8 AF       		.byte	0xaf
 8211 16a9 04010000 		.4byte	0x104
 8212 16ad 10       		.byte	0x10
 8213 16ae 18       		.uleb128 0x18
 8214 16af 4F445200 		.ascii	"ODR\000"
 8215 16b3 17       		.byte	0x17
 8216 16b4 B0       		.byte	0xb0
 8217 16b5 04010000 		.4byte	0x104
 8218 16b9 14       		.byte	0x14
 8219 16ba 08       		.uleb128 0x8
 8220 16bb 05150000 		.4byte	.LASF303
 8221 16bf 17       		.byte	0x17
 8222 16c0 B7       		.byte	0xb7
 8223 16c1 65160000 		.4byte	0x1665
 8224 16c5 18       		.byte	0x18
 8225 16c6 08       		.uleb128 0x8
 8226 16c7 D61B0000 		.4byte	.LASF304
 8227 16cb 17       		.byte	0x17
 8228 16cc B8       		.byte	0xb8
 8229 16cd 04010000 		.4byte	0x104
 8230 16d1 1C       		.byte	0x1c
 8231 16d2 08       		.uleb128 0x8
 8232 16d3 BA1F0000 		.4byte	.LASF305
 8233 16d7 17       		.byte	0x17
 8234 16d8 B9       		.byte	0xb9
 8235 16d9 04010000 		.4byte	0x104
 8236 16dd 20       		.byte	0x20
 8237 16de 08       		.uleb128 0x8
 8238 16df AE1F0000 		.4byte	.LASF306
 8239 16e3 17       		.byte	0x17
 8240 16e4 BA       		.byte	0xba
ARM GAS  /var/folders/bw/wdbp2_bd0pn7gl5ybd33xbb80000gn/T//ccZ5cvgj.s 			page 151


 8241 16e5 04010000 		.4byte	0x104
 8242 16e9 24       		.byte	0x24
 8243 16ea 18       		.uleb128 0x18
 8244 16eb 42525200 		.ascii	"BRR\000"
 8245 16ef 17       		.byte	0x17
 8246 16f0 BB       		.byte	0xbb
 8247 16f1 04010000 		.4byte	0x104
 8248 16f5 28       		.byte	0x28
 8249 16f6 00       		.byte	0
 8250 16f7 02       		.uleb128 0x2
 8251 16f8 6C120000 		.4byte	.LASF307
 8252 16fc 17       		.byte	0x17
 8253 16fd BC       		.byte	0xbc
 8254 16fe 6A160000 		.4byte	0x166a
 8255 1702 17       		.uleb128 0x17
 8256 1703 1C       		.byte	0x1c
 8257 1704 17       		.byte	0x17
 8258 1705 C1       		.byte	0xc1
 8259 1706 5F170000 		.4byte	0x175f
 8260 170a 08       		.uleb128 0x8
 8261 170b 7B260000 		.4byte	.LASF308
 8262 170f 17       		.byte	0x17
 8263 1710 C3       		.byte	0xc3
 8264 1711 F9000000 		.4byte	0xf9
 8265 1715 00       		.byte	0
 8266 1716 08       		.uleb128 0x8
 8267 1717 C4030000 		.4byte	.LASF309
 8268 171b 17       		.byte	0x17
 8269 171c C5       		.byte	0xc5
 8270 171d F9000000 		.4byte	0xf9
 8271 1721 04       		.byte	0x4
 8272 1722 08       		.uleb128 0x8
 8273 1723 AE020000 		.4byte	.LASF310
 8274 1727 17       		.byte	0x17
 8275 1728 C7       		.byte	0xc7
 8276 1729 F9000000 		.4byte	0xf9
 8277 172d 08       		.byte	0x8
 8278 172e 08       		.uleb128 0x8
 8279 172f B0250000 		.4byte	.LASF311
 8280 1733 17       		.byte	0x17
 8281 1734 C9       		.byte	0xc9
 8282 1735 F9000000 		.4byte	0xf9
 8283 1739 0C       		.byte	0xc
 8284 173a 18       		.uleb128 0x18
 8285 173b 6F647200 		.ascii	"odr\000"
 8286 173f 17       		.byte	0x17
 8287 1740 CB       		.byte	0xcb
 8288 1741 F9000000 		.4byte	0xf9
 8289 1745 10       		.byte	0x10
 8290 1746 08       		.uleb128 0x8
 8291 1747 CC220000 		.4byte	.LASF312
 8292 174b 17       		.byte	0x17
 8293 174c CD       		.byte	0xcd
 8294 174d F9000000 		.4byte	0xf9
 8295 1751 14       		.byte	0x14
 8296 1752 08       		.uleb128 0x8
 8297 1753 A3000000 		.4byte	.LASF313
ARM GAS  /var/folders/bw/wdbp2_bd0pn7gl5ybd33xbb80000gn/T//ccZ5cvgj.s 			page 152


 8298 1757 17       		.byte	0x17
 8299 1758 CF       		.byte	0xcf
 8300 1759 F9000000 		.4byte	0xf9
 8301 175d 18       		.byte	0x18
 8302 175e 00       		.byte	0
 8303 175f 02       		.uleb128 0x2
 8304 1760 7E1E0000 		.4byte	.LASF314
 8305 1764 17       		.byte	0x17
 8306 1765 D0       		.byte	0xd0
 8307 1766 02170000 		.4byte	0x1702
 8308 176a 17       		.uleb128 0x17
 8309 176b FC       		.byte	0xfc
 8310 176c 17       		.byte	0x17
 8311 176d D9       		.byte	0xd9
 8312 176e DF170000 		.4byte	0x17df
 8313 1772 08       		.uleb128 0x8
 8314 1773 FE120000 		.4byte	.LASF315
 8315 1777 17       		.byte	0x17
 8316 1778 DC       		.byte	0xdc
 8317 1779 5F170000 		.4byte	0x175f
 8318 177d 00       		.byte	0
 8319 177e 08       		.uleb128 0x8
 8320 177f A3030000 		.4byte	.LASF316
 8321 1783 17       		.byte	0x17
 8322 1784 E0       		.byte	0xe0
 8323 1785 5F170000 		.4byte	0x175f
 8324 1789 1C       		.byte	0x1c
 8325 178a 08       		.uleb128 0x8
 8326 178b 28020000 		.4byte	.LASF317
 8327 178f 17       		.byte	0x17
 8328 1790 E4       		.byte	0xe4
 8329 1791 5F170000 		.4byte	0x175f
 8330 1795 38       		.byte	0x38
 8331 1796 08       		.uleb128 0x8
 8332 1797 2B0F0000 		.4byte	.LASF318
 8333 179b 17       		.byte	0x17
 8334 179c E8       		.byte	0xe8
 8335 179d 5F170000 		.4byte	0x175f
 8336 17a1 54       		.byte	0x54
 8337 17a2 08       		.uleb128 0x8
 8338 17a3 471D0000 		.4byte	.LASF319
 8339 17a7 17       		.byte	0x17
 8340 17a8 EC       		.byte	0xec
 8341 17a9 5F170000 		.4byte	0x175f
 8342 17ad 70       		.byte	0x70
 8343 17ae 08       		.uleb128 0x8
 8344 17af 602A0000 		.4byte	.LASF320
 8345 17b3 17       		.byte	0x17
 8346 17b4 F0       		.byte	0xf0
 8347 17b5 5F170000 		.4byte	0x175f
 8348 17b9 8C       		.byte	0x8c
 8349 17ba 08       		.uleb128 0x8
 8350 17bb EC0C0000 		.4byte	.LASF321
 8351 17bf 17       		.byte	0x17
 8352 17c0 F4       		.byte	0xf4
 8353 17c1 5F170000 		.4byte	0x175f
 8354 17c5 A8       		.byte	0xa8
ARM GAS  /var/folders/bw/wdbp2_bd0pn7gl5ybd33xbb80000gn/T//ccZ5cvgj.s 			page 153


 8355 17c6 08       		.uleb128 0x8
 8356 17c7 051B0000 		.4byte	.LASF322
 8357 17cb 17       		.byte	0x17
 8358 17cc F8       		.byte	0xf8
 8359 17cd 5F170000 		.4byte	0x175f
 8360 17d1 C4       		.byte	0xc4
 8361 17d2 08       		.uleb128 0x8
 8362 17d3 13280000 		.4byte	.LASF323
 8363 17d7 17       		.byte	0x17
 8364 17d8 FC       		.byte	0xfc
 8365 17d9 5F170000 		.4byte	0x175f
 8366 17dd E0       		.byte	0xe0
 8367 17de 00       		.byte	0
 8368 17df 02       		.uleb128 0x2
 8369 17e0 020C0000 		.4byte	.LASF324
 8370 17e4 17       		.byte	0x17
 8371 17e5 FE       		.byte	0xfe
 8372 17e6 6A170000 		.4byte	0x176a
 8373 17ea 05       		.uleb128 0x5
 8374 17eb DF170000 		.4byte	0x17df
 8375 17ef 1A       		.uleb128 0x1a
 8376 17f0 0C1B0000 		.4byte	.LASF325
 8377 17f4 17       		.byte	0x17
 8378 17f5 1B01     		.2byte	0x11b
 8379 17f7 FB170000 		.4byte	0x17fb
 8380 17fb 0B       		.uleb128 0xb
 8381 17fc 04       		.byte	0x4
 8382 17fd F7160000 		.4byte	0x16f7
 8383 1801 15       		.uleb128 0x15
 8384 1802 DA230000 		.4byte	.LASF326
 8385 1806 17       		.byte	0x17
 8386 1807 DA01     		.2byte	0x1da
 8387 1809 EA170000 		.4byte	0x17ea
 8388 180d 21       		.uleb128 0x21
 8389 180e 07       		.byte	0x7
 8390 180f 01       		.byte	0x1
 8391 1810 42000000 		.4byte	0x42
 8392 1814 18       		.byte	0x18
 8393 1815 46       		.byte	0x46
 8394 1816 3F180000 		.4byte	0x183f
 8395 181a 22       		.uleb128 0x22
 8396 181b 4C090000 		.4byte	.LASF327
 8397 181f 00       		.byte	0
 8398 1820 22       		.uleb128 0x22
 8399 1821 A3170000 		.4byte	.LASF328
 8400 1825 01       		.byte	0x1
 8401 1826 22       		.uleb128 0x22
 8402 1827 30260000 		.4byte	.LASF329
 8403 182b 02       		.byte	0x2
 8404 182c 22       		.uleb128 0x22
 8405 182d E5140000 		.4byte	.LASF330
 8406 1831 03       		.byte	0x3
 8407 1832 22       		.uleb128 0x22
 8408 1833 3B070000 		.4byte	.LASF331
 8409 1837 04       		.byte	0x4
 8410 1838 22       		.uleb128 0x22
 8411 1839 AB140000 		.4byte	.LASF332
ARM GAS  /var/folders/bw/wdbp2_bd0pn7gl5ybd33xbb80000gn/T//ccZ5cvgj.s 			page 154


 8412 183d 05       		.byte	0x5
 8413 183e 00       		.byte	0
 8414 183f 02       		.uleb128 0x2
 8415 1840 20050000 		.4byte	.LASF333
 8416 1844 18       		.byte	0x18
 8417 1845 4D       		.byte	0x4d
 8418 1846 0D180000 		.4byte	0x180d
 8419 184a 1A       		.uleb128 0x1a
 8420 184b D2130000 		.4byte	.LASF334
 8421 184f 19       		.byte	0x19
 8422 1850 2701     		.2byte	0x127
 8423 1852 DE000000 		.4byte	0xde
 8424 1856 1A       		.uleb128 0x1a
 8425 1857 7E200000 		.4byte	.LASF335
 8426 185b 19       		.byte	0x19
 8427 185c 2C01     		.2byte	0x12c
 8428 185e DE000000 		.4byte	0xde
 8429 1862 24       		.uleb128 0x24
 8430 1863 07       		.byte	0x7
 8431 1864 01       		.byte	0x1
 8432 1865 42000000 		.4byte	0x42
 8433 1869 19       		.byte	0x19
 8434 186a 3301     		.2byte	0x133
 8435 186c 7D180000 		.4byte	0x187d
 8436 1870 22       		.uleb128 0x22
 8437 1871 9E0F0000 		.4byte	.LASF336
 8438 1875 00       		.byte	0
 8439 1876 22       		.uleb128 0x22
 8440 1877 DF020000 		.4byte	.LASF337
 8441 187b 01       		.byte	0x1
 8442 187c 00       		.byte	0
 8443 187d 1A       		.uleb128 0x1a
 8444 187e 58270000 		.4byte	.LASF338
 8445 1882 19       		.byte	0x19
 8446 1883 3601     		.2byte	0x136
 8447 1885 62180000 		.4byte	0x1862
 8448 1889 1A       		.uleb128 0x1a
 8449 188a 54100000 		.4byte	.LASF339
 8450 188e 19       		.byte	0x19
 8451 188f 3B01     		.2byte	0x13b
 8452 1891 95180000 		.4byte	0x1895
 8453 1895 0C       		.uleb128 0xc
 8454 1896 54100000 		.4byte	.LASF339
 8455 189a 38       		.byte	0x38
 8456 189b 19       		.byte	0x19
 8457 189c 9F01     		.2byte	0x19f
 8458 189e 25190000 		.4byte	0x1925
 8459 18a2 0A       		.uleb128 0xa
 8460 18a3 1A190000 		.4byte	.LASF340
 8461 18a7 19       		.byte	0x19
 8462 18a8 A301     		.2byte	0x1a3
 8463 18aa 3F180000 		.4byte	0x183f
 8464 18ae 00       		.byte	0
 8465 18af 0A       		.uleb128 0xa
 8466 18b0 13200000 		.4byte	.LASF341
 8467 18b4 19       		.byte	0x19
 8468 18b5 A701     		.2byte	0x1a7
ARM GAS  /var/folders/bw/wdbp2_bd0pn7gl5ybd33xbb80000gn/T//ccZ5cvgj.s 			page 155


 8469 18b7 4C1A0000 		.4byte	0x1a4c
 8470 18bb 04       		.byte	0x4
 8471 18bc 0A       		.uleb128 0xa
 8472 18bd 3E020000 		.4byte	.LASF342
 8473 18c1 19       		.byte	0x19
 8474 18c2 AB01     		.2byte	0x1ab
 8475 18c4 52190000 		.4byte	0x1952
 8476 18c8 08       		.byte	0x8
 8477 18c9 0A       		.uleb128 0xa
 8478 18ca 4A1C0000 		.4byte	.LASF343
 8479 18ce 19       		.byte	0x19
 8480 18cf AF01     		.2byte	0x1af
 8481 18d1 19010000 		.4byte	0x119
 8482 18d5 0C       		.byte	0xc
 8483 18d6 0A       		.uleb128 0xa
 8484 18d7 00240000 		.4byte	.LASF344
 8485 18db 19       		.byte	0x19
 8486 18dc B301     		.2byte	0x1b3
 8487 18de 521A0000 		.4byte	0x1a52
 8488 18e2 10       		.byte	0x10
 8489 18e3 0A       		.uleb128 0xa
 8490 18e4 D3070000 		.4byte	.LASF345
 8491 18e8 19       		.byte	0x19
 8492 18e9 B801     		.2byte	0x1b8
 8493 18eb E8020000 		.4byte	0x2e8
 8494 18ef 14       		.byte	0x14
 8495 18f0 0A       		.uleb128 0xa
 8496 18f1 E70D0000 		.4byte	.LASF346
 8497 18f5 19       		.byte	0x19
 8498 18f6 BE01     		.2byte	0x1be
 8499 18f8 5F120000 		.4byte	0x125f
 8500 18fc 18       		.byte	0x18
 8501 18fd 09       		.uleb128 0x9
 8502 18fe 61646300 		.ascii	"adc\000"
 8503 1902 19       		.byte	0x19
 8504 1903 C701     		.2byte	0x1c7
 8505 1905 581A0000 		.4byte	0x1a58
 8506 1909 2C       		.byte	0x2c
 8507 190a 0A       		.uleb128 0xa
 8508 190b AA0B0000 		.4byte	.LASF347
 8509 190f 19       		.byte	0x19
 8510 1910 CB01     		.2byte	0x1cb
 8511 1912 5E1A0000 		.4byte	0x1a5e
 8512 1916 30       		.byte	0x30
 8513 1917 0A       		.uleb128 0xa
 8514 1918 5C1B0000 		.4byte	.LASF348
 8515 191c 19       		.byte	0x19
 8516 191d CF01     		.2byte	0x1cf
 8517 191f F9000000 		.4byte	0xf9
 8518 1923 34       		.byte	0x34
 8519 1924 00       		.byte	0
 8520 1925 1A       		.uleb128 0x1a
 8521 1926 3B1F0000 		.4byte	.LASF349
 8522 192a 19       		.byte	0x19
 8523 192b 4501     		.2byte	0x145
 8524 192d 31190000 		.4byte	0x1931
 8525 1931 0B       		.uleb128 0xb
ARM GAS  /var/folders/bw/wdbp2_bd0pn7gl5ybd33xbb80000gn/T//ccZ5cvgj.s 			page 156


 8526 1932 04       		.byte	0x4
 8527 1933 37190000 		.4byte	0x1937
 8528 1937 0D       		.uleb128 0xd
 8529 1938 4C190000 		.4byte	0x194c
 8530 193c 0E       		.uleb128 0xe
 8531 193d 4C190000 		.4byte	0x194c
 8532 1941 0E       		.uleb128 0xe
 8533 1942 52190000 		.4byte	0x1952
 8534 1946 0E       		.uleb128 0xe
 8535 1947 19010000 		.4byte	0x119
 8536 194b 00       		.byte	0
 8537 194c 0B       		.uleb128 0xb
 8538 194d 04       		.byte	0x4
 8539 194e 89180000 		.4byte	0x1889
 8540 1952 0B       		.uleb128 0xb
 8541 1953 04       		.byte	0x4
 8542 1954 4A180000 		.4byte	0x184a
 8543 1958 1A       		.uleb128 0x1a
 8544 1959 F5180000 		.4byte	.LASF350
 8545 195d 19       		.byte	0x19
 8546 195e 4E01     		.2byte	0x14e
 8547 1960 64190000 		.4byte	0x1964
 8548 1964 0B       		.uleb128 0xb
 8549 1965 04       		.byte	0x4
 8550 1966 6A190000 		.4byte	0x196a
 8551 196a 0D       		.uleb128 0xd
 8552 196b 7A190000 		.4byte	0x197a
 8553 196f 0E       		.uleb128 0xe
 8554 1970 4C190000 		.4byte	0x194c
 8555 1974 0E       		.uleb128 0xe
 8556 1975 7D180000 		.4byte	0x187d
 8557 1979 00       		.byte	0
 8558 197a 19       		.uleb128 0x19
 8559 197b 28       		.byte	0x28
 8560 197c 19       		.byte	0x19
 8561 197d 5801     		.2byte	0x158
 8562 197f 131A0000 		.4byte	0x1a13
 8563 1983 0A       		.uleb128 0xa
 8564 1984 67260000 		.4byte	.LASF351
 8565 1988 19       		.byte	0x19
 8566 1989 5C01     		.2byte	0x15c
 8567 198b A4150000 		.4byte	0x15a4
 8568 198f 00       		.byte	0
 8569 1990 0A       		.uleb128 0xa
 8570 1991 BE120000 		.4byte	.LASF352
 8571 1995 19       		.byte	0x19
 8572 1996 6001     		.2byte	0x160
 8573 1998 56180000 		.4byte	0x1856
 8574 199c 02       		.byte	0x2
 8575 199d 0A       		.uleb128 0xa
 8576 199e 400A0000 		.4byte	.LASF353
 8577 19a2 19       		.byte	0x19
 8578 19a3 6401     		.2byte	0x164
 8579 19a5 25190000 		.4byte	0x1925
 8580 19a9 04       		.byte	0x4
 8581 19aa 0A       		.uleb128 0xa
 8582 19ab 3E280000 		.4byte	.LASF354
ARM GAS  /var/folders/bw/wdbp2_bd0pn7gl5ybd33xbb80000gn/T//ccZ5cvgj.s 			page 157


 8583 19af 19       		.byte	0x19
 8584 19b0 6801     		.2byte	0x168
 8585 19b2 58190000 		.4byte	0x1958
 8586 19b6 08       		.byte	0x8
 8587 19b7 09       		.uleb128 0x9
 8588 19b8 63723100 		.ascii	"cr1\000"
 8589 19bc 19       		.byte	0x19
 8590 19bd 6F01     		.2byte	0x16f
 8591 19bf F9000000 		.4byte	0xf9
 8592 19c3 0C       		.byte	0xc
 8593 19c4 09       		.uleb128 0x9
 8594 19c5 63723200 		.ascii	"cr2\000"
 8595 19c9 19       		.byte	0x19
 8596 19ca 7601     		.2byte	0x176
 8597 19cc F9000000 		.4byte	0xf9
 8598 19d0 10       		.byte	0x10
 8599 19d1 0A       		.uleb128 0xa
 8600 19d2 541A0000 		.4byte	.LASF355
 8601 19d6 19       		.byte	0x19
 8602 19d7 7C01     		.2byte	0x17c
 8603 19d9 F9000000 		.4byte	0xf9
 8604 19dd 14       		.byte	0x14
 8605 19de 0A       		.uleb128 0xa
 8606 19df 5A1A0000 		.4byte	.LASF356
 8607 19e3 19       		.byte	0x19
 8608 19e4 8201     		.2byte	0x182
 8609 19e6 F9000000 		.4byte	0xf9
 8610 19ea 18       		.byte	0x18
 8611 19eb 0A       		.uleb128 0xa
 8612 19ec BF010000 		.4byte	.LASF357
 8613 19f0 19       		.byte	0x19
 8614 19f1 8701     		.2byte	0x187
 8615 19f3 F9000000 		.4byte	0xf9
 8616 19f7 1C       		.byte	0x1c
 8617 19f8 0A       		.uleb128 0xa
 8618 19f9 52290000 		.4byte	.LASF358
 8619 19fd 19       		.byte	0x19
 8620 19fe 8C01     		.2byte	0x18c
 8621 1a00 F9000000 		.4byte	0xf9
 8622 1a04 20       		.byte	0x20
 8623 1a05 0A       		.uleb128 0xa
 8624 1a06 57290000 		.4byte	.LASF359
 8625 1a0a 19       		.byte	0x19
 8626 1a0b 9101     		.2byte	0x191
 8627 1a0d F9000000 		.4byte	0xf9
 8628 1a11 24       		.byte	0x24
 8629 1a12 00       		.byte	0
 8630 1a13 1A       		.uleb128 0x1a
 8631 1a14 63060000 		.4byte	.LASF360
 8632 1a18 19       		.byte	0x19
 8633 1a19 9201     		.2byte	0x192
 8634 1a1b 7A190000 		.4byte	0x197a
 8635 1a1f 05       		.uleb128 0x5
 8636 1a20 131A0000 		.4byte	0x1a13
 8637 1a24 19       		.uleb128 0x19
 8638 1a25 04       		.byte	0x4
 8639 1a26 19       		.byte	0x19
ARM GAS  /var/folders/bw/wdbp2_bd0pn7gl5ybd33xbb80000gn/T//ccZ5cvgj.s 			page 158


 8640 1a27 9801     		.2byte	0x198
 8641 1a29 3B1A0000 		.4byte	0x1a3b
 8642 1a2d 0A       		.uleb128 0xa
 8643 1a2e 89290000 		.4byte	.LASF361
 8644 1a32 19       		.byte	0x19
 8645 1a33 9901     		.2byte	0x199
 8646 1a35 F9000000 		.4byte	0xf9
 8647 1a39 00       		.byte	0
 8648 1a3a 00       		.byte	0
 8649 1a3b 1A       		.uleb128 0x1a
 8650 1a3c 6C100000 		.4byte	.LASF362
 8651 1a40 19       		.byte	0x19
 8652 1a41 9A01     		.2byte	0x19a
 8653 1a43 241A0000 		.4byte	0x1a24
 8654 1a47 05       		.uleb128 0x5
 8655 1a48 3B1A0000 		.4byte	0x1a3b
 8656 1a4c 0B       		.uleb128 0xb
 8657 1a4d 04       		.byte	0x4
 8658 1a4e 471A0000 		.4byte	0x1a47
 8659 1a52 0B       		.uleb128 0xb
 8660 1a53 04       		.byte	0x4
 8661 1a54 1F1A0000 		.4byte	0x1a1f
 8662 1a58 0B       		.uleb128 0xb
 8663 1a59 04       		.byte	0x4
 8664 1a5a 6D060000 		.4byte	0x66d
 8665 1a5e 0B       		.uleb128 0xb
 8666 1a5f 04       		.byte	0x4
 8667 1a60 73140000 		.4byte	0x1473
 8668 1a64 15       		.uleb128 0x15
 8669 1a65 451B0000 		.4byte	.LASF363
 8670 1a69 19       		.byte	0x19
 8671 1a6a 1402     		.2byte	0x214
 8672 1a6c 89180000 		.4byte	0x1889
 8673 1a70 15       		.uleb128 0x15
 8674 1a71 4B1B0000 		.4byte	.LASF364
 8675 1a75 19       		.byte	0x19
 8676 1a76 1802     		.2byte	0x218
 8677 1a78 89180000 		.4byte	0x1889
 8678 1a7c 15       		.uleb128 0x15
 8679 1a7d 511B0000 		.4byte	.LASF365
 8680 1a81 19       		.byte	0x19
 8681 1a82 1C02     		.2byte	0x21c
 8682 1a84 89180000 		.4byte	0x1889
 8683 1a88 21       		.uleb128 0x21
 8684 1a89 07       		.byte	0x7
 8685 1a8a 01       		.byte	0x1
 8686 1a8b 42000000 		.4byte	0x42
 8687 1a8f 1A       		.byte	0x1a
 8688 1a90 5F       		.byte	0x5f
 8689 1a91 B41A0000 		.4byte	0x1ab4
 8690 1a95 22       		.uleb128 0x22
 8691 1a96 110B0000 		.4byte	.LASF366
 8692 1a9a 00       		.byte	0
 8693 1a9b 22       		.uleb128 0x22
 8694 1a9c 0A010000 		.4byte	.LASF367
 8695 1aa0 01       		.byte	0x1
 8696 1aa1 22       		.uleb128 0x22
ARM GAS  /var/folders/bw/wdbp2_bd0pn7gl5ybd33xbb80000gn/T//ccZ5cvgj.s 			page 159


 8697 1aa2 67000000 		.4byte	.LASF368
 8698 1aa6 02       		.byte	0x2
 8699 1aa7 22       		.uleb128 0x22
 8700 1aa8 99060000 		.4byte	.LASF369
 8701 1aac 03       		.byte	0x3
 8702 1aad 22       		.uleb128 0x22
 8703 1aae FE0A0000 		.4byte	.LASF370
 8704 1ab2 04       		.byte	0x4
 8705 1ab3 00       		.byte	0
 8706 1ab4 02       		.uleb128 0x2
 8707 1ab5 C8060000 		.4byte	.LASF371
 8708 1ab9 1A       		.byte	0x1a
 8709 1aba 65       		.byte	0x65
 8710 1abb 881A0000 		.4byte	0x1a88
 8711 1abf 13       		.uleb128 0x13
 8712 1ac0 C3000000 		.4byte	0xc3
 8713 1ac4 CF1A0000 		.4byte	0x1acf
 8714 1ac8 14       		.uleb128 0x14
 8715 1ac9 B1000000 		.4byte	0xb1
 8716 1acd 07       		.byte	0x7
 8717 1ace 00       		.byte	0
 8718 1acf 17       		.uleb128 0x17
 8719 1ad0 08       		.byte	0x8
 8720 1ad1 1B       		.byte	0x1b
 8721 1ad2 F4       		.byte	0xf4
 8722 1ad3 F11A0000 		.4byte	0x1af1
 8723 1ad7 18       		.uleb128 0x18
 8724 1ad8 6D637200 		.ascii	"mcr\000"
 8725 1adc 1B       		.byte	0x1b
 8726 1add FA       		.byte	0xfa
 8727 1ade F9000000 		.4byte	0xf9
 8728 1ae2 00       		.byte	0
 8729 1ae3 09       		.uleb128 0x9
 8730 1ae4 62747200 		.ascii	"btr\000"
 8731 1ae8 1B       		.byte	0x1b
 8732 1ae9 0001     		.2byte	0x100
 8733 1aeb F9000000 		.4byte	0xf9
 8734 1aef 04       		.byte	0x4
 8735 1af0 00       		.byte	0
 8736 1af1 1A       		.uleb128 0x1a
 8737 1af2 3D1D0000 		.4byte	.LASF372
 8738 1af6 1B       		.byte	0x1b
 8739 1af7 0101     		.2byte	0x101
 8740 1af9 CF1A0000 		.4byte	0x1acf
 8741 1afd 05       		.uleb128 0x5
 8742 1afe F11A0000 		.4byte	0x1af1
 8743 1b02 19       		.uleb128 0x19
 8744 1b03 30       		.byte	0x30
 8745 1b04 1B       		.byte	0x1b
 8746 1b05 0601     		.2byte	0x106
 8747 1b07 8E1B0000 		.4byte	0x1b8e
 8748 1b0b 0A       		.uleb128 0xa
 8749 1b0c 1A190000 		.4byte	.LASF340
 8750 1b10 1B       		.byte	0x1b
 8751 1b11 0A01     		.2byte	0x10a
 8752 1b13 B41A0000 		.4byte	0x1ab4
 8753 1b17 00       		.byte	0
ARM GAS  /var/folders/bw/wdbp2_bd0pn7gl5ybd33xbb80000gn/T//ccZ5cvgj.s 			page 160


 8754 1b18 0A       		.uleb128 0xa
 8755 1b19 13200000 		.4byte	.LASF341
 8756 1b1d 1B       		.byte	0x1b
 8757 1b1e 0E01     		.2byte	0x10e
 8758 1b20 8E1B0000 		.4byte	0x1b8e
 8759 1b24 04       		.byte	0x4
 8760 1b25 0A       		.uleb128 0xa
 8761 1b26 750A0000 		.4byte	.LASF373
 8762 1b2a 1B       		.byte	0x1b
 8763 1b2b 1201     		.2byte	0x112
 8764 1b2d 1D030000 		.4byte	0x31d
 8765 1b31 08       		.byte	0x8
 8766 1b32 0A       		.uleb128 0xa
 8767 1b33 C1230000 		.4byte	.LASF374
 8768 1b37 1B       		.byte	0x1b
 8769 1b38 1601     		.2byte	0x116
 8770 1b3a 1D030000 		.4byte	0x31d
 8771 1b3e 10       		.byte	0x10
 8772 1b3f 0A       		.uleb128 0xa
 8773 1b40 021D0000 		.4byte	.LASF375
 8774 1b44 1B       		.byte	0x1b
 8775 1b45 2301     		.2byte	0x123
 8776 1b47 E3120000 		.4byte	0x12e3
 8777 1b4b 18       		.byte	0x18
 8778 1b4c 0A       		.uleb128 0xa
 8779 1b4d D40C0000 		.4byte	.LASF376
 8780 1b51 1B       		.byte	0x1b
 8781 1b52 2A01     		.2byte	0x12a
 8782 1b54 E3120000 		.4byte	0x12e3
 8783 1b58 1C       		.byte	0x1c
 8784 1b59 0A       		.uleb128 0xa
 8785 1b5a B2120000 		.4byte	.LASF377
 8786 1b5e 1B       		.byte	0x1b
 8787 1b5f 3001     		.2byte	0x130
 8788 1b61 E3120000 		.4byte	0x12e3
 8789 1b65 20       		.byte	0x20
 8790 1b66 0A       		.uleb128 0xa
 8791 1b67 3A040000 		.4byte	.LASF378
 8792 1b6b 1B       		.byte	0x1b
 8793 1b6c 3501     		.2byte	0x135
 8794 1b6e E3120000 		.4byte	0x12e3
 8795 1b72 24       		.byte	0x24
 8796 1b73 0A       		.uleb128 0xa
 8797 1b74 210A0000 		.4byte	.LASF379
 8798 1b78 1B       		.byte	0x1b
 8799 1b79 3901     		.2byte	0x139
 8800 1b7b E3120000 		.4byte	0x12e3
 8801 1b7f 28       		.byte	0x28
 8802 1b80 09       		.uleb128 0x9
 8803 1b81 63616E00 		.ascii	"can\000"
 8804 1b85 1B       		.byte	0x1b
 8805 1b86 3F01     		.2byte	0x13f
 8806 1b88 941B0000 		.4byte	0x1b94
 8807 1b8c 2C       		.byte	0x2c
 8808 1b8d 00       		.byte	0
 8809 1b8e 0B       		.uleb128 0xb
 8810 1b8f 04       		.byte	0x4
ARM GAS  /var/folders/bw/wdbp2_bd0pn7gl5ybd33xbb80000gn/T//ccZ5cvgj.s 			page 161


 8811 1b90 FD1A0000 		.4byte	0x1afd
 8812 1b94 0B       		.uleb128 0xb
 8813 1b95 04       		.byte	0x4
 8814 1b96 B6080000 		.4byte	0x8b6
 8815 1b9a 1A       		.uleb128 0x1a
 8816 1b9b A0040000 		.4byte	.LASF380
 8817 1b9f 1B       		.byte	0x1b
 8818 1ba0 4001     		.2byte	0x140
 8819 1ba2 021B0000 		.4byte	0x1b02
 8820 1ba6 15       		.uleb128 0x15
 8821 1ba7 69250000 		.4byte	.LASF381
 8822 1bab 1B       		.byte	0x1b
 8823 1bac 4B01     		.2byte	0x14b
 8824 1bae 9A1B0000 		.4byte	0x1b9a
 8825 1bb2 21       		.uleb128 0x21
 8826 1bb3 07       		.byte	0x7
 8827 1bb4 01       		.byte	0x1
 8828 1bb5 42000000 		.4byte	0x42
 8829 1bb9 1C       		.byte	0x1c
 8830 1bba 46       		.byte	0x46
 8831 1bbb E41B0000 		.4byte	0x1be4
 8832 1bbf 22       		.uleb128 0x22
 8833 1bc0 73200000 		.4byte	.LASF382
 8834 1bc4 00       		.byte	0
 8835 1bc5 22       		.uleb128 0x22
 8836 1bc6 94260000 		.4byte	.LASF383
 8837 1bca 01       		.byte	0x1
 8838 1bcb 22       		.uleb128 0x22
 8839 1bcc DD0F0000 		.4byte	.LASF384
 8840 1bd0 02       		.byte	0x2
 8841 1bd1 22       		.uleb128 0x22
 8842 1bd2 08190000 		.4byte	.LASF385
 8843 1bd6 03       		.byte	0x3
 8844 1bd7 22       		.uleb128 0x22
 8845 1bd8 E21F0000 		.4byte	.LASF386
 8846 1bdc 04       		.byte	0x4
 8847 1bdd 22       		.uleb128 0x22
 8848 1bde F9110000 		.4byte	.LASF387
 8849 1be2 05       		.byte	0x5
 8850 1be3 00       		.byte	0
 8851 1be4 02       		.uleb128 0x2
 8852 1be5 AE1C0000 		.4byte	.LASF388
 8853 1be9 1C       		.byte	0x1c
 8854 1bea 4D       		.byte	0x4d
 8855 1beb B21B0000 		.4byte	0x1bb2
 8856 1bef 17       		.uleb128 0x17
 8857 1bf0 1C       		.byte	0x1c
 8858 1bf1 1D       		.byte	0x1d
 8859 1bf2 F9       		.byte	0xf9
 8860 1bf3 521C0000 		.4byte	0x1c52
 8861 1bf7 18       		.uleb128 0x18
 8862 1bf8 64616300 		.ascii	"dac\000"
 8863 1bfc 1D       		.byte	0x1d
 8864 1bfd FD       		.byte	0xfd
 8865 1bfe 521C0000 		.4byte	0x1c52
 8866 1c02 00       		.byte	0
 8867 1c03 0A       		.uleb128 0xa
ARM GAS  /var/folders/bw/wdbp2_bd0pn7gl5ybd33xbb80000gn/T//ccZ5cvgj.s 			page 162


 8868 1c04 EE1B0000 		.4byte	.LASF389
 8869 1c08 1D       		.byte	0x1d
 8870 1c09 0101     		.2byte	0x101
 8871 1c0b F9000000 		.4byte	0xf9
 8872 1c0f 04       		.byte	0x4
 8873 1c10 0A       		.uleb128 0xa
 8874 1c11 DA070000 		.4byte	.LASF390
 8875 1c15 1D       		.byte	0x1d
 8876 1c16 0501     		.2byte	0x105
 8877 1c18 F9000000 		.4byte	0xf9
 8878 1c1c 08       		.byte	0x8
 8879 1c1d 0A       		.uleb128 0xa
 8880 1c1e 66020000 		.4byte	.LASF391
 8881 1c22 1D       		.byte	0x1d
 8882 1c23 0901     		.2byte	0x109
 8883 1c25 F9000000 		.4byte	0xf9
 8884 1c29 0C       		.byte	0xc
 8885 1c2a 09       		.uleb128 0x9
 8886 1c2b 646D6100 		.ascii	"dma\000"
 8887 1c2f 1D       		.byte	0x1d
 8888 1c30 0D01     		.2byte	0x10d
 8889 1c32 5E1A0000 		.4byte	0x1a5e
 8890 1c36 10       		.byte	0x10
 8891 1c37 0A       		.uleb128 0xa
 8892 1c38 5C1B0000 		.4byte	.LASF348
 8893 1c3c 1D       		.byte	0x1d
 8894 1c3d 1101     		.2byte	0x111
 8895 1c3f F9000000 		.4byte	0xf9
 8896 1c43 14       		.byte	0x14
 8897 1c44 0A       		.uleb128 0xa
 8898 1c45 E51A0000 		.4byte	.LASF392
 8899 1c49 1D       		.byte	0x1d
 8900 1c4a 1501     		.2byte	0x115
 8901 1c4c F9000000 		.4byte	0xf9
 8902 1c50 18       		.byte	0x18
 8903 1c51 00       		.byte	0
 8904 1c52 0B       		.uleb128 0xb
 8905 1c53 04       		.byte	0x4
 8906 1c54 80090000 		.4byte	0x980
 8907 1c58 1A       		.uleb128 0x1a
 8908 1c59 D2030000 		.4byte	.LASF393
 8909 1c5d 1D       		.byte	0x1d
 8910 1c5e 1601     		.2byte	0x116
 8911 1c60 EF1B0000 		.4byte	0x1bef
 8912 1c64 05       		.uleb128 0x5
 8913 1c65 581C0000 		.4byte	0x1c58
 8914 1c69 1A       		.uleb128 0x1a
 8915 1c6a FE0D0000 		.4byte	.LASF394
 8916 1c6e 1D       		.byte	0x1d
 8917 1c6f 1B01     		.2byte	0x11b
 8918 1c71 751C0000 		.4byte	0x1c75
 8919 1c75 0C       		.uleb128 0xc
 8920 1c76 FE0D0000 		.4byte	.LASF394
 8921 1c7a 30       		.byte	0x30
 8922 1c7b 1D       		.byte	0x1d
 8923 1c7c 7B01     		.2byte	0x17b
 8924 1c7e EB1C0000 		.4byte	0x1ceb
ARM GAS  /var/folders/bw/wdbp2_bd0pn7gl5ybd33xbb80000gn/T//ccZ5cvgj.s 			page 163


 8925 1c82 0A       		.uleb128 0xa
 8926 1c83 1A190000 		.4byte	.LASF340
 8927 1c87 1D       		.byte	0x1d
 8928 1c88 7F01     		.2byte	0x17f
 8929 1c8a E41B0000 		.4byte	0x1be4
 8930 1c8e 00       		.byte	0
 8931 1c8f 0A       		.uleb128 0xa
 8932 1c90 00240000 		.4byte	.LASF344
 8933 1c94 1D       		.byte	0x1d
 8934 1c95 8301     		.2byte	0x183
 8935 1c97 291E0000 		.4byte	0x1e29
 8936 1c9b 04       		.byte	0x4
 8937 1c9c 0A       		.uleb128 0xa
 8938 1c9d 3E020000 		.4byte	.LASF342
 8939 1ca1 1D       		.byte	0x1d
 8940 1ca2 8701     		.2byte	0x187
 8941 1ca4 501D0000 		.4byte	0x1d50
 8942 1ca8 08       		.byte	0x8
 8943 1ca9 0A       		.uleb128 0xa
 8944 1caa 4A1C0000 		.4byte	.LASF343
 8945 1cae 1D       		.byte	0x1d
 8946 1caf 8B01     		.2byte	0x18b
 8947 1cb1 DE000000 		.4byte	0xde
 8948 1cb5 0C       		.byte	0xc
 8949 1cb6 0A       		.uleb128 0xa
 8950 1cb7 13200000 		.4byte	.LASF341
 8951 1cbb 1D       		.byte	0x1d
 8952 1cbc 8F01     		.2byte	0x18f
 8953 1cbe 2F1E0000 		.4byte	0x1e2f
 8954 1cc2 10       		.byte	0x10
 8955 1cc3 0A       		.uleb128 0xa
 8956 1cc4 D3070000 		.4byte	.LASF345
 8957 1cc8 1D       		.byte	0x1d
 8958 1cc9 9401     		.2byte	0x194
 8959 1ccb E8020000 		.4byte	0x2e8
 8960 1ccf 14       		.byte	0x14
 8961 1cd0 0A       		.uleb128 0xa
 8962 1cd1 E70D0000 		.4byte	.LASF346
 8963 1cd5 1D       		.byte	0x1d
 8964 1cd6 9A01     		.2byte	0x19a
 8965 1cd8 5F120000 		.4byte	0x125f
 8966 1cdc 18       		.byte	0x18
 8967 1cdd 0A       		.uleb128 0xa
 8968 1cde 3D130000 		.4byte	.LASF395
 8969 1ce2 1D       		.byte	0x1d
 8970 1ce3 A301     		.2byte	0x1a3
 8971 1ce5 351E0000 		.4byte	0x1e35
 8972 1ce9 2C       		.byte	0x2c
 8973 1cea 00       		.byte	0
 8974 1ceb 1A       		.uleb128 0x1a
 8975 1cec D41C0000 		.4byte	.LASF396
 8976 1cf0 1D       		.byte	0x1d
 8977 1cf1 2001     		.2byte	0x120
 8978 1cf3 DE000000 		.4byte	0xde
 8979 1cf7 05       		.uleb128 0x5
 8980 1cf8 EB1C0000 		.4byte	0x1ceb
 8981 1cfc 24       		.uleb128 0x24
ARM GAS  /var/folders/bw/wdbp2_bd0pn7gl5ybd33xbb80000gn/T//ccZ5cvgj.s 			page 164


 8982 1cfd 07       		.byte	0x7
 8983 1cfe 01       		.byte	0x1
 8984 1cff 42000000 		.4byte	0x42
 8985 1d03 1D       		.byte	0x1d
 8986 1d04 2701     		.2byte	0x127
 8987 1d06 171D0000 		.4byte	0x1d17
 8988 1d0a 22       		.uleb128 0x22
 8989 1d0b BE1D0000 		.4byte	.LASF397
 8990 1d0f 00       		.byte	0
 8991 1d10 22       		.uleb128 0x22
 8992 1d11 0F0A0000 		.4byte	.LASF398
 8993 1d15 01       		.byte	0x1
 8994 1d16 00       		.byte	0
 8995 1d17 1A       		.uleb128 0x1a
 8996 1d18 BC130000 		.4byte	.LASF399
 8997 1d1c 1D       		.byte	0x1d
 8998 1d1d 2A01     		.2byte	0x12a
 8999 1d1f FC1C0000 		.4byte	0x1cfc
 9000 1d23 1A       		.uleb128 0x1a
 9001 1d24 54080000 		.4byte	.LASF400
 9002 1d28 1D       		.byte	0x1d
 9003 1d29 3401     		.2byte	0x134
 9004 1d2b 2F1D0000 		.4byte	0x1d2f
 9005 1d2f 0B       		.uleb128 0xb
 9006 1d30 04       		.byte	0x4
 9007 1d31 351D0000 		.4byte	0x1d35
 9008 1d35 0D       		.uleb128 0xd
 9009 1d36 4A1D0000 		.4byte	0x1d4a
 9010 1d3a 0E       		.uleb128 0xe
 9011 1d3b 4A1D0000 		.4byte	0x1d4a
 9012 1d3f 0E       		.uleb128 0xe
 9013 1d40 501D0000 		.4byte	0x1d50
 9014 1d44 0E       		.uleb128 0xe
 9015 1d45 19010000 		.4byte	0x119
 9016 1d49 00       		.byte	0
 9017 1d4a 0B       		.uleb128 0xb
 9018 1d4b 04       		.byte	0x4
 9019 1d4c 691C0000 		.4byte	0x1c69
 9020 1d50 0B       		.uleb128 0xb
 9021 1d51 04       		.byte	0x4
 9022 1d52 F71C0000 		.4byte	0x1cf7
 9023 1d56 1A       		.uleb128 0x1a
 9024 1d57 B6250000 		.4byte	.LASF401
 9025 1d5b 1D       		.byte	0x1d
 9026 1d5c 3F01     		.2byte	0x13f
 9027 1d5e 621D0000 		.4byte	0x1d62
 9028 1d62 0B       		.uleb128 0xb
 9029 1d63 04       		.byte	0x4
 9030 1d64 681D0000 		.4byte	0x1d68
 9031 1d68 0D       		.uleb128 0xd
 9032 1d69 781D0000 		.4byte	0x1d78
 9033 1d6d 0E       		.uleb128 0xe
 9034 1d6e 4A1D0000 		.4byte	0x1d4a
 9035 1d72 0E       		.uleb128 0xe
 9036 1d73 171D0000 		.4byte	0x1d17
 9037 1d77 00       		.byte	0
 9038 1d78 24       		.uleb128 0x24
ARM GAS  /var/folders/bw/wdbp2_bd0pn7gl5ybd33xbb80000gn/T//ccZ5cvgj.s 			page 165


 9039 1d79 07       		.byte	0x7
 9040 1d7a 01       		.byte	0x1
 9041 1d7b 42000000 		.4byte	0x42
 9042 1d7f 1D       		.byte	0x1d
 9043 1d80 4401     		.2byte	0x144
 9044 1d82 991D0000 		.4byte	0x1d99
 9045 1d86 22       		.uleb128 0x22
 9046 1d87 CD200000 		.4byte	.LASF402
 9047 1d8b 00       		.byte	0
 9048 1d8c 22       		.uleb128 0x22
 9049 1d8d 62150000 		.4byte	.LASF403
 9050 1d91 01       		.byte	0x1
 9051 1d92 22       		.uleb128 0x22
 9052 1d93 DB190000 		.4byte	.LASF404
 9053 1d97 02       		.byte	0x2
 9054 1d98 00       		.byte	0
 9055 1d99 1A       		.uleb128 0x1a
 9056 1d9a 9D0B0000 		.4byte	.LASF405
 9057 1d9e 1D       		.byte	0x1d
 9058 1d9f 4D01     		.2byte	0x14d
 9059 1da1 781D0000 		.4byte	0x1d78
 9060 1da5 19       		.uleb128 0x19
 9061 1da6 10       		.byte	0x10
 9062 1da7 1D       		.byte	0x1d
 9063 1da8 5201     		.2byte	0x152
 9064 1daa E31D0000 		.4byte	0x1de3
 9065 1dae 0A       		.uleb128 0xa
 9066 1daf BE120000 		.4byte	.LASF352
 9067 1db3 1D       		.byte	0x1d
 9068 1db4 5601     		.2byte	0x156
 9069 1db6 F9000000 		.4byte	0xf9
 9070 1dba 00       		.byte	0
 9071 1dbb 0A       		.uleb128 0xa
 9072 1dbc 400A0000 		.4byte	.LASF353
 9073 1dc0 1D       		.byte	0x1d
 9074 1dc1 5A01     		.2byte	0x15a
 9075 1dc3 231D0000 		.4byte	0x1d23
 9076 1dc7 04       		.byte	0x4
 9077 1dc8 0A       		.uleb128 0xa
 9078 1dc9 3E280000 		.4byte	.LASF354
 9079 1dcd 1D       		.byte	0x1d
 9080 1dce 5E01     		.2byte	0x15e
 9081 1dd0 561D0000 		.4byte	0x1d56
 9082 1dd4 08       		.byte	0x8
 9083 1dd5 0A       		.uleb128 0xa
 9084 1dd6 05170000 		.4byte	.LASF406
 9085 1dda 1D       		.byte	0x1d
 9086 1ddb 6601     		.2byte	0x166
 9087 1ddd F9000000 		.4byte	0xf9
 9088 1de1 0C       		.byte	0xc
 9089 1de2 00       		.byte	0
 9090 1de3 1A       		.uleb128 0x1a
 9091 1de4 79140000 		.4byte	.LASF407
 9092 1de8 1D       		.byte	0x1d
 9093 1de9 6701     		.2byte	0x167
 9094 1deb A51D0000 		.4byte	0x1da5
 9095 1def 05       		.uleb128 0x5
ARM GAS  /var/folders/bw/wdbp2_bd0pn7gl5ybd33xbb80000gn/T//ccZ5cvgj.s 			page 166


 9096 1df0 E31D0000 		.4byte	0x1de3
 9097 1df4 19       		.uleb128 0x19
 9098 1df5 04       		.byte	0x4
 9099 1df6 1D       		.byte	0x1d
 9100 1df7 6C01     		.2byte	0x16c
 9101 1df9 181E0000 		.4byte	0x1e18
 9102 1dfd 0A       		.uleb128 0xa
 9103 1dfe EF0B0000 		.4byte	.LASF408
 9104 1e02 1D       		.byte	0x1d
 9105 1e03 7101     		.2byte	0x171
 9106 1e05 EB1C0000 		.4byte	0x1ceb
 9107 1e09 00       		.byte	0
 9108 1e0a 0A       		.uleb128 0xa
 9109 1e0b 51010000 		.4byte	.LASF409
 9110 1e0f 1D       		.byte	0x1d
 9111 1e10 7501     		.2byte	0x175
 9112 1e12 991D0000 		.4byte	0x1d99
 9113 1e16 02       		.byte	0x2
 9114 1e17 00       		.byte	0
 9115 1e18 1A       		.uleb128 0x1a
 9116 1e19 080E0000 		.4byte	.LASF410
 9117 1e1d 1D       		.byte	0x1d
 9118 1e1e 7601     		.2byte	0x176
 9119 1e20 F41D0000 		.4byte	0x1df4
 9120 1e24 05       		.uleb128 0x5
 9121 1e25 181E0000 		.4byte	0x1e18
 9122 1e29 0B       		.uleb128 0xb
 9123 1e2a 04       		.byte	0x4
 9124 1e2b EF1D0000 		.4byte	0x1def
 9125 1e2f 0B       		.uleb128 0xb
 9126 1e30 04       		.byte	0x4
 9127 1e31 241E0000 		.4byte	0x1e24
 9128 1e35 0B       		.uleb128 0xb
 9129 1e36 04       		.byte	0x4
 9130 1e37 641C0000 		.4byte	0x1c64
 9131 1e3b 15       		.uleb128 0x15
 9132 1e3c 9A040000 		.4byte	.LASF411
 9133 1e40 1D       		.byte	0x1d
 9134 1e41 B301     		.2byte	0x1b3
 9135 1e43 691C0000 		.4byte	0x1c69
 9136 1e47 21       		.uleb128 0x21
 9137 1e48 07       		.byte	0x7
 9138 1e49 01       		.byte	0x1
 9139 1e4a 42000000 		.4byte	0x42
 9140 1e4e 1E       		.byte	0x1e
 9141 1e4f 3F       		.byte	0x3f
 9142 1e50 671E0000 		.4byte	0x1e67
 9143 1e54 22       		.uleb128 0x22
 9144 1e55 F30A0000 		.4byte	.LASF412
 9145 1e59 00       		.byte	0
 9146 1e5a 22       		.uleb128 0x22
 9147 1e5b 672A0000 		.4byte	.LASF413
 9148 1e5f 01       		.byte	0x1
 9149 1e60 22       		.uleb128 0x22
 9150 1e61 97020000 		.4byte	.LASF414
 9151 1e65 02       		.byte	0x2
 9152 1e66 00       		.byte	0
ARM GAS  /var/folders/bw/wdbp2_bd0pn7gl5ybd33xbb80000gn/T//ccZ5cvgj.s 			page 167


 9153 1e67 02       		.uleb128 0x2
 9154 1e68 721F0000 		.4byte	.LASF415
 9155 1e6c 1E       		.byte	0x1e
 9156 1e6d 43       		.byte	0x43
 9157 1e6e 471E0000 		.4byte	0x1e47
 9158 1e72 02       		.uleb128 0x2
 9159 1e73 86090000 		.4byte	.LASF416
 9160 1e77 1E       		.byte	0x1e
 9161 1e78 48       		.byte	0x48
 9162 1e79 7D1E0000 		.4byte	0x1e7d
 9163 1e7d 07       		.uleb128 0x7
 9164 1e7e 86090000 		.4byte	.LASF416
 9165 1e82 08       		.byte	0x8
 9166 1e83 1F       		.byte	0x1f
 9167 1e84 71       		.byte	0x71
 9168 1e85 A21E0000 		.4byte	0x1ea2
 9169 1e89 08       		.uleb128 0x8
 9170 1e8a 1A190000 		.4byte	.LASF340
 9171 1e8e 1F       		.byte	0x1f
 9172 1e8f 75       		.byte	0x75
 9173 1e90 671E0000 		.4byte	0x1e67
 9174 1e94 00       		.byte	0
 9175 1e95 08       		.uleb128 0x8
 9176 1e96 13200000 		.4byte	.LASF341
 9177 1e9a 1F       		.byte	0x1f
 9178 1e9b 79       		.byte	0x79
 9179 1e9c 341F0000 		.4byte	0x1f34
 9180 1ea0 04       		.byte	0x4
 9181 1ea1 00       		.byte	0
 9182 1ea2 02       		.uleb128 0x2
 9183 1ea3 87280000 		.4byte	.LASF417
 9184 1ea7 1F       		.byte	0x1f
 9185 1ea8 47       		.byte	0x47
 9186 1ea9 F9000000 		.4byte	0xf9
 9187 1ead 02       		.uleb128 0x2
 9188 1eae B3230000 		.4byte	.LASF418
 9189 1eb2 1F       		.byte	0x1f
 9190 1eb3 4F       		.byte	0x4f
 9191 1eb4 B81E0000 		.4byte	0x1eb8
 9192 1eb8 0B       		.uleb128 0xb
 9193 1eb9 04       		.byte	0x4
 9194 1eba BE1E0000 		.4byte	0x1ebe
 9195 1ebe 0D       		.uleb128 0xd
 9196 1ebf CE1E0000 		.4byte	0x1ece
 9197 1ec3 0E       		.uleb128 0xe
 9198 1ec4 CE1E0000 		.4byte	0x1ece
 9199 1ec8 0E       		.uleb128 0xe
 9200 1ec9 A21E0000 		.4byte	0x1ea2
 9201 1ecd 00       		.byte	0
 9202 1ece 0B       		.uleb128 0xb
 9203 1ecf 04       		.byte	0x4
 9204 1ed0 721E0000 		.4byte	0x1e72
 9205 1ed4 17       		.uleb128 0x17
 9206 1ed5 08       		.byte	0x8
 9207 1ed6 1F       		.byte	0x1f
 9208 1ed7 54       		.byte	0x54
 9209 1ed8 F41E0000 		.4byte	0x1ef4
ARM GAS  /var/folders/bw/wdbp2_bd0pn7gl5ybd33xbb80000gn/T//ccZ5cvgj.s 			page 168


 9210 1edc 08       		.uleb128 0x8
 9211 1edd 6B090000 		.4byte	.LASF419
 9212 1ee1 1F       		.byte	0x1f
 9213 1ee2 58       		.byte	0x58
 9214 1ee3 F9000000 		.4byte	0xf9
 9215 1ee7 00       		.byte	0
 9216 1ee8 18       		.uleb128 0x18
 9217 1ee9 636200   		.ascii	"cb\000"
 9218 1eec 1F       		.byte	0x1f
 9219 1eed 5F       		.byte	0x5f
 9220 1eee AD1E0000 		.4byte	0x1ead
 9221 1ef2 04       		.byte	0x4
 9222 1ef3 00       		.byte	0
 9223 1ef4 02       		.uleb128 0x2
 9224 1ef5 C40F0000 		.4byte	.LASF420
 9225 1ef9 1F       		.byte	0x1f
 9226 1efa 60       		.byte	0x60
 9227 1efb D41E0000 		.4byte	0x1ed4
 9228 1eff 17       		.uleb128 0x17
 9229 1f00 B8       		.byte	0xb8
 9230 1f01 1F       		.byte	0x1f
 9231 1f02 66       		.byte	0x66
 9232 1f03 141F0000 		.4byte	0x1f14
 9233 1f07 08       		.uleb128 0x8
 9234 1f08 DB250000 		.4byte	.LASF421
 9235 1f0c 1F       		.byte	0x1f
 9236 1f0d 6A       		.byte	0x6a
 9237 1f0e 141F0000 		.4byte	0x1f14
 9238 1f12 00       		.byte	0
 9239 1f13 00       		.byte	0
 9240 1f14 13       		.uleb128 0x13
 9241 1f15 F41E0000 		.4byte	0x1ef4
 9242 1f19 241F0000 		.4byte	0x1f24
 9243 1f1d 14       		.uleb128 0x14
 9244 1f1e B1000000 		.4byte	0xb1
 9245 1f22 16       		.byte	0x16
 9246 1f23 00       		.byte	0
 9247 1f24 02       		.uleb128 0x2
 9248 1f25 78220000 		.4byte	.LASF422
 9249 1f29 1F       		.byte	0x1f
 9250 1f2a 6C       		.byte	0x6c
 9251 1f2b FF1E0000 		.4byte	0x1eff
 9252 1f2f 05       		.uleb128 0x5
 9253 1f30 241F0000 		.4byte	0x1f24
 9254 1f34 0B       		.uleb128 0xb
 9255 1f35 04       		.byte	0x4
 9256 1f36 2F1F0000 		.4byte	0x1f2f
 9257 1f3a 16       		.uleb128 0x16
 9258 1f3b B9060000 		.4byte	.LASF423
 9259 1f3f 1F       		.byte	0x1f
 9260 1f40 86       		.byte	0x86
 9261 1f41 721E0000 		.4byte	0x1e72
 9262 1f45 21       		.uleb128 0x21
 9263 1f46 07       		.byte	0x7
 9264 1f47 01       		.byte	0x1
 9265 1f48 42000000 		.4byte	0x42
 9266 1f4c 20       		.byte	0x20
ARM GAS  /var/folders/bw/wdbp2_bd0pn7gl5ybd33xbb80000gn/T//ccZ5cvgj.s 			page 169


 9267 1f4d 31       		.byte	0x31
 9268 1f4e 711F0000 		.4byte	0x1f71
 9269 1f52 22       		.uleb128 0x22
 9270 1f53 EF190000 		.4byte	.LASF424
 9271 1f57 00       		.byte	0
 9272 1f58 22       		.uleb128 0x22
 9273 1f59 2D170000 		.4byte	.LASF425
 9274 1f5d 01       		.byte	0x1
 9275 1f5e 22       		.uleb128 0x22
 9276 1f5f A41C0000 		.4byte	.LASF426
 9277 1f63 02       		.byte	0x2
 9278 1f64 22       		.uleb128 0x22
 9279 1f65 A4080000 		.4byte	.LASF427
 9280 1f69 03       		.byte	0x3
 9281 1f6a 22       		.uleb128 0x22
 9282 1f6b 55050000 		.4byte	.LASF428
 9283 1f6f 04       		.byte	0x4
 9284 1f70 00       		.byte	0
 9285 1f71 02       		.uleb128 0x2
 9286 1f72 EC150000 		.4byte	.LASF429
 9287 1f76 20       		.byte	0x20
 9288 1f77 37       		.byte	0x37
 9289 1f78 451F0000 		.4byte	0x1f45
 9290 1f7c 02       		.uleb128 0x2
 9291 1f7d F01A0000 		.4byte	.LASF430
 9292 1f81 20       		.byte	0x20
 9293 1f82 3C       		.byte	0x3c
 9294 1f83 871F0000 		.4byte	0x1f87
 9295 1f87 0C       		.uleb128 0xc
 9296 1f88 F01A0000 		.4byte	.LASF430
 9297 1f8c 10       		.byte	0x10
 9298 1f8d 21       		.byte	0x21
 9299 1f8e 9701     		.2byte	0x197
 9300 1f90 C91F0000 		.4byte	0x1fc9
 9301 1f94 0A       		.uleb128 0xa
 9302 1f95 1A190000 		.4byte	.LASF340
 9303 1f99 21       		.byte	0x21
 9304 1f9a 9B01     		.2byte	0x19b
 9305 1f9c 711F0000 		.4byte	0x1f71
 9306 1fa0 00       		.byte	0
 9307 1fa1 0A       		.uleb128 0xa
 9308 1fa2 13200000 		.4byte	.LASF341
 9309 1fa6 21       		.byte	0x21
 9310 1fa7 9F01     		.2byte	0x19f
 9311 1fa9 5E210000 		.4byte	0x215e
 9312 1fad 04       		.byte	0x4
 9313 1fae 0A       		.uleb128 0xa
 9314 1faf 1C0E0000 		.4byte	.LASF431
 9315 1fb3 21       		.byte	0x21
 9316 1fb4 A701     		.2byte	0x1a7
 9317 1fb6 F9000000 		.4byte	0xf9
 9318 1fba 08       		.byte	0x8
 9319 1fbb 09       		.uleb128 0x9
 9320 1fbc 74696D00 		.ascii	"tim\000"
 9321 1fc0 21       		.byte	0x21
 9322 1fc1 AB01     		.2byte	0x1ab
 9323 1fc3 64210000 		.4byte	0x2164
ARM GAS  /var/folders/bw/wdbp2_bd0pn7gl5ybd33xbb80000gn/T//ccZ5cvgj.s 			page 170


 9324 1fc7 0C       		.byte	0xc
 9325 1fc8 00       		.byte	0
 9326 1fc9 02       		.uleb128 0x2
 9327 1fca DE130000 		.4byte	.LASF432
 9328 1fce 20       		.byte	0x20
 9329 1fcf 43       		.byte	0x43
 9330 1fd0 D41F0000 		.4byte	0x1fd4
 9331 1fd4 0B       		.uleb128 0xb
 9332 1fd5 04       		.byte	0x4
 9333 1fd6 DA1F0000 		.4byte	0x1fda
 9334 1fda 0D       		.uleb128 0xd
 9335 1fdb E51F0000 		.4byte	0x1fe5
 9336 1fdf 0E       		.uleb128 0xe
 9337 1fe0 E51F0000 		.4byte	0x1fe5
 9338 1fe4 00       		.byte	0
 9339 1fe5 0B       		.uleb128 0xb
 9340 1fe6 04       		.byte	0x4
 9341 1fe7 7C1F0000 		.4byte	0x1f7c
 9342 1feb 19       		.uleb128 0x19
 9343 1fec 60       		.byte	0x60
 9344 1fed 22       		.byte	0x22
 9345 1fee 9E01     		.2byte	0x19e
 9346 1ff0 F7200000 		.4byte	0x20f7
 9347 1ff4 09       		.uleb128 0x9
 9348 1ff5 43523100 		.ascii	"CR1\000"
 9349 1ff9 22       		.byte	0x22
 9350 1ffa 9F01     		.2byte	0x19f
 9351 1ffc 04010000 		.4byte	0x104
 9352 2000 00       		.byte	0
 9353 2001 09       		.uleb128 0x9
 9354 2002 43523200 		.ascii	"CR2\000"
 9355 2006 22       		.byte	0x22
 9356 2007 A001     		.2byte	0x1a0
 9357 2009 04010000 		.4byte	0x104
 9358 200d 04       		.byte	0x4
 9359 200e 0A       		.uleb128 0xa
 9360 200f FC240000 		.4byte	.LASF433
 9361 2013 22       		.byte	0x22
 9362 2014 A101     		.2byte	0x1a1
 9363 2016 04010000 		.4byte	0x104
 9364 201a 08       		.byte	0x8
 9365 201b 0A       		.uleb128 0xa
 9366 201c 3F0B0000 		.4byte	.LASF434
 9367 2020 22       		.byte	0x22
 9368 2021 A201     		.2byte	0x1a2
 9369 2023 04010000 		.4byte	0x104
 9370 2027 0C       		.byte	0xc
 9371 2028 09       		.uleb128 0x9
 9372 2029 535200   		.ascii	"SR\000"
 9373 202c 22       		.byte	0x22
 9374 202d A301     		.2byte	0x1a3
 9375 202f 04010000 		.4byte	0x104
 9376 2033 10       		.byte	0x10
 9377 2034 09       		.uleb128 0x9
 9378 2035 45475200 		.ascii	"EGR\000"
 9379 2039 22       		.byte	0x22
 9380 203a A401     		.2byte	0x1a4
ARM GAS  /var/folders/bw/wdbp2_bd0pn7gl5ybd33xbb80000gn/T//ccZ5cvgj.s 			page 171


 9381 203c 04010000 		.4byte	0x104
 9382 2040 14       		.byte	0x14
 9383 2041 0A       		.uleb128 0xa
 9384 2042 33290000 		.4byte	.LASF435
 9385 2046 22       		.byte	0x22
 9386 2047 A501     		.2byte	0x1a5
 9387 2049 04010000 		.4byte	0x104
 9388 204d 18       		.byte	0x18
 9389 204e 0A       		.uleb128 0xa
 9390 204f 39290000 		.4byte	.LASF436
 9391 2053 22       		.byte	0x22
 9392 2054 A601     		.2byte	0x1a6
 9393 2056 04010000 		.4byte	0x104
 9394 205a 1C       		.byte	0x1c
 9395 205b 0A       		.uleb128 0xa
 9396 205c 1D080000 		.4byte	.LASF437
 9397 2060 22       		.byte	0x22
 9398 2061 A701     		.2byte	0x1a7
 9399 2063 04010000 		.4byte	0x104
 9400 2067 20       		.byte	0x20
 9401 2068 09       		.uleb128 0x9
 9402 2069 434E5400 		.ascii	"CNT\000"
 9403 206d 22       		.byte	0x22
 9404 206e A801     		.2byte	0x1a8
 9405 2070 04010000 		.4byte	0x104
 9406 2074 24       		.byte	0x24
 9407 2075 09       		.uleb128 0x9
 9408 2076 50534300 		.ascii	"PSC\000"
 9409 207a 22       		.byte	0x22
 9410 207b A901     		.2byte	0x1a9
 9411 207d 04010000 		.4byte	0x104
 9412 2081 28       		.byte	0x28
 9413 2082 09       		.uleb128 0x9
 9414 2083 41525200 		.ascii	"ARR\000"
 9415 2087 22       		.byte	0x22
 9416 2088 AA01     		.2byte	0x1aa
 9417 208a 04010000 		.4byte	0x104
 9418 208e 2C       		.byte	0x2c
 9419 208f 09       		.uleb128 0x9
 9420 2090 52435200 		.ascii	"RCR\000"
 9421 2094 22       		.byte	0x22
 9422 2095 AB01     		.2byte	0x1ab
 9423 2097 04010000 		.4byte	0x104
 9424 209b 30       		.byte	0x30
 9425 209c 09       		.uleb128 0x9
 9426 209d 43435200 		.ascii	"CCR\000"
 9427 20a1 22       		.byte	0x22
 9428 20a2 AC01     		.2byte	0x1ac
 9429 20a4 B60A0000 		.4byte	0xab6
 9430 20a8 34       		.byte	0x34
 9431 20a9 0A       		.uleb128 0xa
 9432 20aa 61020000 		.4byte	.LASF438
 9433 20ae 22       		.byte	0x22
 9434 20af AD01     		.2byte	0x1ad
 9435 20b1 04010000 		.4byte	0x104
 9436 20b5 44       		.byte	0x44
 9437 20b6 09       		.uleb128 0x9
ARM GAS  /var/folders/bw/wdbp2_bd0pn7gl5ybd33xbb80000gn/T//ccZ5cvgj.s 			page 172


 9438 20b7 44435200 		.ascii	"DCR\000"
 9439 20bb 22       		.byte	0x22
 9440 20bc AE01     		.2byte	0x1ae
 9441 20be 04010000 		.4byte	0x104
 9442 20c2 48       		.byte	0x48
 9443 20c3 0A       		.uleb128 0xa
 9444 20c4 92190000 		.4byte	.LASF439
 9445 20c8 22       		.byte	0x22
 9446 20c9 AF01     		.2byte	0x1af
 9447 20cb 04010000 		.4byte	0x104
 9448 20cf 4C       		.byte	0x4c
 9449 20d0 09       		.uleb128 0x9
 9450 20d1 4F5200   		.ascii	"OR\000"
 9451 20d4 22       		.byte	0x22
 9452 20d5 B001     		.2byte	0x1b0
 9453 20d7 04010000 		.4byte	0x104
 9454 20db 50       		.byte	0x50
 9455 20dc 0A       		.uleb128 0xa
 9456 20dd 3F290000 		.4byte	.LASF440
 9457 20e1 22       		.byte	0x22
 9458 20e2 B101     		.2byte	0x1b1
 9459 20e4 04010000 		.4byte	0x104
 9460 20e8 54       		.byte	0x54
 9461 20e9 0A       		.uleb128 0xa
 9462 20ea 280E0000 		.4byte	.LASF441
 9463 20ee 22       		.byte	0x22
 9464 20ef B201     		.2byte	0x1b2
 9465 20f1 A10A0000 		.4byte	0xaa1
 9466 20f5 58       		.byte	0x58
 9467 20f6 00       		.byte	0
 9468 20f7 1A       		.uleb128 0x1a
 9469 20f8 36240000 		.4byte	.LASF442
 9470 20fc 22       		.byte	0x22
 9471 20fd B301     		.2byte	0x1b3
 9472 20ff EB1F0000 		.4byte	0x1feb
 9473 2103 1A       		.uleb128 0x1a
 9474 2104 C3090000 		.4byte	.LASF443
 9475 2108 21       		.byte	0x21
 9476 2109 6D01     		.2byte	0x16d
 9477 210b F9000000 		.4byte	0xf9
 9478 210f 19       		.uleb128 0x19
 9479 2110 10       		.byte	0x10
 9480 2111 21       		.byte	0x21
 9481 2112 7801     		.2byte	0x178
 9482 2114 4D210000 		.4byte	0x214d
 9483 2118 0A       		.uleb128 0xa
 9484 2119 B4280000 		.4byte	.LASF444
 9485 211d 21       		.byte	0x21
 9486 211e 7E01     		.2byte	0x17e
 9487 2120 03210000 		.4byte	0x2103
 9488 2124 00       		.byte	0
 9489 2125 0A       		.uleb128 0xa
 9490 2126 97190000 		.4byte	.LASF445
 9491 212a 21       		.byte	0x21
 9492 212b 8501     		.2byte	0x185
 9493 212d C91F0000 		.4byte	0x1fc9
 9494 2131 04       		.byte	0x4
ARM GAS  /var/folders/bw/wdbp2_bd0pn7gl5ybd33xbb80000gn/T//ccZ5cvgj.s 			page 173


 9495 2132 09       		.uleb128 0x9
 9496 2133 63723200 		.ascii	"cr2\000"
 9497 2137 21       		.byte	0x21
 9498 2138 8B01     		.2byte	0x18b
 9499 213a F9000000 		.4byte	0xf9
 9500 213e 08       		.byte	0x8
 9501 213f 0A       		.uleb128 0xa
 9502 2140 7B0D0000 		.4byte	.LASF446
 9503 2144 21       		.byte	0x21
 9504 2145 9101     		.2byte	0x191
 9505 2147 F9000000 		.4byte	0xf9
 9506 214b 0C       		.byte	0xc
 9507 214c 00       		.byte	0
 9508 214d 1A       		.uleb128 0x1a
 9509 214e 48070000 		.4byte	.LASF447
 9510 2152 21       		.byte	0x21
 9511 2153 9201     		.2byte	0x192
 9512 2155 0F210000 		.4byte	0x210f
 9513 2159 05       		.uleb128 0x5
 9514 215a 4D210000 		.4byte	0x214d
 9515 215e 0B       		.uleb128 0xb
 9516 215f 04       		.byte	0x4
 9517 2160 59210000 		.4byte	0x2159
 9518 2164 0B       		.uleb128 0xb
 9519 2165 04       		.byte	0x4
 9520 2166 F7200000 		.4byte	0x20f7
 9521 216a 15       		.uleb128 0x15
 9522 216b 24280000 		.4byte	.LASF448
 9523 216f 21       		.byte	0x21
 9524 2170 F201     		.2byte	0x1f2
 9525 2172 7C1F0000 		.4byte	0x1f7c
 9526 2176 15       		.uleb128 0x15
 9527 2177 1A200000 		.4byte	.LASF449
 9528 217b 21       		.byte	0x21
 9529 217c 0202     		.2byte	0x202
 9530 217e 7C1F0000 		.4byte	0x1f7c
 9531 2182 15       		.uleb128 0x15
 9532 2183 21200000 		.4byte	.LASF450
 9533 2187 21       		.byte	0x21
 9534 2188 0602     		.2byte	0x206
 9535 218a 7C1F0000 		.4byte	0x1f7c
 9536 218e 21       		.uleb128 0x21
 9537 218f 07       		.byte	0x7
 9538 2190 01       		.byte	0x1
 9539 2191 42000000 		.4byte	0x42
 9540 2195 23       		.byte	0x23
 9541 2196 4C       		.byte	0x4c
 9542 2197 C0210000 		.4byte	0x21c0
 9543 219b 22       		.uleb128 0x22
 9544 219c 20070000 		.4byte	.LASF451
 9545 21a0 00       		.byte	0
 9546 21a1 22       		.uleb128 0x22
 9547 21a2 7D0F0000 		.4byte	.LASF452
 9548 21a6 01       		.byte	0x1
 9549 21a7 22       		.uleb128 0x22
 9550 21a8 8D070000 		.4byte	.LASF453
 9551 21ac 02       		.byte	0x2
ARM GAS  /var/folders/bw/wdbp2_bd0pn7gl5ybd33xbb80000gn/T//ccZ5cvgj.s 			page 174


 9552 21ad 22       		.uleb128 0x22
 9553 21ae 84050000 		.4byte	.LASF454
 9554 21b2 03       		.byte	0x3
 9555 21b3 22       		.uleb128 0x22
 9556 21b4 0E040000 		.4byte	.LASF455
 9557 21b8 04       		.byte	0x4
 9558 21b9 22       		.uleb128 0x22
 9559 21ba 9D150000 		.4byte	.LASF456
 9560 21be 05       		.byte	0x5
 9561 21bf 00       		.byte	0
 9562 21c0 02       		.uleb128 0x2
 9563 21c1 77130000 		.4byte	.LASF457
 9564 21c5 23       		.byte	0x23
 9565 21c6 53       		.byte	0x53
 9566 21c7 8E210000 		.4byte	0x218e
 9567 21cb 1A       		.uleb128 0x1a
 9568 21cc D1050000 		.4byte	.LASF458
 9569 21d0 24       		.byte	0x24
 9570 21d1 6A01     		.2byte	0x16a
 9571 21d3 DE000000 		.4byte	0xde
 9572 21d7 1A       		.uleb128 0x1a
 9573 21d8 D2040000 		.4byte	.LASF459
 9574 21dc 24       		.byte	0x24
 9575 21dd 6F01     		.2byte	0x16f
 9576 21df F9000000 		.4byte	0xf9
 9577 21e3 24       		.uleb128 0x24
 9578 21e4 07       		.byte	0x7
 9579 21e5 01       		.byte	0x1
 9580 21e6 42000000 		.4byte	0x42
 9581 21ea 24       		.byte	0x24
 9582 21eb 7401     		.2byte	0x174
 9583 21ed 04220000 		.4byte	0x2204
 9584 21f1 22       		.uleb128 0x22
 9585 21f2 97050000 		.4byte	.LASF460
 9586 21f6 01       		.byte	0x1
 9587 21f7 22       		.uleb128 0x22
 9588 21f8 A8000000 		.4byte	.LASF461
 9589 21fc 02       		.byte	0x2
 9590 21fd 22       		.uleb128 0x22
 9591 21fe 9F0A0000 		.4byte	.LASF462
 9592 2202 03       		.byte	0x3
 9593 2203 00       		.byte	0
 9594 2204 1A       		.uleb128 0x1a
 9595 2205 97290000 		.4byte	.LASF463
 9596 2209 24       		.byte	0x24
 9597 220a 7801     		.2byte	0x178
 9598 220c E3210000 		.4byte	0x21e3
 9599 2210 24       		.uleb128 0x24
 9600 2211 07       		.byte	0x7
 9601 2212 01       		.byte	0x1
 9602 2213 42000000 		.4byte	0x42
 9603 2217 24       		.byte	0x24
 9604 2218 7D01     		.2byte	0x17d
 9605 221a 31220000 		.4byte	0x2231
 9606 221e 22       		.uleb128 0x22
 9607 221f 8A060000 		.4byte	.LASF464
 9608 2223 01       		.byte	0x1
ARM GAS  /var/folders/bw/wdbp2_bd0pn7gl5ybd33xbb80000gn/T//ccZ5cvgj.s 			page 175


 9609 2224 22       		.uleb128 0x22
 9610 2225 F8280000 		.4byte	.LASF465
 9611 2229 02       		.byte	0x2
 9612 222a 22       		.uleb128 0x22
 9613 222b B60B0000 		.4byte	.LASF466
 9614 222f 03       		.byte	0x3
 9615 2230 00       		.byte	0
 9616 2231 1A       		.uleb128 0x1a
 9617 2232 A0070000 		.4byte	.LASF467
 9618 2236 24       		.byte	0x24
 9619 2237 8101     		.2byte	0x181
 9620 2239 10220000 		.4byte	0x2210
 9621 223d 19       		.uleb128 0x19
 9622 223e 0C       		.byte	0xc
 9623 223f 24       		.byte	0x24
 9624 2240 8601     		.2byte	0x186
 9625 2242 6E220000 		.4byte	0x226e
 9626 2246 0A       		.uleb128 0xa
 9627 2247 55170000 		.4byte	.LASF468
 9628 224b 24       		.byte	0x24
 9629 224c 8801     		.2byte	0x188
 9630 224e 04220000 		.4byte	0x2204
 9631 2252 00       		.byte	0
 9632 2253 0A       		.uleb128 0xa
 9633 2254 84040000 		.4byte	.LASF469
 9634 2258 24       		.byte	0x24
 9635 2259 8901     		.2byte	0x189
 9636 225b F9000000 		.4byte	0xf9
 9637 225f 04       		.byte	0x4
 9638 2260 0A       		.uleb128 0xa
 9639 2261 292A0000 		.4byte	.LASF470
 9640 2265 24       		.byte	0x24
 9641 2266 8C01     		.2byte	0x18c
 9642 2268 31220000 		.4byte	0x2231
 9643 226c 08       		.byte	0x8
 9644 226d 00       		.byte	0
 9645 226e 1A       		.uleb128 0x1a
 9646 226f 77020000 		.4byte	.LASF471
 9647 2273 24       		.byte	0x24
 9648 2274 8E01     		.2byte	0x18e
 9649 2276 3D220000 		.4byte	0x223d
 9650 227a 05       		.uleb128 0x5
 9651 227b 6E220000 		.4byte	0x226e
 9652 227f 1A       		.uleb128 0x1a
 9653 2280 7A050000 		.4byte	.LASF472
 9654 2284 24       		.byte	0x24
 9655 2285 9301     		.2byte	0x193
 9656 2287 8B220000 		.4byte	0x228b
 9657 228b 0C       		.uleb128 0xc
 9658 228c 7A050000 		.4byte	.LASF472
 9659 2290 3C       		.byte	0x3c
 9660 2291 24       		.byte	0x24
 9661 2292 9801     		.2byte	0x198
 9662 2294 28230000 		.4byte	0x2328
 9663 2298 0A       		.uleb128 0xa
 9664 2299 1A190000 		.4byte	.LASF340
 9665 229d 24       		.byte	0x24
ARM GAS  /var/folders/bw/wdbp2_bd0pn7gl5ybd33xbb80000gn/T//ccZ5cvgj.s 			page 176


 9666 229e 9C01     		.2byte	0x19c
 9667 22a0 C0210000 		.4byte	0x21c0
 9668 22a4 00       		.byte	0
 9669 22a5 0A       		.uleb128 0xa
 9670 22a6 13200000 		.4byte	.LASF341
 9671 22aa 24       		.byte	0x24
 9672 22ab A001     		.2byte	0x1a0
 9673 22ad 28230000 		.4byte	0x2328
 9674 22b1 04       		.byte	0x4
 9675 22b2 0A       		.uleb128 0xa
 9676 22b3 E3010000 		.4byte	.LASF473
 9677 22b7 24       		.byte	0x24
 9678 22b8 A401     		.2byte	0x1a4
 9679 22ba D7210000 		.4byte	0x21d7
 9680 22be 08       		.byte	0x8
 9681 22bf 0A       		.uleb128 0xa
 9682 22c0 E70D0000 		.4byte	.LASF346
 9683 22c4 24       		.byte	0x24
 9684 22c5 A901     		.2byte	0x1a9
 9685 22c7 5F120000 		.4byte	0x125f
 9686 22cb 0C       		.byte	0xc
 9687 22cc 0A       		.uleb128 0xa
 9688 22cd D3070000 		.4byte	.LASF345
 9689 22d1 24       		.byte	0x24
 9690 22d2 B201     		.2byte	0x1b2
 9691 22d4 E8020000 		.4byte	0x2e8
 9692 22d8 20       		.byte	0x20
 9693 22d9 0A       		.uleb128 0xa
 9694 22da 860F0000 		.4byte	.LASF474
 9695 22de 24       		.byte	0x24
 9696 22df B601     		.2byte	0x1b6
 9697 22e1 CB210000 		.4byte	0x21cb
 9698 22e5 24       		.byte	0x24
 9699 22e6 0A       		.uleb128 0xa
 9700 22e7 57090000 		.4byte	.LASF475
 9701 22eb 24       		.byte	0x24
 9702 22ec BA01     		.2byte	0x1ba
 9703 22ee F9000000 		.4byte	0xf9
 9704 22f2 28       		.byte	0x28
 9705 22f3 0A       		.uleb128 0xa
 9706 22f4 B1090000 		.4byte	.LASF476
 9707 22f8 24       		.byte	0x24
 9708 22f9 BE01     		.2byte	0x1be
 9709 22fb F9000000 		.4byte	0xf9
 9710 22ff 2C       		.byte	0x2c
 9711 2300 0A       		.uleb128 0xa
 9712 2301 5A010000 		.4byte	.LASF477
 9713 2305 24       		.byte	0x24
 9714 2306 C201     		.2byte	0x1c2
 9715 2308 5E1A0000 		.4byte	0x1a5e
 9716 230c 30       		.byte	0x30
 9717 230d 0A       		.uleb128 0xa
 9718 230e 8A020000 		.4byte	.LASF478
 9719 2312 24       		.byte	0x24
 9720 2313 C601     		.2byte	0x1c6
 9721 2315 5E1A0000 		.4byte	0x1a5e
 9722 2319 34       		.byte	0x34
ARM GAS  /var/folders/bw/wdbp2_bd0pn7gl5ybd33xbb80000gn/T//ccZ5cvgj.s 			page 177


 9723 231a 09       		.uleb128 0x9
 9724 231b 69326300 		.ascii	"i2c\000"
 9725 231f 24       		.byte	0x24
 9726 2320 CA01     		.2byte	0x1ca
 9727 2322 2E230000 		.4byte	0x232e
 9728 2326 38       		.byte	0x38
 9729 2327 00       		.byte	0
 9730 2328 0B       		.uleb128 0xb
 9731 2329 04       		.byte	0x4
 9732 232a 7A220000 		.4byte	0x227a
 9733 232e 0B       		.uleb128 0xb
 9734 232f 04       		.byte	0x4
 9735 2330 460B0000 		.4byte	0xb46
 9736 2334 15       		.uleb128 0x15
 9737 2335 FC130000 		.4byte	.LASF479
 9738 2339 24       		.byte	0x24
 9739 233a E001     		.2byte	0x1e0
 9740 233c 7F220000 		.4byte	0x227f
 9741 2340 21       		.uleb128 0x21
 9742 2341 07       		.byte	0x7
 9743 2342 01       		.byte	0x1
 9744 2343 42000000 		.4byte	0x42
 9745 2347 25       		.byte	0x25
 9746 2348 39       		.byte	0x39
 9747 2349 6C230000 		.4byte	0x236c
 9748 234d 22       		.uleb128 0x22
 9749 234e 56120000 		.4byte	.LASF480
 9750 2352 00       		.byte	0
 9751 2353 22       		.uleb128 0x22
 9752 2354 CD0D0000 		.4byte	.LASF481
 9753 2358 01       		.byte	0x1
 9754 2359 22       		.uleb128 0x22
 9755 235a 60010000 		.4byte	.LASF482
 9756 235e 02       		.byte	0x2
 9757 235f 22       		.uleb128 0x22
 9758 2360 991C0000 		.4byte	.LASF483
 9759 2364 03       		.byte	0x3
 9760 2365 22       		.uleb128 0x22
 9761 2366 2D230000 		.4byte	.LASF484
 9762 236a 04       		.byte	0x4
 9763 236b 00       		.byte	0
 9764 236c 02       		.uleb128 0x2
 9765 236d 70260000 		.4byte	.LASF485
 9766 2371 25       		.byte	0x25
 9767 2372 3F       		.byte	0x3f
 9768 2373 40230000 		.4byte	0x2340
 9769 2377 02       		.uleb128 0x2
 9770 2378 1F2A0000 		.4byte	.LASF486
 9771 237c 26       		.byte	0x26
 9772 237d E2       		.byte	0xe2
 9773 237e 82230000 		.4byte	0x2382
 9774 2382 0C       		.uleb128 0xc
 9775 2383 1F2A0000 		.4byte	.LASF486
 9776 2387 20       		.byte	0x20
 9777 2388 26       		.byte	0x26
 9778 2389 1B01     		.2byte	0x11b
 9779 238b F8230000 		.4byte	0x23f8
ARM GAS  /var/folders/bw/wdbp2_bd0pn7gl5ybd33xbb80000gn/T//ccZ5cvgj.s 			page 178


 9780 238f 0A       		.uleb128 0xa
 9781 2390 1A190000 		.4byte	.LASF340
 9782 2394 26       		.byte	0x26
 9783 2395 1F01     		.2byte	0x11f
 9784 2397 6C230000 		.4byte	0x236c
 9785 239b 00       		.byte	0
 9786 239c 0A       		.uleb128 0xa
 9787 239d 13200000 		.4byte	.LASF341
 9788 23a1 26       		.byte	0x26
 9789 23a2 2301     		.2byte	0x123
 9790 23a4 90240000 		.4byte	0x2490
 9791 23a8 04       		.byte	0x4
 9792 23a9 09       		.uleb128 0x9
 9793 23aa 73706900 		.ascii	"spi\000"
 9794 23ae 26       		.byte	0x26
 9795 23af 2801     		.2byte	0x128
 9796 23b1 96240000 		.4byte	0x2496
 9797 23b5 08       		.byte	0x8
 9798 23b6 09       		.uleb128 0x9
 9799 23b7 63666700 		.ascii	"cfg\000"
 9800 23bb 26       		.byte	0x26
 9801 23bc 2C01     		.2byte	0x12c
 9802 23be DE000000 		.4byte	0xde
 9803 23c2 0C       		.byte	0xc
 9804 23c3 0A       		.uleb128 0xa
 9805 23c4 5A010000 		.4byte	.LASF477
 9806 23c8 26       		.byte	0x26
 9807 23c9 3001     		.2byte	0x130
 9808 23cb 5E1A0000 		.4byte	0x1a5e
 9809 23cf 10       		.byte	0x10
 9810 23d0 0A       		.uleb128 0xa
 9811 23d1 8A020000 		.4byte	.LASF478
 9812 23d5 26       		.byte	0x26
 9813 23d6 3401     		.2byte	0x134
 9814 23d8 5E1A0000 		.4byte	0x1a5e
 9815 23dc 14       		.byte	0x14
 9816 23dd 0A       		.uleb128 0xa
 9817 23de 57090000 		.4byte	.LASF475
 9818 23e2 26       		.byte	0x26
 9819 23e3 3801     		.2byte	0x138
 9820 23e5 F9000000 		.4byte	0xf9
 9821 23e9 18       		.byte	0x18
 9822 23ea 0A       		.uleb128 0xa
 9823 23eb B1090000 		.4byte	.LASF476
 9824 23ef 26       		.byte	0x26
 9825 23f0 3C01     		.2byte	0x13c
 9826 23f2 F9000000 		.4byte	0xf9
 9827 23f6 1C       		.byte	0x1c
 9828 23f7 00       		.byte	0
 9829 23f8 02       		.uleb128 0x2
 9830 23f9 9D090000 		.4byte	.LASF487
 9831 23fd 26       		.byte	0x26
 9832 23fe EB       		.byte	0xeb
 9833 23ff 03240000 		.4byte	0x2403
 9834 2403 0B       		.uleb128 0xb
 9835 2404 04       		.byte	0x4
 9836 2405 09240000 		.4byte	0x2409
ARM GAS  /var/folders/bw/wdbp2_bd0pn7gl5ybd33xbb80000gn/T//ccZ5cvgj.s 			page 179


 9837 2409 0D       		.uleb128 0xd
 9838 240a 1E240000 		.4byte	0x241e
 9839 240e 0E       		.uleb128 0xe
 9840 240f 1E240000 		.4byte	0x241e
 9841 2413 0E       		.uleb128 0xe
 9842 2414 19010000 		.4byte	0x119
 9843 2418 0E       		.uleb128 0xe
 9844 2419 19010000 		.4byte	0x119
 9845 241d 00       		.byte	0
 9846 241e 0B       		.uleb128 0xb
 9847 241f 04       		.byte	0x4
 9848 2420 77230000 		.4byte	0x2377
 9849 2424 17       		.uleb128 0x17
 9850 2425 14       		.byte	0x14
 9851 2426 26       		.byte	0x26
 9852 2427 F1       		.byte	0xf1
 9853 2428 78240000 		.4byte	0x2478
 9854 242c 08       		.uleb128 0x8
 9855 242d 05020000 		.4byte	.LASF488
 9856 2431 26       		.byte	0x26
 9857 2432 F6       		.byte	0xf6
 9858 2433 78240000 		.4byte	0x2478
 9859 2437 00       		.byte	0
 9860 2438 08       		.uleb128 0x8
 9861 2439 D9010000 		.4byte	.LASF489
 9862 243d 26       		.byte	0x26
 9863 243e FB       		.byte	0xfb
 9864 243f D0030000 		.4byte	0x3d0
 9865 2443 04       		.byte	0x4
 9866 2444 08       		.uleb128 0x8
 9867 2445 ED0D0000 		.4byte	.LASF490
 9868 2449 26       		.byte	0x26
 9869 244a FF       		.byte	0xff
 9870 244b 19010000 		.4byte	0x119
 9871 244f 08       		.byte	0x8
 9872 2450 0A       		.uleb128 0xa
 9873 2451 400A0000 		.4byte	.LASF353
 9874 2455 26       		.byte	0x26
 9875 2456 0301     		.2byte	0x103
 9876 2458 F8230000 		.4byte	0x23f8
 9877 245c 0C       		.byte	0xc
 9878 245d 0A       		.uleb128 0xa
 9879 245e F21C0000 		.4byte	.LASF491
 9880 2462 26       		.byte	0x26
 9881 2463 0F01     		.2byte	0x10f
 9882 2465 D3000000 		.4byte	0xd3
 9883 2469 10       		.byte	0x10
 9884 246a 0A       		.uleb128 0xa
 9885 246b 7E070000 		.4byte	.LASF492
 9886 246f 26       		.byte	0x26
 9887 2470 1501     		.2byte	0x115
 9888 2472 D3000000 		.4byte	0xd3
 9889 2476 12       		.byte	0x12
 9890 2477 00       		.byte	0
 9891 2478 0B       		.uleb128 0xb
 9892 2479 04       		.byte	0x4
 9893 247a 7E240000 		.4byte	0x247e
ARM GAS  /var/folders/bw/wdbp2_bd0pn7gl5ybd33xbb80000gn/T//ccZ5cvgj.s 			page 180


 9894 247e 25       		.uleb128 0x25
 9895 247f 1A       		.uleb128 0x1a
 9896 2480 342A0000 		.4byte	.LASF493
 9897 2484 26       		.byte	0x26
 9898 2485 1601     		.2byte	0x116
 9899 2487 24240000 		.4byte	0x2424
 9900 248b 05       		.uleb128 0x5
 9901 248c 7F240000 		.4byte	0x247f
 9902 2490 0B       		.uleb128 0xb
 9903 2491 04       		.byte	0x4
 9904 2492 8B240000 		.4byte	0x248b
 9905 2496 0B       		.uleb128 0xb
 9906 2497 04       		.byte	0x4
 9907 2498 F90C0000 		.4byte	0xcf9
 9908 249c 15       		.uleb128 0x15
 9909 249d 892A0000 		.4byte	.LASF494
 9910 24a1 26       		.byte	0x26
 9911 24a2 4801     		.2byte	0x148
 9912 24a4 77230000 		.4byte	0x2377
 9913 24a8 21       		.uleb128 0x21
 9914 24a9 07       		.byte	0x7
 9915 24aa 01       		.byte	0x1
 9916 24ab 42000000 		.4byte	0x42
 9917 24af 27       		.byte	0x27
 9918 24b0 4A       		.byte	0x4a
 9919 24b1 C8240000 		.4byte	0x24c8
 9920 24b5 22       		.uleb128 0x22
 9921 24b6 28080000 		.4byte	.LASF495
 9922 24ba 00       		.byte	0
 9923 24bb 22       		.uleb128 0x22
 9924 24bc D60D0000 		.4byte	.LASF496
 9925 24c0 01       		.byte	0x1
 9926 24c1 22       		.uleb128 0x22
 9927 24c2 88120000 		.4byte	.LASF497
 9928 24c6 02       		.byte	0x2
 9929 24c7 00       		.byte	0
 9930 24c8 02       		.uleb128 0x2
 9931 24c9 2F040000 		.4byte	.LASF498
 9932 24cd 27       		.byte	0x27
 9933 24ce 4E       		.byte	0x4e
 9934 24cf A8240000 		.4byte	0x24a8
 9935 24d3 02       		.uleb128 0x2
 9936 24d4 E20C0000 		.4byte	.LASF499
 9937 24d8 27       		.byte	0x27
 9938 24d9 53       		.byte	0x53
 9939 24da DE240000 		.4byte	0x24de
 9940 24de 0C       		.uleb128 0xc
 9941 24df E20C0000 		.4byte	.LASF499
 9942 24e3 1C       		.byte	0x1c
 9943 24e4 28       		.byte	0x28
 9944 24e5 7901     		.2byte	0x179
 9945 24e7 47250000 		.4byte	0x2547
 9946 24eb 0A       		.uleb128 0xa
 9947 24ec 1A190000 		.4byte	.LASF340
 9948 24f0 28       		.byte	0x28
 9949 24f1 7D01     		.2byte	0x17d
 9950 24f3 C8240000 		.4byte	0x24c8
ARM GAS  /var/folders/bw/wdbp2_bd0pn7gl5ybd33xbb80000gn/T//ccZ5cvgj.s 			page 181


 9951 24f7 00       		.byte	0
 9952 24f8 0A       		.uleb128 0xa
 9953 24f9 13200000 		.4byte	.LASF341
 9954 24fd 28       		.byte	0x28
 9955 24fe 8101     		.2byte	0x181
 9956 2500 42260000 		.4byte	0x2642
 9957 2504 04       		.byte	0x4
 9958 2505 0A       		.uleb128 0xa
 9959 2506 88150000 		.4byte	.LASF500
 9960 250a 28       		.byte	0x28
 9961 250b 8501     		.2byte	0x185
 9962 250d 8D250000 		.4byte	0x258d
 9963 2511 08       		.byte	0x8
 9964 2512 0A       		.uleb128 0xa
 9965 2513 991D0000 		.4byte	.LASF501
 9966 2517 28       		.byte	0x28
 9967 2518 8901     		.2byte	0x189
 9968 251a 81250000 		.4byte	0x2581
 9969 251e 0C       		.byte	0xc
 9970 251f 0A       		.uleb128 0xa
 9971 2520 DB250000 		.4byte	.LASF421
 9972 2524 28       		.byte	0x28
 9973 2525 8D01     		.2byte	0x18d
 9974 2527 75250000 		.4byte	0x2575
 9975 252b 10       		.byte	0x10
 9976 252c 0A       		.uleb128 0xa
 9977 252d 1C0E0000 		.4byte	.LASF431
 9978 2531 28       		.byte	0x28
 9979 2532 9501     		.2byte	0x195
 9980 2534 F9000000 		.4byte	0xf9
 9981 2538 14       		.byte	0x14
 9982 2539 09       		.uleb128 0x9
 9983 253a 74696D00 		.ascii	"tim\000"
 9984 253e 28       		.byte	0x28
 9985 253f 9901     		.2byte	0x199
 9986 2541 64210000 		.4byte	0x2164
 9987 2545 18       		.byte	0x18
 9988 2546 00       		.byte	0
 9989 2547 02       		.uleb128 0x2
 9990 2548 2F130000 		.4byte	.LASF502
 9991 254c 27       		.byte	0x27
 9992 254d 5A       		.byte	0x5a
 9993 254e 52250000 		.4byte	0x2552
 9994 2552 0B       		.uleb128 0xb
 9995 2553 04       		.byte	0x4
 9996 2554 58250000 		.4byte	0x2558
 9997 2558 0D       		.uleb128 0xd
 9998 2559 63250000 		.4byte	0x2563
 9999 255d 0E       		.uleb128 0xe
 10000 255e 63250000 		.4byte	0x2563
 10001 2562 00       		.byte	0
 10002 2563 0B       		.uleb128 0xb
 10003 2564 04       		.byte	0x4
 10004 2565 D3240000 		.4byte	0x24d3
 10005 2569 1A       		.uleb128 0x1a
 10006 256a C5170000 		.4byte	.LASF503
 10007 256e 28       		.byte	0x28
ARM GAS  /var/folders/bw/wdbp2_bd0pn7gl5ybd33xbb80000gn/T//ccZ5cvgj.s 			page 182


 10008 256f 2501     		.2byte	0x125
 10009 2571 F9000000 		.4byte	0xf9
 10010 2575 1A       		.uleb128 0x1a
 10011 2576 A21A0000 		.4byte	.LASF504
 10012 257a 28       		.byte	0x28
 10013 257b 2A01     		.2byte	0x12a
 10014 257d C3000000 		.4byte	0xc3
 10015 2581 1A       		.uleb128 0x1a
 10016 2582 84030000 		.4byte	.LASF505
 10017 2586 28       		.byte	0x28
 10018 2587 2F01     		.2byte	0x12f
 10019 2589 F9000000 		.4byte	0xf9
 10020 258d 1A       		.uleb128 0x1a
 10021 258e E40E0000 		.4byte	.LASF506
 10022 2592 28       		.byte	0x28
 10023 2593 3401     		.2byte	0x134
 10024 2595 F9000000 		.4byte	0xf9
 10025 2599 19       		.uleb128 0x19
 10026 259a 08       		.byte	0x8
 10027 259b 28       		.byte	0x28
 10028 259c 3901     		.2byte	0x139
 10029 259e BD250000 		.4byte	0x25bd
 10030 25a2 0A       		.uleb128 0xa
 10031 25a3 6B090000 		.4byte	.LASF419
 10032 25a7 28       		.byte	0x28
 10033 25a8 3D01     		.2byte	0x13d
 10034 25aa 69250000 		.4byte	0x2569
 10035 25ae 00       		.byte	0
 10036 25af 0A       		.uleb128 0xa
 10037 25b0 97190000 		.4byte	.LASF445
 10038 25b4 28       		.byte	0x28
 10039 25b5 4301     		.2byte	0x143
 10040 25b7 47250000 		.4byte	0x2547
 10041 25bb 04       		.byte	0x4
 10042 25bc 00       		.byte	0
 10043 25bd 1A       		.uleb128 0x1a
 10044 25be D30E0000 		.4byte	.LASF507
 10045 25c2 28       		.byte	0x28
 10046 25c3 4501     		.2byte	0x145
 10047 25c5 99250000 		.4byte	0x2599
 10048 25c9 19       		.uleb128 0x19
 10049 25ca 34       		.byte	0x34
 10050 25cb 28       		.byte	0x28
 10051 25cc 4A01     		.2byte	0x14a
 10052 25ce 21260000 		.4byte	0x2621
 10053 25d2 0A       		.uleb128 0xa
 10054 25d3 B4280000 		.4byte	.LASF444
 10055 25d7 28       		.byte	0x28
 10056 25d8 5001     		.2byte	0x150
 10057 25da F9000000 		.4byte	0xf9
 10058 25de 00       		.byte	0
 10059 25df 0A       		.uleb128 0xa
 10060 25e0 88150000 		.4byte	.LASF500
 10061 25e4 28       		.byte	0x28
 10062 25e5 5601     		.2byte	0x156
 10063 25e7 8D250000 		.4byte	0x258d
 10064 25eb 04       		.byte	0x4
ARM GAS  /var/folders/bw/wdbp2_bd0pn7gl5ybd33xbb80000gn/T//ccZ5cvgj.s 			page 183


 10065 25ec 0A       		.uleb128 0xa
 10066 25ed 97190000 		.4byte	.LASF445
 10067 25f1 28       		.byte	0x28
 10068 25f2 5C01     		.2byte	0x15c
 10069 25f4 47250000 		.4byte	0x2547
 10070 25f8 08       		.byte	0x8
 10071 25f9 0A       		.uleb128 0xa
 10072 25fa DB250000 		.4byte	.LASF421
 10073 25fe 28       		.byte	0x28
 10074 25ff 6001     		.2byte	0x160
 10075 2601 21260000 		.4byte	0x2621
 10076 2605 0C       		.byte	0xc
 10077 2606 09       		.uleb128 0x9
 10078 2607 63723200 		.ascii	"cr2\000"
 10079 260b 28       		.byte	0x28
 10080 260c 6601     		.2byte	0x166
 10081 260e F9000000 		.4byte	0xf9
 10082 2612 2C       		.byte	0x2c
 10083 2613 0A       		.uleb128 0xa
 10084 2614 7B0D0000 		.4byte	.LASF446
 10085 2618 28       		.byte	0x28
 10086 2619 7301     		.2byte	0x173
 10087 261b F9000000 		.4byte	0xf9
 10088 261f 30       		.byte	0x30
 10089 2620 00       		.byte	0
 10090 2621 13       		.uleb128 0x13
 10091 2622 BD250000 		.4byte	0x25bd
 10092 2626 31260000 		.4byte	0x2631
 10093 262a 14       		.uleb128 0x14
 10094 262b B1000000 		.4byte	0xb1
 10095 262f 03       		.byte	0x3
 10096 2630 00       		.byte	0
 10097 2631 1A       		.uleb128 0x1a
 10098 2632 F30C0000 		.4byte	.LASF508
 10099 2636 28       		.byte	0x28
 10100 2637 7401     		.2byte	0x174
 10101 2639 C9250000 		.4byte	0x25c9
 10102 263d 05       		.uleb128 0x5
 10103 263e 31260000 		.4byte	0x2631
 10104 2642 0B       		.uleb128 0xb
 10105 2643 04       		.byte	0x4
 10106 2644 3D260000 		.4byte	0x263d
 10107 2648 15       		.uleb128 0x15
 10108 2649 2D140000 		.4byte	.LASF509
 10109 264d 28       		.byte	0x28
 10110 264e BC01     		.2byte	0x1bc
 10111 2650 D3240000 		.4byte	0x24d3
 10112 2654 15       		.uleb128 0x15
 10113 2655 33140000 		.4byte	.LASF510
 10114 2659 28       		.byte	0x28
 10115 265a C001     		.2byte	0x1c0
 10116 265c D3240000 		.4byte	0x24d3
 10117 2660 15       		.uleb128 0x15
 10118 2661 39140000 		.4byte	.LASF511
 10119 2665 28       		.byte	0x28
 10120 2666 C401     		.2byte	0x1c4
 10121 2668 D3240000 		.4byte	0x24d3
ARM GAS  /var/folders/bw/wdbp2_bd0pn7gl5ybd33xbb80000gn/T//ccZ5cvgj.s 			page 184


 10122 266c 15       		.uleb128 0x15
 10123 266d 3F140000 		.4byte	.LASF512
 10124 2671 28       		.byte	0x28
 10125 2672 C801     		.2byte	0x1c8
 10126 2674 D3240000 		.4byte	0x24d3
 10127 2678 21       		.uleb128 0x21
 10128 2679 07       		.byte	0x7
 10129 267a 01       		.byte	0x1
 10130 267b 42000000 		.4byte	0x42
 10131 267f 29       		.byte	0x29
 10132 2680 55       		.byte	0x55
 10133 2681 98260000 		.4byte	0x2698
 10134 2685 22       		.uleb128 0x22
 10135 2686 52070000 		.4byte	.LASF513
 10136 268a 00       		.byte	0
 10137 268b 22       		.uleb128 0x22
 10138 268c 4F0E0000 		.4byte	.LASF514
 10139 2690 01       		.byte	0x1
 10140 2691 22       		.uleb128 0x22
 10141 2692 99100000 		.4byte	.LASF515
 10142 2696 02       		.byte	0x2
 10143 2697 00       		.byte	0
 10144 2698 02       		.uleb128 0x2
 10145 2699 DB1B0000 		.4byte	.LASF516
 10146 269d 29       		.byte	0x29
 10147 269e 59       		.byte	0x59
 10148 269f 78260000 		.4byte	0x2678
 10149 26a3 02       		.uleb128 0x2
 10150 26a4 06260000 		.4byte	.LASF517
 10151 26a8 29       		.byte	0x29
 10152 26a9 5E       		.byte	0x5e
 10153 26aa AE260000 		.4byte	0x26ae
 10154 26ae 07       		.uleb128 0x7
 10155 26af 06260000 		.4byte	.LASF517
 10156 26b3 78       		.byte	0x78
 10157 26b4 29       		.byte	0x29
 10158 26b5 78       		.byte	0x78
 10159 26b6 19270000 		.4byte	0x2719
 10160 26ba 18       		.uleb128 0x18
 10161 26bb 766D7400 		.ascii	"vmt\000"
 10162 26bf 29       		.byte	0x29
 10163 26c0 7A       		.byte	0x7a
 10164 26c1 97270000 		.4byte	0x2797
 10165 26c5 00       		.byte	0
 10166 26c6 08       		.uleb128 0x8
 10167 26c7 47000000 		.4byte	.LASF518
 10168 26cb 29       		.byte	0x29
 10169 26cc 7B       		.byte	0x7b
 10170 26cd E3120000 		.4byte	0x12e3
 10171 26d1 04       		.byte	0x4
 10172 26d2 08       		.uleb128 0x8
 10173 26d3 1A190000 		.4byte	.LASF340
 10174 26d7 29       		.byte	0x29
 10175 26d8 7B       		.byte	0x7b
 10176 26d9 98260000 		.4byte	0x2698
 10177 26dd 08       		.byte	0x8
 10178 26de 08       		.uleb128 0x8
ARM GAS  /var/folders/bw/wdbp2_bd0pn7gl5ybd33xbb80000gn/T//ccZ5cvgj.s 			page 185


 10179 26df B01B0000 		.4byte	.LASF519
 10180 26e3 29       		.byte	0x29
 10181 26e4 7B       		.byte	0x7b
 10182 26e5 8E130000 		.4byte	0x138e
 10183 26e9 0C       		.byte	0xc
 10184 26ea 08       		.uleb128 0x8
 10185 26eb 52140000 		.4byte	.LASF520
 10186 26ef 29       		.byte	0x29
 10187 26f0 7B       		.byte	0x7b
 10188 26f1 99130000 		.4byte	0x1399
 10189 26f5 30       		.byte	0x30
 10190 26f6 18       		.uleb128 0x18
 10191 26f7 696200   		.ascii	"ib\000"
 10192 26fa 29       		.byte	0x29
 10193 26fb 7B       		.byte	0x7b
 10194 26fc 9D270000 		.4byte	0x279d
 10195 2700 54       		.byte	0x54
 10196 2701 18       		.uleb128 0x18
 10197 2702 6F6200   		.ascii	"ob\000"
 10198 2705 29       		.byte	0x29
 10199 2706 7B       		.byte	0x7b
 10200 2707 9D270000 		.4byte	0x279d
 10201 270b 64       		.byte	0x64
 10202 270c 08       		.uleb128 0x8
 10203 270d F71D0000 		.4byte	.LASF521
 10204 2711 29       		.byte	0x29
 10205 2712 7B       		.byte	0x7b
 10206 2713 AD270000 		.4byte	0x27ad
 10207 2717 74       		.byte	0x74
 10208 2718 00       		.byte	0
 10209 2719 1F       		.uleb128 0x1f
 10210 271a 53443300 		.ascii	"SD3\000"
 10211 271e 2A       		.byte	0x2a
 10212 271f 1501     		.2byte	0x115
 10213 2721 A3260000 		.4byte	0x26a3
 10214 2725 07       		.uleb128 0x7
 10215 2726 22100000 		.4byte	.LASF522
 10216 272a 20       		.byte	0x20
 10217 272b 29       		.byte	0x29
 10218 272c 6D       		.byte	0x6d
 10219 272d 92270000 		.4byte	0x2792
 10220 2731 08       		.uleb128 0x8
 10221 2732 9F1B0000 		.4byte	.LASF523
 10222 2736 29       		.byte	0x29
 10223 2737 6E       		.byte	0x6e
 10224 2738 C3130000 		.4byte	0x13c3
 10225 273c 00       		.byte	0
 10226 273d 08       		.uleb128 0x8
 10227 273e 92050000 		.4byte	.LASF524
 10228 2742 29       		.byte	0x29
 10229 2743 6E       		.byte	0x6e
 10230 2744 E2130000 		.4byte	0x13e2
 10231 2748 04       		.byte	0x4
 10232 2749 18       		.uleb128 0x18
 10233 274a 70757400 		.ascii	"put\000"
 10234 274e 29       		.byte	0x29
 10235 274f 6E       		.byte	0x6e
ARM GAS  /var/folders/bw/wdbp2_bd0pn7gl5ybd33xbb80000gn/T//ccZ5cvgj.s 			page 186


 10236 2750 FC130000 		.4byte	0x13fc
 10237 2754 08       		.byte	0x8
 10238 2755 18       		.uleb128 0x18
 10239 2756 67657400 		.ascii	"get\000"
 10240 275a 29       		.byte	0x29
 10241 275b 6E       		.byte	0x6e
 10242 275c 11140000 		.4byte	0x1411
 10243 2760 0C       		.byte	0xc
 10244 2761 08       		.uleb128 0x8
 10245 2762 9F160000 		.4byte	.LASF525
 10246 2766 29       		.byte	0x29
 10247 2767 6E       		.byte	0x6e
 10248 2768 B2140000 		.4byte	0x14b2
 10249 276c 10       		.byte	0x10
 10250 276d 08       		.uleb128 0x8
 10251 276e 7B1B0000 		.4byte	.LASF526
 10252 2772 29       		.byte	0x29
 10253 2773 6E       		.byte	0x6e
 10254 2774 CC140000 		.4byte	0x14cc
 10255 2778 14       		.byte	0x14
 10256 2779 08       		.uleb128 0x8
 10257 277a C3260000 		.4byte	.LASF527
 10258 277e 29       		.byte	0x29
 10259 277f 6E       		.byte	0x6e
 10260 2780 F0140000 		.4byte	0x14f0
 10261 2784 18       		.byte	0x18
 10262 2785 08       		.uleb128 0x8
 10263 2786 D5150000 		.4byte	.LASF528
 10264 278a 29       		.byte	0x29
 10265 278b 6E       		.byte	0x6e
 10266 278c 14150000 		.4byte	0x1514
 10267 2790 1C       		.byte	0x1c
 10268 2791 00       		.byte	0
 10269 2792 05       		.uleb128 0x5
 10270 2793 25270000 		.4byte	0x2725
 10271 2797 0B       		.uleb128 0xb
 10272 2798 04       		.byte	0x4
 10273 2799 92270000 		.4byte	0x2792
 10274 279d 13       		.uleb128 0x13
 10275 279e C3000000 		.4byte	0xc3
 10276 27a2 AD270000 		.4byte	0x27ad
 10277 27a6 14       		.uleb128 0x14
 10278 27a7 B1000000 		.4byte	0xb1
 10279 27ab 0F       		.byte	0xf
 10280 27ac 00       		.byte	0
 10281 27ad 0B       		.uleb128 0xb
 10282 27ae 04       		.byte	0x4
 10283 27af 680D0000 		.4byte	0xd68
 10284 27b3 21       		.uleb128 0x21
 10285 27b4 07       		.byte	0x7
 10286 27b5 01       		.byte	0x1
 10287 27b6 42000000 		.4byte	0x42
 10288 27ba 2B       		.byte	0x2b
 10289 27bb 6C       		.byte	0x6c
 10290 27bc D3270000 		.4byte	0x27d3
 10291 27c0 22       		.uleb128 0x22
 10292 27c1 DE030000 		.4byte	.LASF529
ARM GAS  /var/folders/bw/wdbp2_bd0pn7gl5ybd33xbb80000gn/T//ccZ5cvgj.s 			page 187


 10293 27c5 00       		.byte	0
 10294 27c6 22       		.uleb128 0x22
 10295 27c7 E7170000 		.4byte	.LASF530
 10296 27cb 01       		.byte	0x1
 10297 27cc 22       		.uleb128 0x22
 10298 27cd 4D150000 		.4byte	.LASF531
 10299 27d1 02       		.byte	0x2
 10300 27d2 00       		.byte	0
 10301 27d3 02       		.uleb128 0x2
 10302 27d4 F31E0000 		.4byte	.LASF532
 10303 27d8 2B       		.byte	0x2b
 10304 27d9 70       		.byte	0x70
 10305 27da B3270000 		.4byte	0x27b3
 10306 27de 02       		.uleb128 0x2
 10307 27df 051E0000 		.4byte	.LASF533
 10308 27e3 2C       		.byte	0x2c
 10309 27e4 BF       		.byte	0xbf
 10310 27e5 F9000000 		.4byte	0xf9
 10311 27e9 02       		.uleb128 0x2
 10312 27ea FA1A0000 		.4byte	.LASF534
 10313 27ee 2C       		.byte	0x2c
 10314 27ef C4       		.byte	0xc4
 10315 27f0 F9000000 		.4byte	0xf9
 10316 27f4 02       		.uleb128 0x2
 10317 27f5 EA250000 		.4byte	.LASF535
 10318 27f9 2C       		.byte	0x2c
 10319 27fa C9       		.byte	0xc9
 10320 27fb FF270000 		.4byte	0x27ff
 10321 27ff 07       		.uleb128 0x7
 10322 2800 EA250000 		.4byte	.LASF535
 10323 2804 4C       		.byte	0x4c
 10324 2805 2C       		.byte	0x2c
 10325 2806 F2       		.byte	0xf2
 10326 2807 AE280000 		.4byte	0x28ae
 10327 280b 18       		.uleb128 0x18
 10328 280c 766D7400 		.ascii	"vmt\000"
 10329 2810 2C       		.byte	0x2c
 10330 2811 F6       		.byte	0xf6
 10331 2812 51290000 		.4byte	0x2951
 10332 2816 00       		.byte	0
 10333 2817 08       		.uleb128 0x8
 10334 2818 1A190000 		.4byte	.LASF340
 10335 281c 2C       		.byte	0x2c
 10336 281d F7       		.byte	0xf7
 10337 281e 5E150000 		.4byte	0x155e
 10338 2822 04       		.byte	0x4
 10339 2823 18       		.uleb128 0x18
 10340 2824 63696400 		.ascii	"cid\000"
 10341 2828 2C       		.byte	0x2c
 10342 2829 F7       		.byte	0xf7
 10343 282a 19160000 		.4byte	0x1619
 10344 282e 08       		.byte	0x8
 10345 282f 18       		.uleb128 0x18
 10346 2830 63736400 		.ascii	"csd\000"
 10347 2834 2C       		.byte	0x2c
 10348 2835 F7       		.byte	0xf7
 10349 2836 19160000 		.4byte	0x1619
ARM GAS  /var/folders/bw/wdbp2_bd0pn7gl5ybd33xbb80000gn/T//ccZ5cvgj.s 			page 188


 10350 283a 18       		.byte	0x18
 10351 283b 08       		.uleb128 0x8
 10352 283c 0D210000 		.4byte	.LASF536
 10353 2840 2C       		.byte	0x2c
 10354 2841 F7       		.byte	0xf7
 10355 2842 F9000000 		.4byte	0xf9
 10356 2846 28       		.byte	0x28
 10357 2847 08       		.uleb128 0x8
 10358 2848 13200000 		.4byte	.LASF341
 10359 284c 2C       		.byte	0x2c
 10360 284d FB       		.byte	0xfb
 10361 284e 57290000 		.4byte	0x2957
 10362 2852 2C       		.byte	0x2c
 10363 2853 08       		.uleb128 0x8
 10364 2854 84170000 		.4byte	.LASF537
 10365 2858 2C       		.byte	0x2c
 10366 2859 FF       		.byte	0xff
 10367 285a DE270000 		.4byte	0x27de
 10368 285e 30       		.byte	0x30
 10369 285f 0A       		.uleb128 0xa
 10370 2860 E3010000 		.4byte	.LASF473
 10371 2864 2C       		.byte	0x2c
 10372 2865 0301     		.2byte	0x103
 10373 2867 E9270000 		.4byte	0x27e9
 10374 286b 34       		.byte	0x34
 10375 286c 09       		.uleb128 0x9
 10376 286d 72636100 		.ascii	"rca\000"
 10377 2871 2C       		.byte	0x2c
 10378 2872 0701     		.2byte	0x107
 10379 2874 F9000000 		.4byte	0xf9
 10380 2878 38       		.byte	0x38
 10381 2879 0A       		.uleb128 0xa
 10382 287a D3070000 		.4byte	.LASF345
 10383 287e 2C       		.byte	0x2c
 10384 287f 0C01     		.2byte	0x10c
 10385 2881 E8020000 		.4byte	0x2e8
 10386 2885 3C       		.byte	0x3c
 10387 2886 0A       		.uleb128 0xa
 10388 2887 5C1B0000 		.4byte	.LASF348
 10389 288b 2C       		.byte	0x2c
 10390 288c 1001     		.2byte	0x110
 10391 288e F9000000 		.4byte	0xf9
 10392 2892 40       		.byte	0x40
 10393 2893 09       		.uleb128 0x9
 10394 2894 646D6100 		.ascii	"dma\000"
 10395 2898 2C       		.byte	0x2c
 10396 2899 1401     		.2byte	0x114
 10397 289b 5E1A0000 		.4byte	0x1a5e
 10398 289f 44       		.byte	0x44
 10399 28a0 0A       		.uleb128 0xa
 10400 28a1 3E190000 		.4byte	.LASF538
 10401 28a5 2C       		.byte	0x2c
 10402 28a6 1901     		.2byte	0x119
 10403 28a8 5D290000 		.4byte	0x295d
 10404 28ac 48       		.byte	0x48
 10405 28ad 00       		.byte	0
 10406 28ae 17       		.uleb128 0x17
ARM GAS  /var/folders/bw/wdbp2_bd0pn7gl5ybd33xbb80000gn/T//ccZ5cvgj.s 			page 189


 10407 28af 08       		.byte	0x8
 10408 28b0 2C       		.byte	0x2c
 10409 28b1 CF       		.byte	0xcf
 10410 28b2 CF280000 		.4byte	0x28cf
 10411 28b6 08       		.uleb128 0x8
 10412 28b7 320F0000 		.4byte	.LASF539
 10413 28bb 2C       		.byte	0x2c
 10414 28bc D8       		.byte	0xd8
 10415 28bd 88130000 		.4byte	0x1388
 10416 28c1 00       		.byte	0
 10417 28c2 08       		.uleb128 0x8
 10418 28c3 A1270000 		.4byte	.LASF540
 10419 28c7 2C       		.byte	0x2c
 10420 28c8 DC       		.byte	0xdc
 10421 28c9 D3270000 		.4byte	0x27d3
 10422 28cd 04       		.byte	0x4
 10423 28ce 00       		.byte	0
 10424 28cf 02       		.uleb128 0x2
 10425 28d0 B7180000 		.4byte	.LASF541
 10426 28d4 2C       		.byte	0x2c
 10427 28d5 DE       		.byte	0xde
 10428 28d6 AE280000 		.4byte	0x28ae
 10429 28da 05       		.uleb128 0x5
 10430 28db CF280000 		.4byte	0x28cf
 10431 28df 07       		.uleb128 0x7
 10432 28e0 C2270000 		.4byte	.LASF542
 10433 28e4 20       		.byte	0x20
 10434 28e5 2C       		.byte	0x2c
 10435 28e6 EB       		.byte	0xeb
 10436 28e7 4C290000 		.4byte	0x294c
 10437 28eb 08       		.uleb128 0x8
 10438 28ec 8F2A0000 		.4byte	.LASF543
 10439 28f0 2C       		.byte	0x2c
 10440 28f1 EC       		.byte	0xec
 10441 28f2 AB150000 		.4byte	0x15ab
 10442 28f6 00       		.byte	0
 10443 28f7 08       		.uleb128 0x8
 10444 28f8 800D0000 		.4byte	.LASF544
 10445 28fc 2C       		.byte	0x2c
 10446 28fd EC       		.byte	0xec
 10447 28fe AB150000 		.4byte	0x15ab
 10448 2902 04       		.byte	0x4
 10449 2903 08       		.uleb128 0x8
 10450 2904 47100000 		.4byte	.LASF545
 10451 2908 2C       		.byte	0x2c
 10452 2909 EC       		.byte	0xec
 10453 290a AB150000 		.4byte	0x15ab
 10454 290e 08       		.byte	0x8
 10455 290f 08       		.uleb128 0x8
 10456 2910 8D160000 		.4byte	.LASF546
 10457 2914 2C       		.byte	0x2c
 10458 2915 EC       		.byte	0xec
 10459 2916 AB150000 		.4byte	0x15ab
 10460 291a 0C       		.byte	0xc
 10461 291b 08       		.uleb128 0x8
 10462 291c 92050000 		.4byte	.LASF524
 10463 2920 2C       		.byte	0x2c
ARM GAS  /var/folders/bw/wdbp2_bd0pn7gl5ybd33xbb80000gn/T//ccZ5cvgj.s 			page 190


 10464 2921 EC       		.byte	0xec
 10465 2922 CF150000 		.4byte	0x15cf
 10466 2926 10       		.byte	0x10
 10467 2927 08       		.uleb128 0x8
 10468 2928 9F1B0000 		.4byte	.LASF523
 10469 292c 2C       		.byte	0x2c
 10470 292d EC       		.byte	0xec
 10471 292e F3150000 		.4byte	0x15f3
 10472 2932 14       		.byte	0x14
 10473 2933 08       		.uleb128 0x8
 10474 2934 F21D0000 		.4byte	.LASF547
 10475 2938 2C       		.byte	0x2c
 10476 2939 EC       		.byte	0xec
 10477 293a AB150000 		.4byte	0x15ab
 10478 293e 18       		.byte	0x18
 10479 293f 08       		.uleb128 0x8
 10480 2940 4F270000 		.4byte	.LASF548
 10481 2944 2C       		.byte	0x2c
 10482 2945 EC       		.byte	0xec
 10483 2946 13160000 		.4byte	0x1613
 10484 294a 1C       		.byte	0x1c
 10485 294b 00       		.byte	0
 10486 294c 05       		.uleb128 0x5
 10487 294d DF280000 		.4byte	0x28df
 10488 2951 0B       		.uleb128 0xb
 10489 2952 04       		.byte	0x4
 10490 2953 4C290000 		.4byte	0x294c
 10491 2957 0B       		.uleb128 0xb
 10492 2958 04       		.byte	0x4
 10493 2959 DA280000 		.4byte	0x28da
 10494 295d 0B       		.uleb128 0xb
 10495 295e 04       		.byte	0x4
 10496 295f 700C0000 		.4byte	0xc70
 10497 2963 15       		.uleb128 0x15
 10498 2964 1C0B0000 		.4byte	.LASF549
 10499 2968 2C       		.byte	0x2c
 10500 2969 2501     		.2byte	0x125
 10501 296b F4270000 		.4byte	0x27f4
 10502 296f 21       		.uleb128 0x21
 10503 2970 07       		.byte	0x7
 10504 2971 01       		.byte	0x1
 10505 2972 42000000 		.4byte	0x42
 10506 2976 2D       		.byte	0x2d
 10507 2977 46       		.byte	0x46
 10508 2978 9B290000 		.4byte	0x299b
 10509 297c 22       		.uleb128 0x22
 10510 297d E9070000 		.4byte	.LASF550
 10511 2981 00       		.byte	0
 10512 2982 22       		.uleb128 0x22
 10513 2983 7B030000 		.4byte	.LASF551
 10514 2987 01       		.byte	0x1
 10515 2988 22       		.uleb128 0x22
 10516 2989 8A270000 		.4byte	.LASF552
 10517 298d 02       		.byte	0x2
 10518 298e 22       		.uleb128 0x22
 10519 298f B10F0000 		.4byte	.LASF553
 10520 2993 03       		.byte	0x3
ARM GAS  /var/folders/bw/wdbp2_bd0pn7gl5ybd33xbb80000gn/T//ccZ5cvgj.s 			page 191


 10521 2994 22       		.uleb128 0x22
 10522 2995 20160000 		.4byte	.LASF554
 10523 2999 04       		.byte	0x4
 10524 299a 00       		.byte	0
 10525 299b 02       		.uleb128 0x2
 10526 299c 650F0000 		.4byte	.LASF555
 10527 29a0 2D       		.byte	0x2d
 10528 29a1 4C       		.byte	0x4c
 10529 29a2 6F290000 		.4byte	0x296f
 10530 29a6 1A       		.uleb128 0x1a
 10531 29a7 7D250000 		.4byte	.LASF556
 10532 29ab 2E       		.byte	0x2e
 10533 29ac 9601     		.2byte	0x196
 10534 29ae B2290000 		.4byte	0x29b2
 10535 29b2 0C       		.uleb128 0xc
 10536 29b3 7D250000 		.4byte	.LASF556
 10537 29b7 34       		.byte	0x34
 10538 29b8 2E       		.byte	0x2e
 10539 29b9 BA01     		.2byte	0x1ba
 10540 29bb 352A0000 		.4byte	0x2a35
 10541 29bf 0A       		.uleb128 0xa
 10542 29c0 1A190000 		.4byte	.LASF340
 10543 29c4 2E       		.byte	0x2e
 10544 29c5 BE01     		.2byte	0x1be
 10545 29c7 9B290000 		.4byte	0x299b
 10546 29cb 00       		.byte	0
 10547 29cc 0A       		.uleb128 0xa
 10548 29cd 13200000 		.4byte	.LASF341
 10549 29d1 2E       		.byte	0x2e
 10550 29d2 C201     		.2byte	0x1c2
 10551 29d4 A72A0000 		.4byte	0x2aa7
 10552 29d8 04       		.byte	0x4
 10553 29d9 0A       		.uleb128 0xa
 10554 29da D3070000 		.4byte	.LASF345
 10555 29de 2E       		.byte	0x2e
 10556 29df C701     		.2byte	0x1c7
 10557 29e1 E8020000 		.4byte	0x2e8
 10558 29e5 08       		.byte	0x8
 10559 29e6 0A       		.uleb128 0xa
 10560 29e7 E70D0000 		.4byte	.LASF346
 10561 29eb 2E       		.byte	0x2e
 10562 29ec CD01     		.2byte	0x1cd
 10563 29ee 5F120000 		.4byte	0x125f
 10564 29f2 0C       		.byte	0xc
 10565 29f3 09       		.uleb128 0x9
 10566 29f4 73706900 		.ascii	"spi\000"
 10567 29f8 2E       		.byte	0x2e
 10568 29f9 D601     		.2byte	0x1d6
 10569 29fb 96240000 		.4byte	0x2496
 10570 29ff 20       		.byte	0x20
 10571 2a00 0A       		.uleb128 0xa
 10572 2a01 5A010000 		.4byte	.LASF477
 10573 2a05 2E       		.byte	0x2e
 10574 2a06 DA01     		.2byte	0x1da
 10575 2a08 5E1A0000 		.4byte	0x1a5e
 10576 2a0c 24       		.byte	0x24
 10577 2a0d 0A       		.uleb128 0xa
ARM GAS  /var/folders/bw/wdbp2_bd0pn7gl5ybd33xbb80000gn/T//ccZ5cvgj.s 			page 192


 10578 2a0e 8A020000 		.4byte	.LASF478
 10579 2a12 2E       		.byte	0x2e
 10580 2a13 DE01     		.2byte	0x1de
 10581 2a15 5E1A0000 		.4byte	0x1a5e
 10582 2a19 28       		.byte	0x28
 10583 2a1a 0A       		.uleb128 0xa
 10584 2a1b 57090000 		.4byte	.LASF475
 10585 2a1f 2E       		.byte	0x2e
 10586 2a20 E201     		.2byte	0x1e2
 10587 2a22 F9000000 		.4byte	0xf9
 10588 2a26 2C       		.byte	0x2c
 10589 2a27 0A       		.uleb128 0xa
 10590 2a28 B1090000 		.4byte	.LASF476
 10591 2a2c 2E       		.byte	0x2e
 10592 2a2d E601     		.2byte	0x1e6
 10593 2a2f F9000000 		.4byte	0xf9
 10594 2a33 30       		.byte	0x30
 10595 2a34 00       		.byte	0
 10596 2a35 1A       		.uleb128 0x1a
 10597 2a36 1B180000 		.4byte	.LASF557
 10598 2a3a 2E       		.byte	0x2e
 10599 2a3b 9E01     		.2byte	0x19e
 10600 2a3d 412A0000 		.4byte	0x2a41
 10601 2a41 0B       		.uleb128 0xb
 10602 2a42 04       		.byte	0x4
 10603 2a43 472A0000 		.4byte	0x2a47
 10604 2a47 0D       		.uleb128 0xd
 10605 2a48 522A0000 		.4byte	0x2a52
 10606 2a4c 0E       		.uleb128 0xe
 10607 2a4d 522A0000 		.4byte	0x2a52
 10608 2a51 00       		.byte	0
 10609 2a52 0B       		.uleb128 0xb
 10610 2a53 04       		.byte	0x4
 10611 2a54 A6290000 		.4byte	0x29a6
 10612 2a58 19       		.uleb128 0x19
 10613 2a59 0C       		.byte	0xc
 10614 2a5a 2E       		.byte	0x2e
 10615 2a5b A301     		.2byte	0x1a3
 10616 2a5d 962A0000 		.4byte	0x2a96
 10617 2a61 0A       		.uleb128 0xa
 10618 2a62 400A0000 		.4byte	.LASF353
 10619 2a66 2E       		.byte	0x2e
 10620 2a67 A701     		.2byte	0x1a7
 10621 2a69 352A0000 		.4byte	0x2a35
 10622 2a6d 00       		.byte	0
 10623 2a6e 0A       		.uleb128 0xa
 10624 2a6f 59280000 		.4byte	.LASF558
 10625 2a73 2E       		.byte	0x2e
 10626 2a74 AC01     		.2byte	0x1ac
 10627 2a76 EF170000 		.4byte	0x17ef
 10628 2a7a 04       		.byte	0x4
 10629 2a7b 0A       		.uleb128 0xa
 10630 2a7c AB090000 		.4byte	.LASF559
 10631 2a80 2E       		.byte	0x2e
 10632 2a81 B001     		.2byte	0x1b0
 10633 2a83 DE000000 		.4byte	0xde
 10634 2a87 08       		.byte	0x8
ARM GAS  /var/folders/bw/wdbp2_bd0pn7gl5ybd33xbb80000gn/T//ccZ5cvgj.s 			page 193


 10635 2a88 09       		.uleb128 0x9
 10636 2a89 63723100 		.ascii	"cr1\000"
 10637 2a8d 2E       		.byte	0x2e
 10638 2a8e B401     		.2byte	0x1b4
 10639 2a90 DE000000 		.4byte	0xde
 10640 2a94 0A       		.byte	0xa
 10641 2a95 00       		.byte	0
 10642 2a96 1A       		.uleb128 0x1a
 10643 2a97 8D250000 		.4byte	.LASF560
 10644 2a9b 2E       		.byte	0x2e
 10645 2a9c B501     		.2byte	0x1b5
 10646 2a9e 582A0000 		.4byte	0x2a58
 10647 2aa2 05       		.uleb128 0x5
 10648 2aa3 962A0000 		.4byte	0x2a96
 10649 2aa7 0B       		.uleb128 0xb
 10650 2aa8 04       		.byte	0x4
 10651 2aa9 A22A0000 		.4byte	0x2aa2
 10652 2aad 15       		.uleb128 0x15
 10653 2aae 751B0000 		.4byte	.LASF561
 10654 2ab2 2E       		.byte	0x2e
 10655 2ab3 F201     		.2byte	0x1f2
 10656 2ab5 A6290000 		.4byte	0x29a6
 10657 2ab9 02       		.uleb128 0x2
 10658 2aba 09140000 		.4byte	.LASF562
 10659 2abe 2F       		.byte	0x2f
 10660 2abf FA       		.byte	0xfa
 10661 2ac0 C42A0000 		.4byte	0x2ac4
 10662 2ac4 10       		.uleb128 0x10
 10663 2ac5 09140000 		.4byte	.LASF562
 10664 2ac9 6002     		.2byte	0x260
 10665 2acb 30       		.byte	0x30
 10666 2acc 7701     		.2byte	0x177
 10667 2ace F02B0000 		.4byte	0x2bf0
 10668 2ad2 0A       		.uleb128 0xa
 10669 2ad3 1A190000 		.4byte	.LASF340
 10670 2ad7 30       		.byte	0x30
 10671 2ad8 7B01     		.2byte	0x17b
 10672 2ada 282C0000 		.4byte	0x2c28
 10673 2ade 00       		.byte	0
 10674 2adf 0A       		.uleb128 0xa
 10675 2ae0 13200000 		.4byte	.LASF341
 10676 2ae4 30       		.byte	0x30
 10677 2ae5 7F01     		.2byte	0x17f
 10678 2ae7 4B350000 		.4byte	0x354b
 10679 2aeb 04       		.byte	0x4
 10680 2aec 0A       		.uleb128 0xa
 10681 2aed CE250000 		.4byte	.LASF563
 10682 2af1 30       		.byte	0x30
 10683 2af2 8301     		.2byte	0x183
 10684 2af4 DE000000 		.4byte	0xde
 10685 2af8 08       		.byte	0x8
 10686 2af9 0A       		.uleb128 0xa
 10687 2afa 94280000 		.4byte	.LASF564
 10688 2afe 30       		.byte	0x30
 10689 2aff 8701     		.2byte	0x187
 10690 2b01 DE000000 		.4byte	0xde
 10691 2b05 0A       		.byte	0xa
ARM GAS  /var/folders/bw/wdbp2_bd0pn7gl5ybd33xbb80000gn/T//ccZ5cvgj.s 			page 194


 10692 2b06 09       		.uleb128 0x9
 10693 2b07 65706300 		.ascii	"epc\000"
 10694 2b0b 30       		.byte	0x30
 10695 2b0c 8B01     		.2byte	0x18b
 10696 2b0e 51350000 		.4byte	0x3551
 10697 2b12 0C       		.byte	0xc
 10698 2b13 0A       		.uleb128 0xa
 10699 2b14 13080000 		.4byte	.LASF565
 10700 2b18 30       		.byte	0x30
 10701 2b19 9201     		.2byte	0x192
 10702 2b1b 67350000 		.4byte	0x3567
 10703 2b1f 1C       		.byte	0x1c
 10704 2b20 0A       		.uleb128 0xa
 10705 2b21 510D0000 		.4byte	.LASF566
 10706 2b25 30       		.byte	0x30
 10707 2b26 9901     		.2byte	0x199
 10708 2b28 67350000 		.4byte	0x3567
 10709 2b2c 28       		.byte	0x28
 10710 2b2d 0A       		.uleb128 0xa
 10711 2b2e 22120000 		.4byte	.LASF567
 10712 2b32 30       		.byte	0x30
 10713 2b33 9D01     		.2byte	0x19d
 10714 2b35 6D2C0000 		.4byte	0x2c6d
 10715 2b39 34       		.byte	0x34
 10716 2b3a 0A       		.uleb128 0xa
 10717 2b3b 911F0000 		.4byte	.LASF568
 10718 2b3f 30       		.byte	0x30
 10719 2b40 A101     		.2byte	0x1a1
 10720 2b42 88130000 		.4byte	0x1388
 10721 2b46 38       		.byte	0x38
 10722 2b47 0A       		.uleb128 0xa
 10723 2b48 CF1A0000 		.4byte	.LASF569
 10724 2b4c 30       		.byte	0x30
 10725 2b4d A501     		.2byte	0x1a5
 10726 2b4f 19010000 		.4byte	0x119
 10727 2b53 3C       		.byte	0x3c
 10728 2b54 0A       		.uleb128 0xa
 10729 2b55 D7220000 		.4byte	.LASF570
 10730 2b59 30       		.byte	0x30
 10731 2b5a A901     		.2byte	0x1a9
 10732 2b5c ED2C0000 		.4byte	0x2ced
 10733 2b60 40       		.byte	0x40
 10734 2b61 0A       		.uleb128 0xa
 10735 2b62 E3070000 		.4byte	.LASF571
 10736 2b66 30       		.byte	0x30
 10737 2b67 AD01     		.2byte	0x1ad
 10738 2b69 BF1A0000 		.4byte	0x1abf
 10739 2b6d 44       		.byte	0x44
 10740 2b6e 0A       		.uleb128 0xa
 10741 2b6f CF170000 		.4byte	.LASF572
 10742 2b73 30       		.byte	0x30
 10743 2b74 B101     		.2byte	0x1b1
 10744 2b76 DE000000 		.4byte	0xde
 10745 2b7a 4C       		.byte	0x4c
 10746 2b7b 0A       		.uleb128 0xa
 10747 2b7c 33180000 		.4byte	.LASF573
 10748 2b80 30       		.byte	0x30
ARM GAS  /var/folders/bw/wdbp2_bd0pn7gl5ybd33xbb80000gn/T//ccZ5cvgj.s 			page 195


 10749 2b81 B501     		.2byte	0x1b5
 10750 2b83 C3000000 		.4byte	0xc3
 10751 2b87 4E       		.byte	0x4e
 10752 2b88 0A       		.uleb128 0xa
 10753 2b89 671E0000 		.4byte	.LASF574
 10754 2b8d 30       		.byte	0x30
 10755 2b8e B901     		.2byte	0x1b9
 10756 2b90 C3000000 		.4byte	0xc3
 10757 2b94 4F       		.byte	0x4f
 10758 2b95 09       		.uleb128 0x9
 10759 2b96 6F746700 		.ascii	"otg\000"
 10760 2b9a 30       		.byte	0x30
 10761 2b9b C101     		.2byte	0x1c1
 10762 2b9d 77350000 		.4byte	0x3577
 10763 2ba1 50       		.byte	0x50
 10764 2ba2 0A       		.uleb128 0xa
 10765 2ba3 190F0000 		.4byte	.LASF575
 10766 2ba7 30       		.byte	0x30
 10767 2ba8 C501     		.2byte	0x1c5
 10768 2baa 7D350000 		.4byte	0x357d
 10769 2bae 54       		.byte	0x54
 10770 2baf 0A       		.uleb128 0xa
 10771 2bb0 861C0000 		.4byte	.LASF576
 10772 2bb4 30       		.byte	0x30
 10773 2bb5 C901     		.2byte	0x1c9
 10774 2bb7 F9000000 		.4byte	0xf9
 10775 2bbb 58       		.byte	0x58
 10776 2bbc 0A       		.uleb128 0xa
 10777 2bbd 120E0000 		.4byte	.LASF577
 10778 2bc1 30       		.byte	0x30
 10779 2bc2 CD01     		.2byte	0x1cd
 10780 2bc4 F9000000 		.4byte	0xf9
 10781 2bc8 5C       		.byte	0x5c
 10782 2bc9 0A       		.uleb128 0xa
 10783 2bca 08090000 		.4byte	.LASF578
 10784 2bce 30       		.byte	0x30
 10785 2bcf D101     		.2byte	0x1d1
 10786 2bd1 E8020000 		.4byte	0x2e8
 10787 2bd5 60       		.byte	0x60
 10788 2bd6 09       		.uleb128 0x9
 10789 2bd7 747200   		.ascii	"tr\000"
 10790 2bda 30       		.byte	0x30
 10791 2bdb D601     		.2byte	0x1d6
 10792 2bdd E8020000 		.4byte	0x2e8
 10793 2be1 64       		.byte	0x64
 10794 2be2 0A       		.uleb128 0xa
 10795 2be3 C7160000 		.4byte	.LASF579
 10796 2be7 30       		.byte	0x30
 10797 2be8 DA01     		.2byte	0x1da
 10798 2bea 83350000 		.4byte	0x3583
 10799 2bee 68       		.byte	0x68
 10800 2bef 00       		.byte	0
 10801 2bf0 02       		.uleb128 0x2
 10802 2bf1 C90A0000 		.4byte	.LASF580
 10803 2bf5 2F       		.byte	0x2f
 10804 2bf6 FF       		.byte	0xff
 10805 2bf7 C3000000 		.4byte	0xc3
ARM GAS  /var/folders/bw/wdbp2_bd0pn7gl5ybd33xbb80000gn/T//ccZ5cvgj.s 			page 196


 10806 2bfb 24       		.uleb128 0x24
 10807 2bfc 07       		.byte	0x7
 10808 2bfd 01       		.byte	0x1
 10809 2bfe 42000000 		.4byte	0x42
 10810 2c02 2F       		.byte	0x2f
 10811 2c03 0401     		.2byte	0x104
 10812 2c05 282C0000 		.4byte	0x2c28
 10813 2c09 22       		.uleb128 0x22
 10814 2c0a 77290000 		.4byte	.LASF581
 10815 2c0e 00       		.byte	0
 10816 2c0f 22       		.uleb128 0x22
 10817 2c10 00000000 		.4byte	.LASF582
 10818 2c14 01       		.byte	0x1
 10819 2c15 22       		.uleb128 0x22
 10820 2c16 CB150000 		.4byte	.LASF583
 10821 2c1a 02       		.byte	0x2
 10822 2c1b 22       		.uleb128 0x22
 10823 2c1c 561C0000 		.4byte	.LASF584
 10824 2c20 03       		.byte	0x3
 10825 2c21 22       		.uleb128 0x22
 10826 2c22 20090000 		.4byte	.LASF585
 10827 2c26 04       		.byte	0x4
 10828 2c27 00       		.byte	0
 10829 2c28 1A       		.uleb128 0x1a
 10830 2c29 CA2A0000 		.4byte	.LASF586
 10831 2c2d 2F       		.byte	0x2f
 10832 2c2e 0A01     		.2byte	0x10a
 10833 2c30 FB2B0000 		.4byte	0x2bfb
 10834 2c34 24       		.uleb128 0x24
 10835 2c35 07       		.byte	0x7
 10836 2c36 01       		.byte	0x1
 10837 2c37 42000000 		.4byte	0x42
 10838 2c3b 2F       		.byte	0x2f
 10839 2c3c 1801     		.2byte	0x118
 10840 2c3e 6D2C0000 		.4byte	0x2c6d
 10841 2c42 22       		.uleb128 0x22
 10842 2c43 A2220000 		.4byte	.LASF587
 10843 2c47 00       		.byte	0
 10844 2c48 22       		.uleb128 0x22
 10845 2c49 17120000 		.4byte	.LASF588
 10846 2c4d 01       		.byte	0x1
 10847 2c4e 22       		.uleb128 0x22
 10848 2c4f 7D1F0000 		.4byte	.LASF589
 10849 2c53 02       		.byte	0x2
 10850 2c54 22       		.uleb128 0x22
 10851 2c55 61190000 		.4byte	.LASF590
 10852 2c59 03       		.byte	0x3
 10853 2c5a 22       		.uleb128 0x22
 10854 2c5b AC170000 		.4byte	.LASF591
 10855 2c5f 04       		.byte	0x4
 10856 2c60 22       		.uleb128 0x22
 10857 2c61 44130000 		.4byte	.LASF592
 10858 2c65 05       		.byte	0x5
 10859 2c66 22       		.uleb128 0x22
 10860 2c67 32100000 		.4byte	.LASF593
 10861 2c6b 06       		.byte	0x6
 10862 2c6c 00       		.byte	0
ARM GAS  /var/folders/bw/wdbp2_bd0pn7gl5ybd33xbb80000gn/T//ccZ5cvgj.s 			page 197


 10863 2c6d 1A       		.uleb128 0x1a
 10864 2c6e AE130000 		.4byte	.LASF594
 10865 2c72 2F       		.byte	0x2f
 10866 2c73 2001     		.2byte	0x120
 10867 2c75 342C0000 		.4byte	0x2c34
 10868 2c79 24       		.uleb128 0x24
 10869 2c7a 07       		.byte	0x7
 10870 2c7b 01       		.byte	0x1
 10871 2c7c 42000000 		.4byte	0x42
 10872 2c80 2F       		.byte	0x2f
 10873 2c81 2501     		.2byte	0x125
 10874 2c83 AC2C0000 		.4byte	0x2cac
 10875 2c87 22       		.uleb128 0x22
 10876 2c88 BB210000 		.4byte	.LASF595
 10877 2c8c 00       		.byte	0
 10878 2c8d 22       		.uleb128 0x22
 10879 2c8e E01C0000 		.4byte	.LASF596
 10880 2c92 01       		.byte	0x1
 10881 2c93 22       		.uleb128 0x22
 10882 2c94 78160000 		.4byte	.LASF597
 10883 2c98 02       		.byte	0x2
 10884 2c99 22       		.uleb128 0x22
 10885 2c9a 13170000 		.4byte	.LASF598
 10886 2c9e 03       		.byte	0x3
 10887 2c9f 22       		.uleb128 0x22
 10888 2ca0 DD270000 		.4byte	.LASF599
 10889 2ca4 04       		.byte	0x4
 10890 2ca5 22       		.uleb128 0x22
 10891 2ca6 3C160000 		.4byte	.LASF600
 10892 2caa 05       		.byte	0x5
 10893 2cab 00       		.byte	0
 10894 2cac 1A       		.uleb128 0x1a
 10895 2cad 0F1D0000 		.4byte	.LASF601
 10896 2cb1 2F       		.byte	0x2f
 10897 2cb2 2C01     		.2byte	0x12c
 10898 2cb4 792C0000 		.4byte	0x2c79
 10899 2cb8 19       		.uleb128 0x19
 10900 2cb9 08       		.byte	0x8
 10901 2cba 2F       		.byte	0x2f
 10902 2cbb 3101     		.2byte	0x131
 10903 2cbd DC2C0000 		.4byte	0x2cdc
 10904 2cc1 0A       		.uleb128 0xa
 10905 2cc2 3E2A0000 		.4byte	.LASF602
 10906 2cc6 2F       		.byte	0x2f
 10907 2cc7 3501     		.2byte	0x135
 10908 2cc9 19010000 		.4byte	0x119
 10909 2ccd 00       		.byte	0
 10910 2cce 0A       		.uleb128 0xa
 10911 2ccf 70050000 		.4byte	.LASF603
 10912 2cd3 2F       		.byte	0x2f
 10913 2cd4 3901     		.2byte	0x139
 10914 2cd6 BD130000 		.4byte	0x13bd
 10915 2cda 04       		.byte	0x4
 10916 2cdb 00       		.byte	0
 10917 2cdc 1A       		.uleb128 0x1a
 10918 2cdd F5170000 		.4byte	.LASF604
 10919 2ce1 2F       		.byte	0x2f
ARM GAS  /var/folders/bw/wdbp2_bd0pn7gl5ybd33xbb80000gn/T//ccZ5cvgj.s 			page 198


 10920 2ce2 3A01     		.2byte	0x13a
 10921 2ce4 B82C0000 		.4byte	0x2cb8
 10922 2ce8 05       		.uleb128 0x5
 10923 2ce9 DC2C0000 		.4byte	0x2cdc
 10924 2ced 1A       		.uleb128 0x1a
 10925 2cee C7290000 		.4byte	.LASF605
 10926 2cf2 2F       		.byte	0x2f
 10927 2cf3 4201     		.2byte	0x142
 10928 2cf5 F92C0000 		.4byte	0x2cf9
 10929 2cf9 0B       		.uleb128 0xb
 10930 2cfa 04       		.byte	0x4
 10931 2cfb FF2C0000 		.4byte	0x2cff
 10932 2cff 0D       		.uleb128 0xd
 10933 2d00 0A2D0000 		.4byte	0x2d0a
 10934 2d04 0E       		.uleb128 0xe
 10935 2d05 0A2D0000 		.4byte	0x2d0a
 10936 2d09 00       		.byte	0
 10937 2d0a 0B       		.uleb128 0xb
 10938 2d0b 04       		.byte	0x4
 10939 2d0c B92A0000 		.4byte	0x2ab9
 10940 2d10 1A       		.uleb128 0x1a
 10941 2d11 C1050000 		.4byte	.LASF606
 10942 2d15 2F       		.byte	0x2f
 10943 2d16 4B01     		.2byte	0x14b
 10944 2d18 1C2D0000 		.4byte	0x2d1c
 10945 2d1c 0B       		.uleb128 0xb
 10946 2d1d 04       		.byte	0x4
 10947 2d1e 222D0000 		.4byte	0x2d22
 10948 2d22 0D       		.uleb128 0xd
 10949 2d23 322D0000 		.4byte	0x2d32
 10950 2d27 0E       		.uleb128 0xe
 10951 2d28 0A2D0000 		.4byte	0x2d0a
 10952 2d2c 0E       		.uleb128 0xe
 10953 2d2d F02B0000 		.4byte	0x2bf0
 10954 2d31 00       		.byte	0
 10955 2d32 1A       		.uleb128 0x1a
 10956 2d33 1C0C0000 		.4byte	.LASF607
 10957 2d37 2F       		.byte	0x2f
 10958 2d38 5401     		.2byte	0x154
 10959 2d3a 3E2D0000 		.4byte	0x2d3e
 10960 2d3e 0B       		.uleb128 0xb
 10961 2d3f 04       		.byte	0x4
 10962 2d40 442D0000 		.4byte	0x2d44
 10963 2d44 0D       		.uleb128 0xd
 10964 2d45 542D0000 		.4byte	0x2d54
 10965 2d49 0E       		.uleb128 0xe
 10966 2d4a 0A2D0000 		.4byte	0x2d0a
 10967 2d4e 0E       		.uleb128 0xe
 10968 2d4f AC2C0000 		.4byte	0x2cac
 10969 2d53 00       		.byte	0
 10970 2d54 1A       		.uleb128 0x1a
 10971 2d55 2B070000 		.4byte	.LASF608
 10972 2d59 2F       		.byte	0x2f
 10973 2d5a 6001     		.2byte	0x160
 10974 2d5c 602D0000 		.4byte	0x2d60
 10975 2d60 0B       		.uleb128 0xb
 10976 2d61 04       		.byte	0x4
ARM GAS  /var/folders/bw/wdbp2_bd0pn7gl5ybd33xbb80000gn/T//ccZ5cvgj.s 			page 199


 10977 2d62 662D0000 		.4byte	0x2d66
 10978 2d66 20       		.uleb128 0x20
 10979 2d67 A4150000 		.4byte	0x15a4
 10980 2d6b 752D0000 		.4byte	0x2d75
 10981 2d6f 0E       		.uleb128 0xe
 10982 2d70 0A2D0000 		.4byte	0x2d0a
 10983 2d74 00       		.byte	0
 10984 2d75 1A       		.uleb128 0x1a
 10985 2d76 A2100000 		.4byte	.LASF609
 10986 2d7a 2F       		.byte	0x2f
 10987 2d7b 6501     		.2byte	0x165
 10988 2d7d 812D0000 		.4byte	0x2d81
 10989 2d81 0B       		.uleb128 0xb
 10990 2d82 04       		.byte	0x4
 10991 2d83 872D0000 		.4byte	0x2d87
 10992 2d87 20       		.uleb128 0x20
 10993 2d88 A52D0000 		.4byte	0x2da5
 10994 2d8c A52D0000 		.4byte	0x2da5
 10995 2d90 0E       		.uleb128 0xe
 10996 2d91 0A2D0000 		.4byte	0x2d0a
 10997 2d95 0E       		.uleb128 0xe
 10998 2d96 C3000000 		.4byte	0xc3
 10999 2d9a 0E       		.uleb128 0xe
 11000 2d9b C3000000 		.4byte	0xc3
 11001 2d9f 0E       		.uleb128 0xe
 11002 2da0 DE000000 		.4byte	0xde
 11003 2da4 00       		.byte	0
 11004 2da5 0B       		.uleb128 0xb
 11005 2da6 04       		.byte	0x4
 11006 2da7 E82C0000 		.4byte	0x2ce8
 11007 2dab 17       		.uleb128 0x17
 11008 2dac 20       		.byte	0x20
 11009 2dad 31       		.byte	0x31
 11010 2dae 35       		.byte	0x35
 11011 2daf 142E0000 		.4byte	0x2e14
 11012 2db3 08       		.uleb128 0x8
 11013 2db4 EC030000 		.4byte	.LASF610
 11014 2db8 31       		.byte	0x31
 11015 2db9 36       		.byte	0x36
 11016 2dba 04010000 		.4byte	0x104
 11017 2dbe 00       		.byte	0
 11018 2dbf 08       		.uleb128 0x8
 11019 2dc0 570E0000 		.4byte	.LASF611
 11020 2dc4 31       		.byte	0x31
 11021 2dc5 38       		.byte	0x38
 11022 2dc6 04010000 		.4byte	0x104
 11023 2dca 04       		.byte	0x4
 11024 2dcb 08       		.uleb128 0x8
 11025 2dcc 50030000 		.4byte	.LASF612
 11026 2dd0 31       		.byte	0x31
 11027 2dd1 39       		.byte	0x39
 11028 2dd2 04010000 		.4byte	0x104
 11029 2dd6 08       		.byte	0x8
 11030 2dd7 08       		.uleb128 0x8
 11031 2dd8 F71F0000 		.4byte	.LASF613
 11032 2ddc 31       		.byte	0x31
 11033 2ddd 3A       		.byte	0x3a
ARM GAS  /var/folders/bw/wdbp2_bd0pn7gl5ybd33xbb80000gn/T//ccZ5cvgj.s 			page 200


 11034 2dde 04010000 		.4byte	0x104
 11035 2de2 0C       		.byte	0xc
 11036 2de3 08       		.uleb128 0x8
 11037 2de4 71160000 		.4byte	.LASF614
 11038 2de8 31       		.byte	0x31
 11039 2de9 3C       		.byte	0x3c
 11040 2dea 04010000 		.4byte	0x104
 11041 2dee 10       		.byte	0x10
 11042 2def 08       		.uleb128 0x8
 11043 2df0 A80E0000 		.4byte	.LASF615
 11044 2df4 31       		.byte	0x31
 11045 2df5 3E       		.byte	0x3e
 11046 2df6 04010000 		.4byte	0x104
 11047 2dfa 14       		.byte	0x14
 11048 2dfb 08       		.uleb128 0x8
 11049 2dfc B00E0000 		.4byte	.LASF616
 11050 2e00 31       		.byte	0x31
 11051 2e01 3F       		.byte	0x3f
 11052 2e02 04010000 		.4byte	0x104
 11053 2e06 18       		.byte	0x18
 11054 2e07 08       		.uleb128 0x8
 11055 2e08 CA040000 		.4byte	.LASF617
 11056 2e0c 31       		.byte	0x31
 11057 2e0d 40       		.byte	0x40
 11058 2e0e 04010000 		.4byte	0x104
 11059 2e12 1C       		.byte	0x1c
 11060 2e13 00       		.byte	0
 11061 2e14 02       		.uleb128 0x2
 11062 2e15 991F0000 		.4byte	.LASF618
 11063 2e19 31       		.byte	0x31
 11064 2e1a 41       		.byte	0x41
 11065 2e1b AB2D0000 		.4byte	0x2dab
 11066 2e1f 17       		.uleb128 0x17
 11067 2e20 20       		.byte	0x20
 11068 2e21 31       		.byte	0x31
 11069 2e22 46       		.byte	0x46
 11070 2e23 882E0000 		.4byte	0x2e88
 11071 2e27 08       		.uleb128 0x8
 11072 2e28 070F0000 		.4byte	.LASF619
 11073 2e2c 31       		.byte	0x31
 11074 2e2d 47       		.byte	0x47
 11075 2e2e 04010000 		.4byte	0x104
 11076 2e32 00       		.byte	0
 11077 2e33 08       		.uleb128 0x8
 11078 2e34 02140000 		.4byte	.LASF620
 11079 2e38 31       		.byte	0x31
 11080 2e39 49       		.byte	0x49
 11081 2e3a 04010000 		.4byte	0x104
 11082 2e3e 04       		.byte	0x4
 11083 2e3f 08       		.uleb128 0x8
 11084 2e40 E0240000 		.4byte	.LASF621
 11085 2e44 31       		.byte	0x31
 11086 2e45 4A       		.byte	0x4a
 11087 2e46 04010000 		.4byte	0x104
 11088 2e4a 08       		.byte	0x8
 11089 2e4b 08       		.uleb128 0x8
 11090 2e4c 26140000 		.4byte	.LASF622
ARM GAS  /var/folders/bw/wdbp2_bd0pn7gl5ybd33xbb80000gn/T//ccZ5cvgj.s 			page 201


 11091 2e50 31       		.byte	0x31
 11092 2e51 4C       		.byte	0x4c
 11093 2e52 04010000 		.4byte	0x104
 11094 2e56 0C       		.byte	0xc
 11095 2e57 08       		.uleb128 0x8
 11096 2e58 3A1A0000 		.4byte	.LASF623
 11097 2e5c 31       		.byte	0x31
 11098 2e5d 4D       		.byte	0x4d
 11099 2e5e 04010000 		.4byte	0x104
 11100 2e62 10       		.byte	0x10
 11101 2e63 08       		.uleb128 0x8
 11102 2e64 A80E0000 		.4byte	.LASF615
 11103 2e68 31       		.byte	0x31
 11104 2e69 4F       		.byte	0x4f
 11105 2e6a 04010000 		.4byte	0x104
 11106 2e6e 14       		.byte	0x14
 11107 2e6f 08       		.uleb128 0x8
 11108 2e70 F4070000 		.4byte	.LASF624
 11109 2e74 31       		.byte	0x31
 11110 2e75 50       		.byte	0x50
 11111 2e76 04010000 		.4byte	0x104
 11112 2e7a 18       		.byte	0x18
 11113 2e7b 08       		.uleb128 0x8
 11114 2e7c C9240000 		.4byte	.LASF625
 11115 2e80 31       		.byte	0x31
 11116 2e81 52       		.byte	0x52
 11117 2e82 04010000 		.4byte	0x104
 11118 2e86 1C       		.byte	0x1c
 11119 2e87 00       		.byte	0
 11120 2e88 02       		.uleb128 0x2
 11121 2e89 34090000 		.4byte	.LASF626
 11122 2e8d 31       		.byte	0x31
 11123 2e8e 53       		.byte	0x53
 11124 2e8f 1F2E0000 		.4byte	0x2e1f
 11125 2e93 17       		.uleb128 0x17
 11126 2e94 20       		.byte	0x20
 11127 2e95 31       		.byte	0x31
 11128 2e96 58       		.byte	0x58
 11129 2e97 FC2E0000 		.4byte	0x2efc
 11130 2e9b 08       		.uleb128 0x8
 11131 2e9c EF1F0000 		.4byte	.LASF627
 11132 2ea0 31       		.byte	0x31
 11133 2ea1 59       		.byte	0x59
 11134 2ea2 04010000 		.4byte	0x104
 11135 2ea6 00       		.byte	0
 11136 2ea7 08       		.uleb128 0x8
 11137 2ea8 02140000 		.4byte	.LASF620
 11138 2eac 31       		.byte	0x31
 11139 2ead 5B       		.byte	0x5b
 11140 2eae 04010000 		.4byte	0x104
 11141 2eb2 04       		.byte	0x4
 11142 2eb3 08       		.uleb128 0x8
 11143 2eb4 BD1B0000 		.4byte	.LASF628
 11144 2eb8 31       		.byte	0x31
 11145 2eb9 5C       		.byte	0x5c
 11146 2eba 04010000 		.4byte	0x104
 11147 2ebe 08       		.byte	0x8
ARM GAS  /var/folders/bw/wdbp2_bd0pn7gl5ybd33xbb80000gn/T//ccZ5cvgj.s 			page 202


 11148 2ebf 08       		.uleb128 0x8
 11149 2ec0 26140000 		.4byte	.LASF622
 11150 2ec4 31       		.byte	0x31
 11151 2ec5 5E       		.byte	0x5e
 11152 2ec6 04010000 		.4byte	0x104
 11153 2eca 0C       		.byte	0xc
 11154 2ecb 08       		.uleb128 0x8
 11155 2ecc 27260000 		.4byte	.LASF629
 11156 2ed0 31       		.byte	0x31
 11157 2ed1 5F       		.byte	0x5f
 11158 2ed2 04010000 		.4byte	0x104
 11159 2ed6 10       		.byte	0x10
 11160 2ed7 08       		.uleb128 0x8
 11161 2ed8 A80E0000 		.4byte	.LASF615
 11162 2edc 31       		.byte	0x31
 11163 2edd 61       		.byte	0x61
 11164 2ede 04010000 		.4byte	0x104
 11165 2ee2 14       		.byte	0x14
 11166 2ee3 08       		.uleb128 0x8
 11167 2ee4 B00E0000 		.4byte	.LASF616
 11168 2ee8 31       		.byte	0x31
 11169 2ee9 62       		.byte	0x62
 11170 2eea 04010000 		.4byte	0x104
 11171 2eee 18       		.byte	0x18
 11172 2eef 08       		.uleb128 0x8
 11173 2ef0 C9240000 		.4byte	.LASF625
 11174 2ef4 31       		.byte	0x31
 11175 2ef5 63       		.byte	0x63
 11176 2ef6 04010000 		.4byte	0x104
 11177 2efa 1C       		.byte	0x1c
 11178 2efb 00       		.byte	0
 11179 2efc 02       		.uleb128 0x2
 11180 2efd CF080000 		.4byte	.LASF630
 11181 2f01 31       		.byte	0x31
 11182 2f02 64       		.byte	0x64
 11183 2f03 932E0000 		.4byte	0x2e93
 11184 2f07 26       		.uleb128 0x26
 11185 2f08 00100100 		.4byte	0x11000
 11186 2f0c 31       		.byte	0x31
 11187 2f0d 69       		.byte	0x69
 11188 2f0e E4310000 		.4byte	0x31e4
 11189 2f12 08       		.uleb128 0x8
 11190 2f13 B9050000 		.4byte	.LASF631
 11191 2f17 31       		.byte	0x31
 11192 2f18 6A       		.byte	0x6a
 11193 2f19 04010000 		.4byte	0x104
 11194 2f1d 00       		.byte	0
 11195 2f1e 08       		.uleb128 0x8
 11196 2f1f 340D0000 		.4byte	.LASF632
 11197 2f23 31       		.byte	0x31
 11198 2f24 6B       		.byte	0x6b
 11199 2f25 04010000 		.4byte	0x104
 11200 2f29 04       		.byte	0x4
 11201 2f2a 08       		.uleb128 0x8
 11202 2f2b 4C080000 		.4byte	.LASF633
 11203 2f2f 31       		.byte	0x31
 11204 2f30 6C       		.byte	0x6c
ARM GAS  /var/folders/bw/wdbp2_bd0pn7gl5ybd33xbb80000gn/T//ccZ5cvgj.s 			page 203


 11205 2f31 04010000 		.4byte	0x104
 11206 2f35 08       		.byte	0x8
 11207 2f36 08       		.uleb128 0x8
 11208 2f37 DB290000 		.4byte	.LASF634
 11209 2f3b 31       		.byte	0x31
 11210 2f3c 6D       		.byte	0x6d
 11211 2f3d 04010000 		.4byte	0x104
 11212 2f41 0C       		.byte	0xc
 11213 2f42 08       		.uleb128 0x8
 11214 2f43 E4150000 		.4byte	.LASF635
 11215 2f47 31       		.byte	0x31
 11216 2f48 6E       		.byte	0x6e
 11217 2f49 04010000 		.4byte	0x104
 11218 2f4d 10       		.byte	0x10
 11219 2f4e 08       		.uleb128 0x8
 11220 2f4f B70C0000 		.4byte	.LASF636
 11221 2f53 31       		.byte	0x31
 11222 2f54 6F       		.byte	0x6f
 11223 2f55 04010000 		.4byte	0x104
 11224 2f59 14       		.byte	0x14
 11225 2f5a 08       		.uleb128 0x8
 11226 2f5b 561E0000 		.4byte	.LASF637
 11227 2f5f 31       		.byte	0x31
 11228 2f60 70       		.byte	0x70
 11229 2f61 04010000 		.4byte	0x104
 11230 2f65 18       		.byte	0x18
 11231 2f66 08       		.uleb128 0x8
 11232 2f67 EA080000 		.4byte	.LASF638
 11233 2f6b 31       		.byte	0x31
 11234 2f6c 71       		.byte	0x71
 11235 2f6d 04010000 		.4byte	0x104
 11236 2f71 1C       		.byte	0x1c
 11237 2f72 08       		.uleb128 0x8
 11238 2f73 E2080000 		.4byte	.LASF639
 11239 2f77 31       		.byte	0x31
 11240 2f78 73       		.byte	0x73
 11241 2f79 04010000 		.4byte	0x104
 11242 2f7d 20       		.byte	0x20
 11243 2f7e 08       		.uleb128 0x8
 11244 2f7f D11D0000 		.4byte	.LASF640
 11245 2f83 31       		.byte	0x31
 11246 2f84 75       		.byte	0x75
 11247 2f85 04010000 		.4byte	0x104
 11248 2f89 24       		.byte	0x24
 11249 2f8a 08       		.uleb128 0x8
 11250 2f8b FB000000 		.4byte	.LASF641
 11251 2f8f 31       		.byte	0x31
 11252 2f90 76       		.byte	0x76
 11253 2f91 04010000 		.4byte	0x104
 11254 2f95 28       		.byte	0x28
 11255 2f96 08       		.uleb128 0x8
 11256 2f97 5E1E0000 		.4byte	.LASF642
 11257 2f9b 31       		.byte	0x31
 11258 2f9c 78       		.byte	0x78
 11259 2f9d 04010000 		.4byte	0x104
 11260 2fa1 2C       		.byte	0x2c
 11261 2fa2 08       		.uleb128 0x8
ARM GAS  /var/folders/bw/wdbp2_bd0pn7gl5ybd33xbb80000gn/T//ccZ5cvgj.s 			page 204


 11262 2fa3 E70F0000 		.4byte	.LASF643
 11263 2fa7 31       		.byte	0x31
 11264 2fa8 7A       		.byte	0x7a
 11265 2fa9 04010000 		.4byte	0x104
 11266 2fad 30       		.byte	0x30
 11267 2fae 08       		.uleb128 0x8
 11268 2faf F60F0000 		.4byte	.LASF644
 11269 2fb3 31       		.byte	0x31
 11270 2fb4 7B       		.byte	0x7b
 11271 2fb5 04010000 		.4byte	0x104
 11272 2fb9 34       		.byte	0x34
 11273 2fba 08       		.uleb128 0x8
 11274 2fbb 46020000 		.4byte	.LASF645
 11275 2fbf 31       		.byte	0x31
 11276 2fc0 7C       		.byte	0x7c
 11277 2fc1 04010000 		.4byte	0x104
 11278 2fc5 38       		.byte	0x38
 11279 2fc6 18       		.uleb128 0x18
 11280 2fc7 43494400 		.ascii	"CID\000"
 11281 2fcb 31       		.byte	0x31
 11282 2fcc 7D       		.byte	0x7d
 11283 2fcd 04010000 		.4byte	0x104
 11284 2fd1 3C       		.byte	0x3c
 11285 2fd2 08       		.uleb128 0x8
 11286 2fd3 CB120000 		.4byte	.LASF646
 11287 2fd7 31       		.byte	0x31
 11288 2fd8 7E       		.byte	0x7e
 11289 2fd9 F4310000 		.4byte	0x31f4
 11290 2fdd 40       		.byte	0x40
 11291 2fde 27       		.uleb128 0x27
 11292 2fdf F0260000 		.4byte	.LASF647
 11293 2fe3 31       		.byte	0x31
 11294 2fe4 7F       		.byte	0x7f
 11295 2fe5 04010000 		.4byte	0x104
 11296 2fe9 0001     		.2byte	0x100
 11297 2feb 27       		.uleb128 0x27
 11298 2fec C3020000 		.4byte	.LASF648
 11299 2ff0 31       		.byte	0x31
 11300 2ff1 81       		.byte	0x81
 11301 2ff2 840D0000 		.4byte	0xd84
 11302 2ff6 0401     		.2byte	0x104
 11303 2ff8 27       		.uleb128 0x27
 11304 2ff9 E6160000 		.4byte	.LASF649
 11305 2ffd 31       		.byte	0x31
 11306 2ffe 83       		.byte	0x83
 11307 2fff 09320000 		.4byte	0x3209
 11308 3003 4001     		.2byte	0x140
 11309 3005 27       		.uleb128 0x27
 11310 3006 571B0000 		.4byte	.LASF650
 11311 300a 31       		.byte	0x31
 11312 300b 84       		.byte	0x84
 11313 300c 04010000 		.4byte	0x104
 11314 3010 0004     		.2byte	0x400
 11315 3012 27       		.uleb128 0x27
 11316 3013 67290000 		.4byte	.LASF651
 11317 3017 31       		.byte	0x31
 11318 3018 85       		.byte	0x85
ARM GAS  /var/folders/bw/wdbp2_bd0pn7gl5ybd33xbb80000gn/T//ccZ5cvgj.s 			page 205


 11319 3019 04010000 		.4byte	0x104
 11320 301d 0404     		.2byte	0x404
 11321 301f 27       		.uleb128 0x27
 11322 3020 FC040000 		.4byte	.LASF652
 11323 3024 31       		.byte	0x31
 11324 3025 86       		.byte	0x86
 11325 3026 04010000 		.4byte	0x104
 11326 302a 0804     		.2byte	0x408
 11327 302c 27       		.uleb128 0x27
 11328 302d 5E260000 		.4byte	.LASF653
 11329 3031 31       		.byte	0x31
 11330 3032 88       		.byte	0x88
 11331 3033 04010000 		.4byte	0x104
 11332 3037 0C04     		.2byte	0x40c
 11333 3039 27       		.uleb128 0x27
 11334 303a BC030000 		.4byte	.LASF654
 11335 303e 31       		.byte	0x31
 11336 303f 89       		.byte	0x89
 11337 3040 04010000 		.4byte	0x104
 11338 3044 1004     		.2byte	0x410
 11339 3046 27       		.uleb128 0x27
 11340 3047 DD040000 		.4byte	.LASF655
 11341 304b 31       		.byte	0x31
 11342 304c 8B       		.byte	0x8b
 11343 304d 04010000 		.4byte	0x104
 11344 3051 1404     		.2byte	0x414
 11345 3053 27       		.uleb128 0x27
 11346 3054 480D0000 		.4byte	.LASF656
 11347 3058 31       		.byte	0x31
 11348 3059 8D       		.byte	0x8d
 11349 305a 04010000 		.4byte	0x104
 11350 305e 1804     		.2byte	0x418
 11351 3060 27       		.uleb128 0x27
 11352 3061 7E210000 		.4byte	.LASF657
 11353 3065 31       		.byte	0x31
 11354 3066 8F       		.byte	0x8f
 11355 3067 1E320000 		.4byte	0x321e
 11356 306b 1C04     		.2byte	0x41c
 11357 306d 27       		.uleb128 0x27
 11358 306e 3E030000 		.4byte	.LASF658
 11359 3072 31       		.byte	0x31
 11360 3073 90       		.byte	0x90
 11361 3074 04010000 		.4byte	0x104
 11362 3078 4004     		.2byte	0x440
 11363 307a 27       		.uleb128 0x27
 11364 307b D1230000 		.4byte	.LASF659
 11365 307f 31       		.byte	0x31
 11366 3080 92       		.byte	0x92
 11367 3081 33320000 		.4byte	0x3233
 11368 3085 4404     		.2byte	0x444
 11369 3087 28       		.uleb128 0x28
 11370 3088 686300   		.ascii	"hc\000"
 11371 308b 31       		.byte	0x31
 11372 308c 93       		.byte	0x93
 11373 308d 38320000 		.4byte	0x3238
 11374 3091 0005     		.2byte	0x500
 11375 3093 27       		.uleb128 0x27
ARM GAS  /var/folders/bw/wdbp2_bd0pn7gl5ybd33xbb80000gn/T//ccZ5cvgj.s 			page 206


 11376 3094 9D260000 		.4byte	.LASF660
 11377 3098 31       		.byte	0x31
 11378 3099 94       		.byte	0x94
 11379 309a 58320000 		.4byte	0x3258
 11380 309e 0007     		.2byte	0x700
 11381 30a0 27       		.uleb128 0x27
 11382 30a1 401E0000 		.4byte	.LASF661
 11383 30a5 31       		.byte	0x31
 11384 30a6 95       		.byte	0x95
 11385 30a7 04010000 		.4byte	0x104
 11386 30ab 0008     		.2byte	0x800
 11387 30ad 27       		.uleb128 0x27
 11388 30ae BD270000 		.4byte	.LASF662
 11389 30b2 31       		.byte	0x31
 11390 30b3 96       		.byte	0x96
 11391 30b4 04010000 		.4byte	0x104
 11392 30b8 0408     		.2byte	0x804
 11393 30ba 27       		.uleb128 0x27
 11394 30bb 7E060000 		.4byte	.LASF663
 11395 30bf 31       		.byte	0x31
 11396 30c0 97       		.byte	0x97
 11397 30c1 04010000 		.4byte	0x104
 11398 30c5 0808     		.2byte	0x808
 11399 30c7 27       		.uleb128 0x27
 11400 30c8 A2050000 		.4byte	.LASF664
 11401 30cc 31       		.byte	0x31
 11402 30cd 98       		.byte	0x98
 11403 30ce 04010000 		.4byte	0x104
 11404 30d2 0C08     		.2byte	0x80c
 11405 30d4 27       		.uleb128 0x27
 11406 30d5 2C0D0000 		.4byte	.LASF665
 11407 30d9 31       		.byte	0x31
 11408 30da 99       		.byte	0x99
 11409 30db 04010000 		.4byte	0x104
 11410 30df 1008     		.2byte	0x810
 11411 30e1 27       		.uleb128 0x27
 11412 30e2 01250000 		.4byte	.LASF666
 11413 30e6 31       		.byte	0x31
 11414 30e7 9B       		.byte	0x9b
 11415 30e8 04010000 		.4byte	0x104
 11416 30ec 1408     		.2byte	0x814
 11417 30ee 27       		.uleb128 0x27
 11418 30ef 87250000 		.4byte	.LASF667
 11419 30f3 31       		.byte	0x31
 11420 30f4 9D       		.byte	0x9d
 11421 30f5 04010000 		.4byte	0x104
 11422 30f9 1808     		.2byte	0x818
 11423 30fb 27       		.uleb128 0x27
 11424 30fc 5C220000 		.4byte	.LASF668
 11425 3100 31       		.byte	0x31
 11426 3101 9F       		.byte	0x9f
 11427 3102 04010000 		.4byte	0x104
 11428 3106 1C08     		.2byte	0x81c
 11429 3108 27       		.uleb128 0x27
 11430 3109 F1060000 		.4byte	.LASF669
 11431 310d 31       		.byte	0x31
 11432 310e A1       		.byte	0xa1
ARM GAS  /var/folders/bw/wdbp2_bd0pn7gl5ybd33xbb80000gn/T//ccZ5cvgj.s 			page 207


 11433 310f 04010000 		.4byte	0x104
 11434 3113 2008     		.2byte	0x820
 11435 3115 27       		.uleb128 0x27
 11436 3116 E8050000 		.4byte	.LASF670
 11437 311a 31       		.byte	0x31
 11438 311b A2       		.byte	0xa2
 11439 311c 04010000 		.4byte	0x104
 11440 3120 2408     		.2byte	0x824
 11441 3122 27       		.uleb128 0x27
 11442 3123 4D1E0000 		.4byte	.LASF671
 11443 3127 31       		.byte	0x31
 11444 3128 A3       		.byte	0xa3
 11445 3129 04010000 		.4byte	0x104
 11446 312d 2808     		.2byte	0x828
 11447 312f 27       		.uleb128 0x27
 11448 3130 FE0F0000 		.4byte	.LASF672
 11449 3134 31       		.byte	0x31
 11450 3135 A5       		.byte	0xa5
 11451 3136 04010000 		.4byte	0x104
 11452 313a 2C08     		.2byte	0x82c
 11453 313c 27       		.uleb128 0x27
 11454 313d 84070000 		.4byte	.LASF673
 11455 3141 31       		.byte	0x31
 11456 3142 A7       		.byte	0xa7
 11457 3143 04010000 		.4byte	0x104
 11458 3147 3008     		.2byte	0x830
 11459 3149 27       		.uleb128 0x27
 11460 314a ED0E0000 		.4byte	.LASF674
 11461 314e 31       		.byte	0x31
 11462 314f A8       		.byte	0xa8
 11463 3150 04010000 		.4byte	0x104
 11464 3154 3408     		.2byte	0x834
 11465 3156 27       		.uleb128 0x27
 11466 3157 97070000 		.4byte	.LASF675
 11467 315b 31       		.byte	0x31
 11468 315c AA       		.byte	0xaa
 11469 315d 04010000 		.4byte	0x104
 11470 3161 3808     		.2byte	0x838
 11471 3163 27       		.uleb128 0x27
 11472 3164 B6070000 		.4byte	.LASF676
 11473 3168 31       		.byte	0x31
 11474 3169 AB       		.byte	0xab
 11475 316a 04010000 		.4byte	0x104
 11476 316e 3C08     		.2byte	0x83c
 11477 3170 27       		.uleb128 0x27
 11478 3171 6A080000 		.4byte	.LASF677
 11479 3175 31       		.byte	0x31
 11480 3176 AC       		.byte	0xac
 11481 3177 6D320000 		.4byte	0x326d
 11482 317b 4008     		.2byte	0x840
 11483 317d 27       		.uleb128 0x27
 11484 317e 720E0000 		.4byte	.LASF678
 11485 3182 31       		.byte	0x31
 11486 3183 AD       		.byte	0xad
 11487 3184 6D320000 		.4byte	0x326d
 11488 3188 8008     		.2byte	0x880
 11489 318a 27       		.uleb128 0x27
ARM GAS  /var/folders/bw/wdbp2_bd0pn7gl5ybd33xbb80000gn/T//ccZ5cvgj.s 			page 208


 11490 318b 13140000 		.4byte	.LASF679
 11491 318f 31       		.byte	0x31
 11492 3190 AE       		.byte	0xae
 11493 3191 6D320000 		.4byte	0x326d
 11494 3195 C008     		.2byte	0x8c0
 11495 3197 28       		.uleb128 0x28
 11496 3198 696500   		.ascii	"ie\000"
 11497 319b 31       		.byte	0x31
 11498 319c AF       		.byte	0xaf
 11499 319d 72320000 		.4byte	0x3272
 11500 31a1 0009     		.2byte	0x900
 11501 31a3 28       		.uleb128 0x28
 11502 31a4 6F6500   		.ascii	"oe\000"
 11503 31a7 31       		.byte	0x31
 11504 31a8 B0       		.byte	0xb0
 11505 31a9 82320000 		.4byte	0x3282
 11506 31ad 000B     		.2byte	0xb00
 11507 31af 27       		.uleb128 0x27
 11508 31b0 940C0000 		.4byte	.LASF680
 11509 31b4 31       		.byte	0x31
 11510 31b5 B1       		.byte	0xb1
 11511 31b6 58320000 		.4byte	0x3258
 11512 31ba 000D     		.2byte	0xd00
 11513 31bc 27       		.uleb128 0x27
 11514 31bd D5270000 		.4byte	.LASF681
 11515 31c1 31       		.byte	0x31
 11516 31c2 B2       		.byte	0xb2
 11517 31c3 04010000 		.4byte	0x104
 11518 31c7 000E     		.2byte	0xe00
 11519 31c9 27       		.uleb128 0x27
 11520 31ca D41A0000 		.4byte	.LASF682
 11521 31ce 31       		.byte	0x31
 11522 31cf B4       		.byte	0xb4
 11523 31d0 A2320000 		.4byte	0x32a2
 11524 31d4 040E     		.2byte	0xe04
 11525 31d6 27       		.uleb128 0x27
 11526 31d7 660A0000 		.4byte	.LASF182
 11527 31db 31       		.byte	0x31
 11528 31dc B5       		.byte	0xb5
 11529 31dd BE320000 		.4byte	0x32be
 11530 31e1 0010     		.2byte	0x1000
 11531 31e3 00       		.byte	0
 11532 31e4 13       		.uleb128 0x13
 11533 31e5 04010000 		.4byte	0x104
 11534 31e9 F4310000 		.4byte	0x31f4
 11535 31ed 14       		.uleb128 0x14
 11536 31ee B1000000 		.4byte	0xb1
 11537 31f2 2F       		.byte	0x2f
 11538 31f3 00       		.byte	0
 11539 31f4 06       		.uleb128 0x6
 11540 31f5 E4310000 		.4byte	0x31e4
 11541 31f9 13       		.uleb128 0x13
 11542 31fa 04010000 		.4byte	0x104
 11543 31fe 09320000 		.4byte	0x3209
 11544 3202 14       		.uleb128 0x14
 11545 3203 B1000000 		.4byte	0xb1
 11546 3207 AF       		.byte	0xaf
ARM GAS  /var/folders/bw/wdbp2_bd0pn7gl5ybd33xbb80000gn/T//ccZ5cvgj.s 			page 209


 11547 3208 00       		.byte	0
 11548 3209 06       		.uleb128 0x6
 11549 320a F9310000 		.4byte	0x31f9
 11550 320e 13       		.uleb128 0x13
 11551 320f 04010000 		.4byte	0x104
 11552 3213 1E320000 		.4byte	0x321e
 11553 3217 14       		.uleb128 0x14
 11554 3218 B1000000 		.4byte	0xb1
 11555 321c 08       		.byte	0x8
 11556 321d 00       		.byte	0
 11557 321e 06       		.uleb128 0x6
 11558 321f 0E320000 		.4byte	0x320e
 11559 3223 13       		.uleb128 0x13
 11560 3224 04010000 		.4byte	0x104
 11561 3228 33320000 		.4byte	0x3233
 11562 322c 14       		.uleb128 0x14
 11563 322d B1000000 		.4byte	0xb1
 11564 3231 2E       		.byte	0x2e
 11565 3232 00       		.byte	0
 11566 3233 06       		.uleb128 0x6
 11567 3234 23320000 		.4byte	0x3223
 11568 3238 13       		.uleb128 0x13
 11569 3239 142E0000 		.4byte	0x2e14
 11570 323d 48320000 		.4byte	0x3248
 11571 3241 14       		.uleb128 0x14
 11572 3242 B1000000 		.4byte	0xb1
 11573 3246 0F       		.byte	0xf
 11574 3247 00       		.byte	0
 11575 3248 13       		.uleb128 0x13
 11576 3249 04010000 		.4byte	0x104
 11577 324d 58320000 		.4byte	0x3258
 11578 3251 14       		.uleb128 0x14
 11579 3252 B1000000 		.4byte	0xb1
 11580 3256 3F       		.byte	0x3f
 11581 3257 00       		.byte	0
 11582 3258 06       		.uleb128 0x6
 11583 3259 48320000 		.4byte	0x3248
 11584 325d 13       		.uleb128 0x13
 11585 325e 04010000 		.4byte	0x104
 11586 3262 6D320000 		.4byte	0x326d
 11587 3266 14       		.uleb128 0x14
 11588 3267 B1000000 		.4byte	0xb1
 11589 326b 0F       		.byte	0xf
 11590 326c 00       		.byte	0
 11591 326d 06       		.uleb128 0x6
 11592 326e 5D320000 		.4byte	0x325d
 11593 3272 13       		.uleb128 0x13
 11594 3273 882E0000 		.4byte	0x2e88
 11595 3277 82320000 		.4byte	0x3282
 11596 327b 14       		.uleb128 0x14
 11597 327c B1000000 		.4byte	0xb1
 11598 3280 0F       		.byte	0xf
 11599 3281 00       		.byte	0
 11600 3282 13       		.uleb128 0x13
 11601 3283 FC2E0000 		.4byte	0x2efc
 11602 3287 92320000 		.4byte	0x3292
 11603 328b 14       		.uleb128 0x14
ARM GAS  /var/folders/bw/wdbp2_bd0pn7gl5ybd33xbb80000gn/T//ccZ5cvgj.s 			page 210


 11604 328c B1000000 		.4byte	0xb1
 11605 3290 0F       		.byte	0xf
 11606 3291 00       		.byte	0
 11607 3292 13       		.uleb128 0x13
 11608 3293 04010000 		.4byte	0x104
 11609 3297 A2320000 		.4byte	0x32a2
 11610 329b 14       		.uleb128 0x14
 11611 329c B1000000 		.4byte	0xb1
 11612 32a0 7E       		.byte	0x7e
 11613 32a1 00       		.byte	0
 11614 32a2 06       		.uleb128 0x6
 11615 32a3 92320000 		.4byte	0x3292
 11616 32a7 13       		.uleb128 0x13
 11617 32a8 04010000 		.4byte	0x104
 11618 32ac BE320000 		.4byte	0x32be
 11619 32b0 14       		.uleb128 0x14
 11620 32b1 B1000000 		.4byte	0xb1
 11621 32b5 0F       		.byte	0xf
 11622 32b6 29       		.uleb128 0x29
 11623 32b7 B1000000 		.4byte	0xb1
 11624 32bb FF03     		.2byte	0x3ff
 11625 32bd 00       		.byte	0
 11626 32be 06       		.uleb128 0x6
 11627 32bf A7320000 		.4byte	0x32a7
 11628 32c3 02       		.uleb128 0x2
 11629 32c4 082A0000 		.4byte	.LASF683
 11630 32c8 31       		.byte	0x31
 11631 32c9 B6       		.byte	0xb6
 11632 32ca 072F0000 		.4byte	0x2f07
 11633 32ce 17       		.uleb128 0x17
 11634 32cf 0C       		.byte	0xc
 11635 32d0 30       		.byte	0x30
 11636 32d1 C6       		.byte	0xc6
 11637 32d2 FB320000 		.4byte	0x32fb
 11638 32d6 08       		.uleb128 0x8
 11639 32d7 F7090000 		.4byte	.LASF684
 11640 32db 30       		.byte	0x30
 11641 32dc C7       		.byte	0xc7
 11642 32dd F9000000 		.4byte	0xf9
 11643 32e1 00       		.byte	0
 11644 32e2 08       		.uleb128 0x8
 11645 32e3 580C0000 		.4byte	.LASF685
 11646 32e7 30       		.byte	0x30
 11647 32e8 C8       		.byte	0xc8
 11648 32e9 F9000000 		.4byte	0xf9
 11649 32ed 04       		.byte	0x4
 11650 32ee 08       		.uleb128 0x8
 11651 32ef 5E100000 		.4byte	.LASF686
 11652 32f3 30       		.byte	0x30
 11653 32f4 C9       		.byte	0xc9
 11654 32f5 F9000000 		.4byte	0xf9
 11655 32f9 08       		.byte	0x8
 11656 32fa 00       		.byte	0
 11657 32fb 02       		.uleb128 0x2
 11658 32fc 810C0000 		.4byte	.LASF687
 11659 3300 30       		.byte	0x30
 11660 3301 CA       		.byte	0xca
ARM GAS  /var/folders/bw/wdbp2_bd0pn7gl5ybd33xbb80000gn/T//ccZ5cvgj.s 			page 211


 11661 3302 CE320000 		.4byte	0x32ce
 11662 3306 05       		.uleb128 0x5
 11663 3307 FB320000 		.4byte	0x32fb
 11664 330b 17       		.uleb128 0x17
 11665 330c 04       		.byte	0x4
 11666 330d 30       		.byte	0x30
 11667 330e DD       		.byte	0xdd
 11668 330f 20330000 		.4byte	0x3320
 11669 3313 08       		.uleb128 0x8
 11670 3314 CF270000 		.4byte	.LASF688
 11671 3318 30       		.byte	0x30
 11672 3319 E1       		.byte	0xe1
 11673 331a BD130000 		.4byte	0x13bd
 11674 331e 00       		.byte	0
 11675 331f 00       		.byte	0
 11676 3320 17       		.uleb128 0x17
 11677 3321 04       		.byte	0x4
 11678 3322 30       		.byte	0x30
 11679 3323 E3       		.byte	0xe3
 11680 3324 35330000 		.4byte	0x3335
 11681 3328 08       		.uleb128 0x8
 11682 3329 750A0000 		.4byte	.LASF373
 11683 332d 30       		.byte	0x30
 11684 332e E7       		.byte	0xe7
 11685 332f 35330000 		.4byte	0x3335
 11686 3333 00       		.byte	0
 11687 3334 00       		.byte	0
 11688 3335 0B       		.uleb128 0xb
 11689 3336 04       		.byte	0x4
 11690 3337 99130000 		.4byte	0x1399
 11691 333b 1D       		.uleb128 0x1d
 11692 333c 04       		.byte	0x4
 11693 333d 30       		.byte	0x30
 11694 333e DC       		.byte	0xdc
 11695 333f 5A330000 		.4byte	0x335a
 11696 3343 2A       		.uleb128 0x2a
 11697 3344 19240000 		.4byte	.LASF689
 11698 3348 30       		.byte	0x30
 11699 3349 E2       		.byte	0xe2
 11700 334a 0B330000 		.4byte	0x330b
 11701 334e 2A       		.uleb128 0x2a
 11702 334f D1220000 		.4byte	.LASF690
 11703 3353 30       		.byte	0x30
 11704 3354 E8       		.byte	0xe8
 11705 3355 20330000 		.4byte	0x3320
 11706 3359 00       		.byte	0
 11707 335a 17       		.uleb128 0x17
 11708 335b 14       		.byte	0x14
 11709 335c 30       		.byte	0x30
 11710 335d CF       		.byte	0xcf
 11711 335e 9F330000 		.4byte	0x339f
 11712 3362 08       		.uleb128 0x8
 11713 3363 B3080000 		.4byte	.LASF691
 11714 3367 30       		.byte	0x30
 11715 3368 D3       		.byte	0xd3
 11716 3369 A4150000 		.4byte	0x15a4
 11717 336d 00       		.byte	0
ARM GAS  /var/folders/bw/wdbp2_bd0pn7gl5ybd33xbb80000gn/T//ccZ5cvgj.s 			page 212


 11718 336e 08       		.uleb128 0x8
 11719 336f 5B150000 		.4byte	.LASF692
 11720 3373 30       		.byte	0x30
 11721 3374 D7       		.byte	0xd7
 11722 3375 19010000 		.4byte	0x119
 11723 3379 04       		.byte	0x4
 11724 337a 08       		.uleb128 0x8
 11725 337b 0C0C0000 		.4byte	.LASF693
 11726 337f 30       		.byte	0x30
 11727 3380 DB       		.byte	0xdb
 11728 3381 19010000 		.4byte	0x119
 11729 3385 08       		.byte	0x8
 11730 3386 08       		.uleb128 0x8
 11731 3387 6B090000 		.4byte	.LASF419
 11732 338b 30       		.byte	0x30
 11733 338c E9       		.byte	0xe9
 11734 338d 3B330000 		.4byte	0x333b
 11735 3391 0C       		.byte	0xc
 11736 3392 08       		.uleb128 0x8
 11737 3393 76100000 		.4byte	.LASF694
 11738 3397 30       		.byte	0x30
 11739 3398 ED       		.byte	0xed
 11740 3399 19010000 		.4byte	0x119
 11741 339d 10       		.byte	0x10
 11742 339e 00       		.byte	0
 11743 339f 02       		.uleb128 0x2
 11744 33a0 D3120000 		.4byte	.LASF695
 11745 33a4 30       		.byte	0x30
 11746 33a5 EE       		.byte	0xee
 11747 33a6 5A330000 		.4byte	0x335a
 11748 33aa 19       		.uleb128 0x19
 11749 33ab 04       		.byte	0x4
 11750 33ac 30       		.byte	0x30
 11751 33ad 0101     		.2byte	0x101
 11752 33af C1330000 		.4byte	0x33c1
 11753 33b3 0A       		.uleb128 0xa
 11754 33b4 A40C0000 		.4byte	.LASF696
 11755 33b8 30       		.byte	0x30
 11756 33b9 0501     		.2byte	0x105
 11757 33bb 88130000 		.4byte	0x1388
 11758 33bf 00       		.byte	0
 11759 33c0 00       		.byte	0
 11760 33c1 19       		.uleb128 0x19
 11761 33c2 04       		.byte	0x4
 11762 33c3 30       		.byte	0x30
 11763 33c4 0701     		.2byte	0x107
 11764 33c6 D8330000 		.4byte	0x33d8
 11765 33ca 0A       		.uleb128 0xa
 11766 33cb C1230000 		.4byte	.LASF374
 11767 33cf 30       		.byte	0x30
 11768 33d0 0B01     		.2byte	0x10b
 11769 33d2 D8330000 		.4byte	0x33d8
 11770 33d6 00       		.byte	0
 11771 33d7 00       		.byte	0
 11772 33d8 0B       		.uleb128 0xb
 11773 33d9 04       		.byte	0x4
 11774 33da 8E130000 		.4byte	0x138e
ARM GAS  /var/folders/bw/wdbp2_bd0pn7gl5ybd33xbb80000gn/T//ccZ5cvgj.s 			page 213


 11775 33de 2B       		.uleb128 0x2b
 11776 33df 04       		.byte	0x4
 11777 33e0 30       		.byte	0x30
 11778 33e1 0001     		.2byte	0x100
 11779 33e3 00340000 		.4byte	0x3400
 11780 33e7 1E       		.uleb128 0x1e
 11781 33e8 19240000 		.4byte	.LASF689
 11782 33ec 30       		.byte	0x30
 11783 33ed 0601     		.2byte	0x106
 11784 33ef AA330000 		.4byte	0x33aa
 11785 33f3 1E       		.uleb128 0x1e
 11786 33f4 D1220000 		.4byte	.LASF690
 11787 33f8 30       		.byte	0x30
 11788 33f9 0C01     		.2byte	0x10c
 11789 33fb C1330000 		.4byte	0x33c1
 11790 33ff 00       		.byte	0
 11791 3400 17       		.uleb128 0x17
 11792 3401 14       		.byte	0x14
 11793 3402 30       		.byte	0x30
 11794 3403 F3       		.byte	0xf3
 11795 3404 47340000 		.4byte	0x3447
 11796 3408 08       		.uleb128 0x8
 11797 3409 BF060000 		.4byte	.LASF697
 11798 340d 30       		.byte	0x30
 11799 340e F7       		.byte	0xf7
 11800 340f A4150000 		.4byte	0x15a4
 11801 3413 00       		.byte	0
 11802 3414 08       		.uleb128 0x8
 11803 3415 58160000 		.4byte	.LASF698
 11804 3419 30       		.byte	0x30
 11805 341a FB       		.byte	0xfb
 11806 341b 19010000 		.4byte	0x119
 11807 341f 04       		.byte	0x4
 11808 3420 08       		.uleb128 0x8
 11809 3421 46090000 		.4byte	.LASF699
 11810 3425 30       		.byte	0x30
 11811 3426 FF       		.byte	0xff
 11812 3427 19010000 		.4byte	0x119
 11813 342b 08       		.byte	0x8
 11814 342c 0A       		.uleb128 0xa
 11815 342d 6B090000 		.4byte	.LASF419
 11816 3431 30       		.byte	0x30
 11817 3432 0D01     		.2byte	0x10d
 11818 3434 DE330000 		.4byte	0x33de
 11819 3438 0C       		.byte	0xc
 11820 3439 0A       		.uleb128 0xa
 11821 343a 76100000 		.4byte	.LASF694
 11822 343e 30       		.byte	0x30
 11823 343f 1101     		.2byte	0x111
 11824 3441 19010000 		.4byte	0x119
 11825 3445 10       		.byte	0x10
 11826 3446 00       		.byte	0
 11827 3447 1A       		.uleb128 0x1a
 11828 3448 59210000 		.4byte	.LASF700
 11829 344c 30       		.byte	0x30
 11830 344d 1201     		.2byte	0x112
 11831 344f 00340000 		.4byte	0x3400
ARM GAS  /var/folders/bw/wdbp2_bd0pn7gl5ybd33xbb80000gn/T//ccZ5cvgj.s 			page 214


 11832 3453 19       		.uleb128 0x19
 11833 3454 24       		.byte	0x24
 11834 3455 30       		.byte	0x30
 11835 3456 1801     		.2byte	0x118
 11836 3458 DF340000 		.4byte	0x34df
 11837 345c 0A       		.uleb128 0xa
 11838 345d 9A1A0000 		.4byte	.LASF701
 11839 3461 30       		.byte	0x30
 11840 3462 1C01     		.2byte	0x11c
 11841 3464 F9000000 		.4byte	0xf9
 11842 3468 00       		.byte	0
 11843 3469 0A       		.uleb128 0xa
 11844 346a 470A0000 		.4byte	.LASF702
 11845 346e 30       		.byte	0x30
 11846 346f 2701     		.2byte	0x127
 11847 3471 102D0000 		.4byte	0x2d10
 11848 3475 04       		.byte	0x4
 11849 3476 0A       		.uleb128 0xa
 11850 3477 B71B0000 		.4byte	.LASF703
 11851 347b 30       		.byte	0x30
 11852 347c 2D01     		.2byte	0x12d
 11853 347e 102D0000 		.4byte	0x2d10
 11854 3482 08       		.byte	0x8
 11855 3483 0A       		.uleb128 0xa
 11856 3484 410D0000 		.4byte	.LASF704
 11857 3488 30       		.byte	0x30
 11858 3489 3301     		.2byte	0x133
 11859 348b 102D0000 		.4byte	0x2d10
 11860 348f 0C       		.byte	0xc
 11861 3490 0A       		.uleb128 0xa
 11862 3491 552A0000 		.4byte	.LASF705
 11863 3495 30       		.byte	0x30
 11864 3496 3901     		.2byte	0x139
 11865 3498 DE000000 		.4byte	0xde
 11866 349c 10       		.byte	0x10
 11867 349d 0A       		.uleb128 0xa
 11868 349e A70D0000 		.4byte	.LASF706
 11869 34a2 30       		.byte	0x30
 11870 34a3 3F01     		.2byte	0x13f
 11871 34a5 DE000000 		.4byte	0xde
 11872 34a9 12       		.byte	0x12
 11873 34aa 0A       		.uleb128 0xa
 11874 34ab D8280000 		.4byte	.LASF707
 11875 34af 30       		.byte	0x30
 11876 34b0 4401     		.2byte	0x144
 11877 34b2 DF340000 		.4byte	0x34df
 11878 34b6 14       		.byte	0x14
 11879 34b7 0A       		.uleb128 0xa
 11880 34b8 450F0000 		.4byte	.LASF708
 11881 34bc 30       		.byte	0x30
 11882 34bd 4901     		.2byte	0x149
 11883 34bf E5340000 		.4byte	0x34e5
 11884 34c3 18       		.byte	0x18
 11885 34c4 0A       		.uleb128 0xa
 11886 34c5 9D140000 		.4byte	.LASF709
 11887 34c9 30       		.byte	0x30
 11888 34ca 5001     		.2byte	0x150
ARM GAS  /var/folders/bw/wdbp2_bd0pn7gl5ybd33xbb80000gn/T//ccZ5cvgj.s 			page 215


 11889 34cc DE000000 		.4byte	0xde
 11890 34d0 1C       		.byte	0x1c
 11891 34d1 0A       		.uleb128 0xa
 11892 34d2 1A280000 		.4byte	.LASF710
 11893 34d6 30       		.byte	0x30
 11894 34d7 5601     		.2byte	0x156
 11895 34d9 88130000 		.4byte	0x1388
 11896 34dd 20       		.byte	0x20
 11897 34de 00       		.byte	0
 11898 34df 0B       		.uleb128 0xb
 11899 34e0 04       		.byte	0x4
 11900 34e1 9F330000 		.4byte	0x339f
 11901 34e5 0B       		.uleb128 0xb
 11902 34e6 04       		.byte	0x4
 11903 34e7 47340000 		.4byte	0x3447
 11904 34eb 1A       		.uleb128 0x1a
 11905 34ec 91230000 		.4byte	.LASF711
 11906 34f0 30       		.byte	0x30
 11907 34f1 5701     		.2byte	0x157
 11908 34f3 53340000 		.4byte	0x3453
 11909 34f7 05       		.uleb128 0x5
 11910 34f8 EB340000 		.4byte	0x34eb
 11911 34fc 19       		.uleb128 0x19
 11912 34fd 10       		.byte	0x10
 11913 34fe 30       		.byte	0x30
 11914 34ff 5C01     		.2byte	0x15c
 11915 3501 3A350000 		.4byte	0x353a
 11916 3505 0A       		.uleb128 0xa
 11917 3506 AB050000 		.4byte	.LASF712
 11918 350a 30       		.byte	0x30
 11919 350b 6101     		.2byte	0x161
 11920 350d 322D0000 		.4byte	0x2d32
 11921 3511 00       		.byte	0
 11922 3512 0A       		.uleb128 0xa
 11923 3513 63270000 		.4byte	.LASF713
 11924 3517 30       		.byte	0x30
 11925 3518 6601     		.2byte	0x166
 11926 351a 752D0000 		.4byte	0x2d75
 11927 351e 04       		.byte	0x4
 11928 351f 0A       		.uleb128 0xa
 11929 3520 2D150000 		.4byte	.LASF714
 11930 3524 30       		.byte	0x30
 11931 3525 6C01     		.2byte	0x16c
 11932 3527 542D0000 		.4byte	0x2d54
 11933 352b 08       		.byte	0x8
 11934 352c 0A       		.uleb128 0xa
 11935 352d 90020000 		.4byte	.LASF715
 11936 3531 30       		.byte	0x30
 11937 3532 7001     		.2byte	0x170
 11938 3534 ED2C0000 		.4byte	0x2ced
 11939 3538 0C       		.byte	0xc
 11940 3539 00       		.byte	0
 11941 353a 1A       		.uleb128 0x1a
 11942 353b 1C140000 		.4byte	.LASF716
 11943 353f 30       		.byte	0x30
 11944 3540 7201     		.2byte	0x172
 11945 3542 FC340000 		.4byte	0x34fc
ARM GAS  /var/folders/bw/wdbp2_bd0pn7gl5ybd33xbb80000gn/T//ccZ5cvgj.s 			page 216


 11946 3546 05       		.uleb128 0x5
 11947 3547 3A350000 		.4byte	0x353a
 11948 354b 0B       		.uleb128 0xb
 11949 354c 04       		.byte	0x4
 11950 354d 46350000 		.4byte	0x3546
 11951 3551 13       		.uleb128 0x13
 11952 3552 61350000 		.4byte	0x3561
 11953 3556 61350000 		.4byte	0x3561
 11954 355a 14       		.uleb128 0x14
 11955 355b B1000000 		.4byte	0xb1
 11956 355f 03       		.byte	0x3
 11957 3560 00       		.byte	0
 11958 3561 0B       		.uleb128 0xb
 11959 3562 04       		.byte	0x4
 11960 3563 F7340000 		.4byte	0x34f7
 11961 3567 13       		.uleb128 0x13
 11962 3568 D0030000 		.4byte	0x3d0
 11963 356c 77350000 		.4byte	0x3577
 11964 3570 14       		.uleb128 0x14
 11965 3571 B1000000 		.4byte	0xb1
 11966 3575 02       		.byte	0x2
 11967 3576 00       		.byte	0
 11968 3577 0B       		.uleb128 0xb
 11969 3578 04       		.byte	0x4
 11970 3579 C3320000 		.4byte	0x32c3
 11971 357d 0B       		.uleb128 0xb
 11972 357e 04       		.byte	0x4
 11973 357f 06330000 		.4byte	0x3306
 11974 3583 13       		.uleb128 0x13
 11975 3584 940D0000 		.4byte	0xd94
 11976 3588 93350000 		.4byte	0x3593
 11977 358c 14       		.uleb128 0x14
 11978 358d B1000000 		.4byte	0xb1
 11979 3591 3E       		.byte	0x3e
 11980 3592 00       		.byte	0
 11981 3593 15       		.uleb128 0x15
 11982 3594 04010000 		.4byte	.LASF717
 11983 3598 30       		.byte	0x30
 11984 3599 0602     		.2byte	0x206
 11985 359b B92A0000 		.4byte	0x2ab9
 11986 359f 21       		.uleb128 0x21
 11987 35a0 07       		.byte	0x7
 11988 35a1 01       		.byte	0x1
 11989 35a2 42000000 		.4byte	0x42
 11990 35a6 32       		.byte	0x32
 11991 35a7 83       		.byte	0x83
 11992 35a8 B9350000 		.4byte	0x35b9
 11993 35ac 22       		.uleb128 0x22
 11994 35ad 2A280000 		.4byte	.LASF718
 11995 35b1 00       		.byte	0
 11996 35b2 22       		.uleb128 0x22
 11997 35b3 261D0000 		.4byte	.LASF719
 11998 35b7 01       		.byte	0x1
 11999 35b8 00       		.byte	0
 12000 35b9 02       		.uleb128 0x2
 12001 35ba 7B280000 		.4byte	.LASF720
 12002 35be 32       		.byte	0x32
ARM GAS  /var/folders/bw/wdbp2_bd0pn7gl5ybd33xbb80000gn/T//ccZ5cvgj.s 			page 217


 12003 35bf 86       		.byte	0x86
 12004 35c0 9F350000 		.4byte	0x359f
 12005 35c4 21       		.uleb128 0x21
 12006 35c5 07       		.byte	0x7
 12007 35c6 01       		.byte	0x1
 12008 35c7 42000000 		.4byte	0x42
 12009 35cb 32       		.byte	0x32
 12010 35cc 8B       		.byte	0x8b
 12011 35cd 02360000 		.4byte	0x3602
 12012 35d1 22       		.uleb128 0x22
 12013 35d2 5C070000 		.4byte	.LASF721
 12014 35d6 00       		.byte	0
 12015 35d7 22       		.uleb128 0x22
 12016 35d8 B2030000 		.4byte	.LASF722
 12017 35dc 01       		.byte	0x1
 12018 35dd 22       		.uleb128 0x22
 12019 35de 20240000 		.4byte	.LASF723
 12020 35e2 02       		.byte	0x2
 12021 35e3 22       		.uleb128 0x22
 12022 35e4 65220000 		.4byte	.LASF724
 12023 35e8 03       		.byte	0x3
 12024 35e9 22       		.uleb128 0x22
 12025 35ea 89000000 		.4byte	.LASF725
 12026 35ee 04       		.byte	0x4
 12027 35ef 22       		.uleb128 0x22
 12028 35f0 05080000 		.4byte	.LASF726
 12029 35f4 05       		.byte	0x5
 12030 35f5 22       		.uleb128 0x22
 12031 35f6 DA140000 		.4byte	.LASF727
 12032 35fa 06       		.byte	0x6
 12033 35fb 22       		.uleb128 0x22
 12034 35fc B91C0000 		.4byte	.LASF728
 12035 3600 07       		.byte	0x7
 12036 3601 00       		.byte	0
 12037 3602 02       		.uleb128 0x2
 12038 3603 2E1A0000 		.4byte	.LASF729
 12039 3607 32       		.byte	0x32
 12040 3608 94       		.byte	0x94
 12041 3609 C4350000 		.4byte	0x35c4
 12042 360d 02       		.uleb128 0x2
 12043 360e 5C290000 		.4byte	.LASF730
 12044 3612 32       		.byte	0x32
 12045 3613 99       		.byte	0x99
 12046 3614 18360000 		.4byte	0x3618
 12047 3618 07       		.uleb128 0x7
 12048 3619 5C290000 		.4byte	.LASF730
 12049 361d 14       		.byte	0x14
 12050 361e 32       		.byte	0x32
 12051 361f C3       		.byte	0xc3
 12052 3620 61360000 		.4byte	0x3661
 12053 3624 08       		.uleb128 0x8
 12054 3625 1A190000 		.4byte	.LASF340
 12055 3629 32       		.byte	0x32
 12056 362a C7       		.byte	0xc7
 12057 362b 02360000 		.4byte	0x3602
 12058 362f 00       		.byte	0
 12059 3630 08       		.uleb128 0x8
ARM GAS  /var/folders/bw/wdbp2_bd0pn7gl5ybd33xbb80000gn/T//ccZ5cvgj.s 			page 218


 12060 3631 13200000 		.4byte	.LASF341
 12061 3635 32       		.byte	0x32
 12062 3636 CB       		.byte	0xcb
 12063 3637 EC360000 		.4byte	0x36ec
 12064 363b 04       		.byte	0x4
 12065 363c 08       		.uleb128 0x8
 12066 363d C9250000 		.4byte	.LASF731
 12067 3641 32       		.byte	0x32
 12068 3642 CF       		.byte	0xcf
 12069 3643 F2360000 		.4byte	0x36f2
 12070 3647 08       		.byte	0x8
 12071 3648 08       		.uleb128 0x8
 12072 3649 AA0B0000 		.4byte	.LASF347
 12073 364d 32       		.byte	0x32
 12074 364e D3       		.byte	0xd3
 12075 364f 5E1A0000 		.4byte	0x1a5e
 12076 3653 0C       		.byte	0xc
 12077 3654 08       		.uleb128 0x8
 12078 3655 5C1B0000 		.4byte	.LASF348
 12079 3659 32       		.byte	0x32
 12080 365a D7       		.byte	0xd7
 12081 365b F9000000 		.4byte	0xf9
 12082 365f 10       		.byte	0x10
 12083 3660 00       		.byte	0
 12084 3661 02       		.uleb128 0x2
 12085 3662 F80E0000 		.4byte	.LASF732
 12086 3666 32       		.byte	0x32
 12087 3667 A0       		.byte	0xa0
 12088 3668 6C360000 		.4byte	0x366c
 12089 366c 0B       		.uleb128 0xb
 12090 366d 04       		.byte	0x4
 12091 366e 72360000 		.4byte	0x3672
 12092 3672 0D       		.uleb128 0xd
 12093 3673 7D360000 		.4byte	0x367d
 12094 3677 0E       		.uleb128 0xe
 12095 3678 7D360000 		.4byte	0x367d
 12096 367c 00       		.byte	0
 12097 367d 0B       		.uleb128 0xb
 12098 367e 04       		.byte	0x4
 12099 367f 0D360000 		.4byte	0x360d
 12100 3683 02       		.uleb128 0x2
 12101 3684 2C1E0000 		.4byte	.LASF733
 12102 3688 32       		.byte	0x32
 12103 3689 A8       		.byte	0xa8
 12104 368a 8E360000 		.4byte	0x368e
 12105 368e 0B       		.uleb128 0xb
 12106 368f 04       		.byte	0x4
 12107 3690 94360000 		.4byte	0x3694
 12108 3694 0D       		.uleb128 0xd
 12109 3695 A4360000 		.4byte	0x36a4
 12110 3699 0E       		.uleb128 0xe
 12111 369a 7D360000 		.4byte	0x367d
 12112 369e 0E       		.uleb128 0xe
 12113 369f B9350000 		.4byte	0x35b9
 12114 36a3 00       		.byte	0
 12115 36a4 17       		.uleb128 0x17
 12116 36a5 10       		.byte	0x10
ARM GAS  /var/folders/bw/wdbp2_bd0pn7gl5ybd33xbb80000gn/T//ccZ5cvgj.s 			page 219


 12117 36a6 32       		.byte	0x32
 12118 36a7 AD       		.byte	0xad
 12119 36a8 DC360000 		.4byte	0x36dc
 12120 36ac 08       		.uleb128 0x8
 12121 36ad 4C210000 		.4byte	.LASF734
 12122 36b1 32       		.byte	0x32
 12123 36b2 B1       		.byte	0xb1
 12124 36b3 61360000 		.4byte	0x3661
 12125 36b7 00       		.byte	0
 12126 36b8 08       		.uleb128 0x8
 12127 36b9 F9260000 		.4byte	.LASF735
 12128 36bd 32       		.byte	0x32
 12129 36be B5       		.byte	0xb5
 12130 36bf 61360000 		.4byte	0x3661
 12131 36c3 04       		.byte	0x4
 12132 36c4 08       		.uleb128 0x8
 12133 36c5 3E280000 		.4byte	.LASF354
 12134 36c9 32       		.byte	0x32
 12135 36ca B9       		.byte	0xb9
 12136 36cb 83360000 		.4byte	0x3683
 12137 36cf 08       		.byte	0x8
 12138 36d0 18       		.uleb128 0x18
 12139 36d1 637200   		.ascii	"cr\000"
 12140 36d4 32       		.byte	0x32
 12141 36d5 BD       		.byte	0xbd
 12142 36d6 F9000000 		.4byte	0xf9
 12143 36da 0C       		.byte	0xc
 12144 36db 00       		.byte	0
 12145 36dc 02       		.uleb128 0x2
 12146 36dd 6C290000 		.4byte	.LASF736
 12147 36e1 32       		.byte	0x32
 12148 36e2 BE       		.byte	0xbe
 12149 36e3 A4360000 		.4byte	0x36a4
 12150 36e7 05       		.uleb128 0x5
 12151 36e8 DC360000 		.4byte	0x36dc
 12152 36ec 0B       		.uleb128 0xb
 12153 36ed 04       		.byte	0x4
 12154 36ee E7360000 		.4byte	0x36e7
 12155 36f2 0B       		.uleb128 0xb
 12156 36f3 04       		.byte	0x4
 12157 36f4 220A0000 		.4byte	0xa22
 12158 36f8 16       		.uleb128 0x16
 12159 36f9 3B050000 		.4byte	.LASF737
 12160 36fd 32       		.byte	0x32
 12161 36fe E3       		.byte	0xe3
 12162 36ff 0D360000 		.4byte	0x360d
 12163 3703 02       		.uleb128 0x2
 12164 3704 62080000 		.4byte	.LASF738
 12165 3708 33       		.byte	0x33
 12166 3709 22       		.byte	0x22
 12167 370a 0E370000 		.4byte	0x370e
 12168 370e 0B       		.uleb128 0xb
 12169 370f 04       		.byte	0x4
 12170 3710 14370000 		.4byte	0x3714
 12171 3714 2C       		.uleb128 0x2c
 12172 3715 83060000 		.4byte	.LASF868
 12173 3719 02       		.uleb128 0x2
ARM GAS  /var/folders/bw/wdbp2_bd0pn7gl5ybd33xbb80000gn/T//ccZ5cvgj.s 			page 220


 12174 371a 390E0000 		.4byte	.LASF739
 12175 371e 34       		.byte	0x34
 12176 371f 2C       		.byte	0x2c
 12177 3720 78000000 		.4byte	0x78
 12178 3724 02       		.uleb128 0x2
 12179 3725 C5200000 		.4byte	.LASF740
 12180 3729 34       		.byte	0x34
 12181 372a 72       		.byte	0x72
 12182 372b 78000000 		.4byte	0x78
 12183 372f 1A       		.uleb128 0x1a
 12184 3730 40100000 		.4byte	.LASF741
 12185 3734 04       		.byte	0x4
 12186 3735 6501     		.2byte	0x165
 12187 3737 B1000000 		.4byte	0xb1
 12188 373b 1D       		.uleb128 0x1d
 12189 373c 04       		.byte	0x4
 12190 373d 34       		.byte	0x34
 12191 373e A6       		.byte	0xa6
 12192 373f 5A370000 		.4byte	0x375a
 12193 3743 2A       		.uleb128 0x2a
 12194 3744 FA190000 		.4byte	.LASF742
 12195 3748 34       		.byte	0x34
 12196 3749 A8       		.byte	0xa8
 12197 374a 2F370000 		.4byte	0x372f
 12198 374e 2A       		.uleb128 0x2a
 12199 374f EF0F0000 		.4byte	.LASF743
 12200 3753 34       		.byte	0x34
 12201 3754 A9       		.byte	0xa9
 12202 3755 5A370000 		.4byte	0x375a
 12203 3759 00       		.byte	0
 12204 375a 13       		.uleb128 0x13
 12205 375b 42000000 		.4byte	0x42
 12206 375f 6A370000 		.4byte	0x376a
 12207 3763 14       		.uleb128 0x14
 12208 3764 B1000000 		.4byte	0xb1
 12209 3768 03       		.byte	0x3
 12210 3769 00       		.byte	0
 12211 376a 17       		.uleb128 0x17
 12212 376b 08       		.byte	0x8
 12213 376c 34       		.byte	0x34
 12214 376d A3       		.byte	0xa3
 12215 376e 8B370000 		.4byte	0x378b
 12216 3772 08       		.uleb128 0x8
 12217 3773 920E0000 		.4byte	.LASF744
 12218 3777 34       		.byte	0x34
 12219 3778 A5       		.byte	0xa5
 12220 3779 AA000000 		.4byte	0xaa
 12221 377d 00       		.byte	0
 12222 377e 08       		.uleb128 0x8
 12223 377f 001A0000 		.4byte	.LASF745
 12224 3783 34       		.byte	0x34
 12225 3784 AA       		.byte	0xaa
 12226 3785 3B370000 		.4byte	0x373b
 12227 3789 04       		.byte	0x4
 12228 378a 00       		.byte	0
 12229 378b 02       		.uleb128 0x2
 12230 378c 8F210000 		.4byte	.LASF746
ARM GAS  /var/folders/bw/wdbp2_bd0pn7gl5ybd33xbb80000gn/T//ccZ5cvgj.s 			page 221


 12231 3790 34       		.byte	0x34
 12232 3791 AB       		.byte	0xab
 12233 3792 6A370000 		.4byte	0x376a
 12234 3796 02       		.uleb128 0x2
 12235 3797 3F260000 		.4byte	.LASF747
 12236 379b 34       		.byte	0x34
 12237 379c AF       		.byte	0xaf
 12238 379d 03370000 		.4byte	0x3703
 12239 37a1 0B       		.uleb128 0xb
 12240 37a2 04       		.byte	0x4
 12241 37a3 20110000 		.4byte	0x1120
 12242 37a7 16       		.uleb128 0x16
 12243 37a8 BC0F0000 		.4byte	.LASF748
 12244 37ac 35       		.byte	0x35
 12245 37ad 10       		.byte	0x10
 12246 37ae B2370000 		.4byte	0x37b2
 12247 37b2 0B       		.uleb128 0xb
 12248 37b3 04       		.byte	0x4
 12249 37b4 A1370000 		.4byte	0x37a1
 12250 37b8 16       		.uleb128 0x16
 12251 37b9 AF070000 		.4byte	.LASF749
 12252 37bd 35       		.byte	0x35
 12253 37be E8       		.byte	0xe8
 12254 37bf A1370000 		.4byte	0x37a1
 12255 37c3 16       		.uleb128 0x16
 12256 37c4 AE260000 		.4byte	.LASF750
 12257 37c8 35       		.byte	0x35
 12258 37c9 E9       		.byte	0xe9
 12259 37ca AA000000 		.4byte	0xaa
 12260 37ce 16       		.uleb128 0x16
 12261 37cf 86190000 		.4byte	.LASF751
 12262 37d3 35       		.byte	0x35
 12263 37d4 E9       		.byte	0xe9
 12264 37d5 AA000000 		.4byte	0xaa
 12265 37d9 16       		.uleb128 0x16
 12266 37da 98160000 		.4byte	.LASF752
 12267 37de 35       		.byte	0x35
 12268 37df E9       		.byte	0xe9
 12269 37e0 AA000000 		.4byte	0xaa
 12270 37e4 16       		.uleb128 0x16
 12271 37e5 2B090000 		.4byte	.LASF753
 12272 37e9 35       		.byte	0x35
 12273 37ea EB       		.byte	0xeb
 12274 37eb AA000000 		.4byte	0xaa
 12275 37ef 07       		.uleb128 0x7
 12276 37f0 37120000 		.4byte	.LASF754
 12277 37f4 5C       		.byte	0x5c
 12278 37f5 36       		.byte	0x36
 12279 37f6 0C       		.byte	0xc
 12280 37f7 5C380000 		.4byte	0x385c
 12281 37fb 08       		.uleb128 0x8
 12282 37fc B31F0000 		.4byte	.LASF755
 12283 3800 36       		.byte	0x36
 12284 3801 0D       		.byte	0xd
 12285 3802 D0030000 		.4byte	0x3d0
 12286 3806 00       		.byte	0
 12287 3807 08       		.uleb128 0x8
ARM GAS  /var/folders/bw/wdbp2_bd0pn7gl5ybd33xbb80000gn/T//ccZ5cvgj.s 			page 222


 12288 3808 121C0000 		.4byte	.LASF756
 12289 380c 36       		.byte	0x36
 12290 380d 0E       		.byte	0xe
 12291 380e 19010000 		.4byte	0x119
 12292 3812 04       		.byte	0x4
 12293 3813 08       		.uleb128 0x8
 12294 3814 B10B0000 		.4byte	.LASF757
 12295 3818 36       		.byte	0x36
 12296 3819 0F       		.byte	0xf
 12297 381a D0030000 		.4byte	0x3d0
 12298 381e 08       		.byte	0x8
 12299 381f 08       		.uleb128 0x8
 12300 3820 76070000 		.4byte	.LASF758
 12301 3824 36       		.byte	0x36
 12302 3825 10       		.byte	0x10
 12303 3826 D0030000 		.4byte	0x3d0
 12304 382a 0C       		.byte	0xc
 12305 382b 08       		.uleb128 0x8
 12306 382c 3A260000 		.4byte	.LASF759
 12307 3830 36       		.byte	0x36
 12308 3831 11       		.byte	0x11
 12309 3832 5C380000 		.4byte	0x385c
 12310 3836 10       		.byte	0x10
 12311 3837 08       		.uleb128 0x8
 12312 3838 C4010000 		.4byte	.LASF760
 12313 383c 36       		.byte	0x36
 12314 383d 12       		.byte	0x12
 12315 383e A4150000 		.4byte	0x15a4
 12316 3842 51       		.byte	0x51
 12317 3843 08       		.uleb128 0x8
 12318 3844 4C230000 		.4byte	.LASF761
 12319 3848 36       		.byte	0x36
 12320 3849 13       		.byte	0x13
 12321 384a 91380000 		.4byte	0x3891
 12322 384e 54       		.byte	0x54
 12323 384f 08       		.uleb128 0x8
 12324 3850 A9020000 		.4byte	.LASF762
 12325 3854 36       		.byte	0x36
 12326 3855 14       		.byte	0x14
 12327 3856 97380000 		.4byte	0x3897
 12328 385a 58       		.byte	0x58
 12329 385b 00       		.byte	0
 12330 385c 13       		.uleb128 0x13
 12331 385d 20110000 		.4byte	0x1120
 12332 3861 6C380000 		.4byte	0x386c
 12333 3865 14       		.uleb128 0x14
 12334 3866 B1000000 		.4byte	0xb1
 12335 386a 40       		.byte	0x40
 12336 386b 00       		.byte	0
 12337 386c 07       		.uleb128 0x7
 12338 386d 32000000 		.4byte	.LASF763
 12339 3871 08       		.byte	0x8
 12340 3872 36       		.byte	0x36
 12341 3873 25       		.byte	0x25
 12342 3874 91380000 		.4byte	0x3891
 12343 3878 08       		.uleb128 0x8
 12344 3879 10220000 		.4byte	.LASF764
ARM GAS  /var/folders/bw/wdbp2_bd0pn7gl5ybd33xbb80000gn/T//ccZ5cvgj.s 			page 223


 12345 387d 36       		.byte	0x36
 12346 387e 26       		.byte	0x26
 12347 387f 37390000 		.4byte	0x3937
 12348 3883 00       		.byte	0
 12349 3884 08       		.uleb128 0x8
 12350 3885 A9020000 		.4byte	.LASF762
 12351 3889 36       		.byte	0x36
 12352 388a 27       		.byte	0x27
 12353 388b 91380000 		.4byte	0x3891
 12354 388f 04       		.byte	0x4
 12355 3890 00       		.byte	0
 12356 3891 0B       		.uleb128 0xb
 12357 3892 04       		.byte	0x4
 12358 3893 6C380000 		.4byte	0x386c
 12359 3897 0B       		.uleb128 0xb
 12360 3898 04       		.byte	0x4
 12361 3899 EF370000 		.4byte	0x37ef
 12362 389d 02       		.uleb128 0x2
 12363 389e 171B0000 		.4byte	.LASF765
 12364 38a2 36       		.byte	0x36
 12365 38a3 15       		.byte	0x15
 12366 38a4 EF370000 		.4byte	0x37ef
 12367 38a8 17       		.uleb128 0x17
 12368 38a9 04       		.byte	0x4
 12369 38aa 36       		.byte	0x36
 12370 38ab 18       		.byte	0x18
 12371 38ac BD380000 		.4byte	0x38bd
 12372 38b0 08       		.uleb128 0x8
 12373 38b1 440B0000 		.4byte	.LASF766
 12374 38b5 36       		.byte	0x36
 12375 38b6 19       		.byte	0x19
 12376 38b7 BD380000 		.4byte	0x38bd
 12377 38bb 00       		.byte	0
 12378 38bc 00       		.byte	0
 12379 38bd 0B       		.uleb128 0xb
 12380 38be 04       		.byte	0x4
 12381 38bf 9D380000 		.4byte	0x389d
 12382 38c3 17       		.uleb128 0x17
 12383 38c4 0C       		.byte	0xc
 12384 38c5 36       		.byte	0x36
 12385 38c6 17       		.byte	0x17
 12386 38c7 F0380000 		.4byte	0x38f0
 12387 38cb 08       		.uleb128 0x8
 12388 38cc A6240000 		.4byte	.LASF767
 12389 38d0 36       		.byte	0x36
 12390 38d1 1A       		.byte	0x1a
 12391 38d2 A8380000 		.4byte	0x38a8
 12392 38d6 00       		.byte	0
 12393 38d7 08       		.uleb128 0x8
 12394 38d8 B10B0000 		.4byte	.LASF757
 12395 38dc 36       		.byte	0x36
 12396 38dd 1B       		.byte	0x1b
 12397 38de D0030000 		.4byte	0x3d0
 12398 38e2 04       		.byte	0x4
 12399 38e3 08       		.uleb128 0x8
 12400 38e4 76070000 		.4byte	.LASF758
 12401 38e8 36       		.byte	0x36
ARM GAS  /var/folders/bw/wdbp2_bd0pn7gl5ybd33xbb80000gn/T//ccZ5cvgj.s 			page 224


 12402 38e9 1C       		.byte	0x1c
 12403 38ea D0030000 		.4byte	0x3d0
 12404 38ee 08       		.byte	0x8
 12405 38ef 00       		.byte	0
 12406 38f0 02       		.uleb128 0x2
 12407 38f1 0A120000 		.4byte	.LASF768
 12408 38f5 36       		.byte	0x36
 12409 38f6 1D       		.byte	0x1d
 12410 38f7 C3380000 		.4byte	0x38c3
 12411 38fb 07       		.uleb128 0x7
 12412 38fc 6F1D0000 		.4byte	.LASF769
 12413 3900 0C       		.byte	0xc
 12414 3901 36       		.byte	0x36
 12415 3902 1F       		.byte	0x1f
 12416 3903 2C390000 		.4byte	0x392c
 12417 3907 08       		.uleb128 0x8
 12418 3908 B10B0000 		.4byte	.LASF757
 12419 390c 36       		.byte	0x36
 12420 390d 20       		.byte	0x20
 12421 390e D0030000 		.4byte	0x3d0
 12422 3912 00       		.byte	0
 12423 3913 08       		.uleb128 0x8
 12424 3914 76070000 		.4byte	.LASF758
 12425 3918 36       		.byte	0x36
 12426 3919 21       		.byte	0x21
 12427 391a D0030000 		.4byte	0x3d0
 12428 391e 04       		.byte	0x4
 12429 391f 08       		.uleb128 0x8
 12430 3920 2B050000 		.4byte	.LASF770
 12431 3924 36       		.byte	0x36
 12432 3925 22       		.byte	0x22
 12433 3926 BD380000 		.4byte	0x38bd
 12434 392a 08       		.byte	0x8
 12435 392b 00       		.byte	0
 12436 392c 02       		.uleb128 0x2
 12437 392d 491F0000 		.4byte	.LASF771
 12438 3931 36       		.byte	0x36
 12439 3932 23       		.byte	0x23
 12440 3933 FB380000 		.4byte	0x38fb
 12441 3937 0B       		.uleb128 0xb
 12442 3938 04       		.byte	0x4
 12443 3939 2C390000 		.4byte	0x392c
 12444 393d 02       		.uleb128 0x2
 12445 393e 0E160000 		.4byte	.LASF772
 12446 3942 37       		.byte	0x37
 12447 3943 16       		.byte	0x16
 12448 3944 8A000000 		.4byte	0x8a
 12449 3948 07       		.uleb128 0x7
 12450 3949 451E0000 		.4byte	.LASF773
 12451 394d 18       		.byte	0x18
 12452 394e 37       		.byte	0x37
 12453 394f 2F       		.byte	0x2f
 12454 3950 9B390000 		.4byte	0x399b
 12455 3954 08       		.uleb128 0x8
 12456 3955 22130000 		.4byte	.LASF774
 12457 3959 37       		.byte	0x37
 12458 395a 31       		.byte	0x31
ARM GAS  /var/folders/bw/wdbp2_bd0pn7gl5ybd33xbb80000gn/T//ccZ5cvgj.s 			page 225


 12459 395b 9B390000 		.4byte	0x399b
 12460 395f 00       		.byte	0
 12461 3960 18       		.uleb128 0x18
 12462 3961 5F6B00   		.ascii	"_k\000"
 12463 3964 37       		.byte	0x37
 12464 3965 32       		.byte	0x32
 12465 3966 AA000000 		.4byte	0xaa
 12466 396a 04       		.byte	0x4
 12467 396b 08       		.uleb128 0x8
 12468 396c F91B0000 		.4byte	.LASF775
 12469 3970 37       		.byte	0x37
 12470 3971 32       		.byte	0x32
 12471 3972 AA000000 		.4byte	0xaa
 12472 3976 08       		.byte	0x8
 12473 3977 08       		.uleb128 0x8
 12474 3978 1D1C0000 		.4byte	.LASF776
 12475 397c 37       		.byte	0x37
 12476 397d 32       		.byte	0x32
 12477 397e AA000000 		.4byte	0xaa
 12478 3982 0C       		.byte	0xc
 12479 3983 08       		.uleb128 0x8
 12480 3984 DF0A0000 		.4byte	.LASF777
 12481 3988 37       		.byte	0x37
 12482 3989 32       		.byte	0x32
 12483 398a AA000000 		.4byte	0xaa
 12484 398e 10       		.byte	0x10
 12485 398f 18       		.uleb128 0x18
 12486 3990 5F7800   		.ascii	"_x\000"
 12487 3993 37       		.byte	0x37
 12488 3994 33       		.byte	0x33
 12489 3995 A1390000 		.4byte	0x39a1
 12490 3999 14       		.byte	0x14
 12491 399a 00       		.byte	0
 12492 399b 0B       		.uleb128 0xb
 12493 399c 04       		.byte	0x4
 12494 399d 48390000 		.4byte	0x3948
 12495 39a1 13       		.uleb128 0x13
 12496 39a2 3D390000 		.4byte	0x393d
 12497 39a6 B1390000 		.4byte	0x39b1
 12498 39aa 14       		.uleb128 0x14
 12499 39ab B1000000 		.4byte	0xb1
 12500 39af 00       		.byte	0
 12501 39b0 00       		.byte	0
 12502 39b1 07       		.uleb128 0x7
 12503 39b2 1B1F0000 		.4byte	.LASF778
 12504 39b6 24       		.byte	0x24
 12505 39b7 37       		.byte	0x37
 12506 39b8 37       		.byte	0x37
 12507 39b9 2A3A0000 		.4byte	0x3a2a
 12508 39bd 08       		.uleb128 0x8
 12509 39be 94140000 		.4byte	.LASF779
 12510 39c2 37       		.byte	0x37
 12511 39c3 39       		.byte	0x39
 12512 39c4 AA000000 		.4byte	0xaa
 12513 39c8 00       		.byte	0
 12514 39c9 08       		.uleb128 0x8
 12515 39ca F90B0000 		.4byte	.LASF780
ARM GAS  /var/folders/bw/wdbp2_bd0pn7gl5ybd33xbb80000gn/T//ccZ5cvgj.s 			page 226


 12516 39ce 37       		.byte	0x37
 12517 39cf 3A       		.byte	0x3a
 12518 39d0 AA000000 		.4byte	0xaa
 12519 39d4 04       		.byte	0x4
 12520 39d5 08       		.uleb128 0x8
 12521 39d6 09100000 		.4byte	.LASF781
 12522 39da 37       		.byte	0x37
 12523 39db 3B       		.byte	0x3b
 12524 39dc AA000000 		.4byte	0xaa
 12525 39e0 08       		.byte	0x8
 12526 39e1 08       		.uleb128 0x8
 12527 39e2 ED090000 		.4byte	.LASF782
 12528 39e6 37       		.byte	0x37
 12529 39e7 3C       		.byte	0x3c
 12530 39e8 AA000000 		.4byte	0xaa
 12531 39ec 0C       		.byte	0xc
 12532 39ed 08       		.uleb128 0x8
 12533 39ee 0F020000 		.4byte	.LASF783
 12534 39f2 37       		.byte	0x37
 12535 39f3 3D       		.byte	0x3d
 12536 39f4 AA000000 		.4byte	0xaa
 12537 39f8 10       		.byte	0x10
 12538 39f9 08       		.uleb128 0x8
 12539 39fa 340C0000 		.4byte	.LASF784
 12540 39fe 37       		.byte	0x37
 12541 39ff 3E       		.byte	0x3e
 12542 3a00 AA000000 		.4byte	0xaa
 12543 3a04 14       		.byte	0x14
 12544 3a05 08       		.uleb128 0x8
 12545 3a06 D4090000 		.4byte	.LASF785
 12546 3a0a 37       		.byte	0x37
 12547 3a0b 3F       		.byte	0x3f
 12548 3a0c AA000000 		.4byte	0xaa
 12549 3a10 18       		.byte	0x18
 12550 3a11 08       		.uleb128 0x8
 12551 3a12 360A0000 		.4byte	.LASF786
 12552 3a16 37       		.byte	0x37
 12553 3a17 40       		.byte	0x40
 12554 3a18 AA000000 		.4byte	0xaa
 12555 3a1c 1C       		.byte	0x1c
 12556 3a1d 08       		.uleb128 0x8
 12557 3a1e 142A0000 		.4byte	.LASF787
 12558 3a22 37       		.byte	0x37
 12559 3a23 41       		.byte	0x41
 12560 3a24 AA000000 		.4byte	0xaa
 12561 3a28 20       		.byte	0x20
 12562 3a29 00       		.byte	0
 12563 3a2a 2D       		.uleb128 0x2d
 12564 3a2b B5140000 		.4byte	.LASF788
 12565 3a2f 0801     		.2byte	0x108
 12566 3a31 37       		.byte	0x37
 12567 3a32 4A       		.byte	0x4a
 12568 3a33 6A3A0000 		.4byte	0x3a6a
 12569 3a37 08       		.uleb128 0x8
 12570 3a38 80120000 		.4byte	.LASF789
 12571 3a3c 37       		.byte	0x37
 12572 3a3d 4B       		.byte	0x4b
ARM GAS  /var/folders/bw/wdbp2_bd0pn7gl5ybd33xbb80000gn/T//ccZ5cvgj.s 			page 227


 12573 3a3e 6A3A0000 		.4byte	0x3a6a
 12574 3a42 00       		.byte	0
 12575 3a43 08       		.uleb128 0x8
 12576 3a44 02040000 		.4byte	.LASF790
 12577 3a48 37       		.byte	0x37
 12578 3a49 4C       		.byte	0x4c
 12579 3a4a 6A3A0000 		.4byte	0x3a6a
 12580 3a4e 80       		.byte	0x80
 12581 3a4f 27       		.uleb128 0x27
 12582 3a50 18020000 		.4byte	.LASF791
 12583 3a54 37       		.byte	0x37
 12584 3a55 4E       		.byte	0x4e
 12585 3a56 3D390000 		.4byte	0x393d
 12586 3a5a 0001     		.2byte	0x100
 12587 3a5c 27       		.uleb128 0x27
 12588 3a5d B8220000 		.4byte	.LASF792
 12589 3a61 37       		.byte	0x37
 12590 3a62 51       		.byte	0x51
 12591 3a63 3D390000 		.4byte	0x393d
 12592 3a67 0401     		.2byte	0x104
 12593 3a69 00       		.byte	0
 12594 3a6a 13       		.uleb128 0x13
 12595 3a6b D0030000 		.4byte	0x3d0
 12596 3a6f 7A3A0000 		.4byte	0x3a7a
 12597 3a73 14       		.uleb128 0x14
 12598 3a74 B1000000 		.4byte	0xb1
 12599 3a78 1F       		.byte	0x1f
 12600 3a79 00       		.byte	0
 12601 3a7a 2D       		.uleb128 0x2d
 12602 3a7b 6A010000 		.4byte	.LASF793
 12603 3a7f 9001     		.2byte	0x190
 12604 3a81 37       		.byte	0x37
 12605 3a82 5D       		.byte	0x5d
 12606 3a83 B83A0000 		.4byte	0x3ab8
 12607 3a87 08       		.uleb128 0x8
 12608 3a88 22130000 		.4byte	.LASF774
 12609 3a8c 37       		.byte	0x37
 12610 3a8d 5E       		.byte	0x5e
 12611 3a8e B83A0000 		.4byte	0x3ab8
 12612 3a92 00       		.byte	0
 12613 3a93 08       		.uleb128 0x8
 12614 3a94 34020000 		.4byte	.LASF794
 12615 3a98 37       		.byte	0x37
 12616 3a99 5F       		.byte	0x5f
 12617 3a9a AA000000 		.4byte	0xaa
 12618 3a9e 04       		.byte	0x4
 12619 3a9f 08       		.uleb128 0x8
 12620 3aa0 47210000 		.4byte	.LASF795
 12621 3aa4 37       		.byte	0x37
 12622 3aa5 61       		.byte	0x61
 12623 3aa6 BE3A0000 		.4byte	0x3abe
 12624 3aaa 08       		.byte	0x8
 12625 3aab 08       		.uleb128 0x8
 12626 3aac B5140000 		.4byte	.LASF788
 12627 3ab0 37       		.byte	0x37
 12628 3ab1 62       		.byte	0x62
 12629 3ab2 2A3A0000 		.4byte	0x3a2a
ARM GAS  /var/folders/bw/wdbp2_bd0pn7gl5ybd33xbb80000gn/T//ccZ5cvgj.s 			page 228


 12630 3ab6 88       		.byte	0x88
 12631 3ab7 00       		.byte	0
 12632 3ab8 0B       		.uleb128 0xb
 12633 3ab9 04       		.byte	0x4
 12634 3aba 7A3A0000 		.4byte	0x3a7a
 12635 3abe 13       		.uleb128 0x13
 12636 3abf CE3A0000 		.4byte	0x3ace
 12637 3ac3 CE3A0000 		.4byte	0x3ace
 12638 3ac7 14       		.uleb128 0x14
 12639 3ac8 B1000000 		.4byte	0xb1
 12640 3acc 1F       		.byte	0x1f
 12641 3acd 00       		.byte	0
 12642 3ace 0B       		.uleb128 0xb
 12643 3acf 04       		.byte	0x4
 12644 3ad0 D43A0000 		.4byte	0x3ad4
 12645 3ad4 2E       		.uleb128 0x2e
 12646 3ad5 07       		.uleb128 0x7
 12647 3ad6 37190000 		.4byte	.LASF796
 12648 3ada 08       		.byte	0x8
 12649 3adb 37       		.byte	0x37
 12650 3adc 75       		.byte	0x75
 12651 3add FA3A0000 		.4byte	0x3afa
 12652 3ae1 08       		.uleb128 0x8
 12653 3ae2 F0140000 		.4byte	.LASF797
 12654 3ae6 37       		.byte	0x37
 12655 3ae7 76       		.byte	0x76
 12656 3ae8 FA3A0000 		.4byte	0x3afa
 12657 3aec 00       		.byte	0
 12658 3aed 08       		.uleb128 0x8
 12659 3aee 890B0000 		.4byte	.LASF798
 12660 3af2 37       		.byte	0x37
 12661 3af3 77       		.byte	0x77
 12662 3af4 AA000000 		.4byte	0xaa
 12663 3af8 04       		.byte	0x4
 12664 3af9 00       		.byte	0
 12665 3afa 0B       		.uleb128 0xb
 12666 3afb 04       		.byte	0x4
 12667 3afc 42000000 		.4byte	0x42
 12668 3b00 07       		.uleb128 0x7
 12669 3b01 26210000 		.4byte	.LASF799
 12670 3b05 68       		.byte	0x68
 12671 3b06 37       		.byte	0x37
 12672 3b07 B5       		.byte	0xb5
 12673 3b08 2A3C0000 		.4byte	0x3c2a
 12674 3b0c 18       		.uleb128 0x18
 12675 3b0d 5F7000   		.ascii	"_p\000"
 12676 3b10 37       		.byte	0x37
 12677 3b11 B6       		.byte	0xb6
 12678 3b12 FA3A0000 		.4byte	0x3afa
 12679 3b16 00       		.byte	0
 12680 3b17 18       		.uleb128 0x18
 12681 3b18 5F7200   		.ascii	"_r\000"
 12682 3b1b 37       		.byte	0x37
 12683 3b1c B7       		.byte	0xb7
 12684 3b1d AA000000 		.4byte	0xaa
 12685 3b21 04       		.byte	0x4
 12686 3b22 18       		.uleb128 0x18
ARM GAS  /var/folders/bw/wdbp2_bd0pn7gl5ybd33xbb80000gn/T//ccZ5cvgj.s 			page 229


 12687 3b23 5F7700   		.ascii	"_w\000"
 12688 3b26 37       		.byte	0x37
 12689 3b27 B8       		.byte	0xb8
 12690 3b28 AA000000 		.4byte	0xaa
 12691 3b2c 08       		.byte	0x8
 12692 3b2d 08       		.uleb128 0x8
 12693 3b2e A2020000 		.4byte	.LASF800
 12694 3b32 37       		.byte	0x37
 12695 3b33 B9       		.byte	0xb9
 12696 3b34 54000000 		.4byte	0x54
 12697 3b38 0C       		.byte	0xc
 12698 3b39 08       		.uleb128 0x8
 12699 3b3a E2200000 		.4byte	.LASF801
 12700 3b3e 37       		.byte	0x37
 12701 3b3f BA       		.byte	0xba
 12702 3b40 54000000 		.4byte	0x54
 12703 3b44 0E       		.byte	0xe
 12704 3b45 18       		.uleb128 0x18
 12705 3b46 5F626600 		.ascii	"_bf\000"
 12706 3b4a 37       		.byte	0x37
 12707 3b4b BB       		.byte	0xbb
 12708 3b4c D53A0000 		.4byte	0x3ad5
 12709 3b50 10       		.byte	0x10
 12710 3b51 08       		.uleb128 0x8
 12711 3b52 67050000 		.4byte	.LASF802
 12712 3b56 37       		.byte	0x37
 12713 3b57 BC       		.byte	0xbc
 12714 3b58 AA000000 		.4byte	0xaa
 12715 3b5c 18       		.byte	0x18
 12716 3b5d 08       		.uleb128 0x8
 12717 3b5e 82130000 		.4byte	.LASF803
 12718 3b62 37       		.byte	0x37
 12719 3b63 C3       		.byte	0xc3
 12720 3b64 D0030000 		.4byte	0x3d0
 12721 3b68 1C       		.byte	0x1c
 12722 3b69 08       		.uleb128 0x8
 12723 3b6a D5290000 		.4byte	.LASF804
 12724 3b6e 37       		.byte	0x37
 12725 3b6f C5       		.byte	0xc5
 12726 3b70 853D0000 		.4byte	0x3d85
 12727 3b74 20       		.byte	0x20
 12728 3b75 08       		.uleb128 0x8
 12729 3b76 8F0B0000 		.4byte	.LASF805
 12730 3b7a 37       		.byte	0x37
 12731 3b7b C7       		.byte	0xc7
 12732 3b7c A93D0000 		.4byte	0x3da9
 12733 3b80 24       		.byte	0x24
 12734 3b81 08       		.uleb128 0x8
 12735 3b82 0D170000 		.4byte	.LASF806
 12736 3b86 37       		.byte	0x37
 12737 3b87 CA       		.byte	0xca
 12738 3b88 CD3D0000 		.4byte	0x3dcd
 12739 3b8c 28       		.byte	0x28
 12740 3b8d 08       		.uleb128 0x8
 12741 3b8e 1A1D0000 		.4byte	.LASF807
 12742 3b92 37       		.byte	0x37
 12743 3b93 CB       		.byte	0xcb
ARM GAS  /var/folders/bw/wdbp2_bd0pn7gl5ybd33xbb80000gn/T//ccZ5cvgj.s 			page 230


 12744 3b94 E73D0000 		.4byte	0x3de7
 12745 3b98 2C       		.byte	0x2c
 12746 3b99 18       		.uleb128 0x18
 12747 3b9a 5F756200 		.ascii	"_ub\000"
 12748 3b9e 37       		.byte	0x37
 12749 3b9f CE       		.byte	0xce
 12750 3ba0 D53A0000 		.4byte	0x3ad5
 12751 3ba4 30       		.byte	0x30
 12752 3ba5 18       		.uleb128 0x18
 12753 3ba6 5F757000 		.ascii	"_up\000"
 12754 3baa 37       		.byte	0x37
 12755 3bab CF       		.byte	0xcf
 12756 3bac FA3A0000 		.4byte	0x3afa
 12757 3bb0 38       		.byte	0x38
 12758 3bb1 18       		.uleb128 0x18
 12759 3bb2 5F757200 		.ascii	"_ur\000"
 12760 3bb6 37       		.byte	0x37
 12761 3bb7 D0       		.byte	0xd0
 12762 3bb8 AA000000 		.4byte	0xaa
 12763 3bbc 3C       		.byte	0x3c
 12764 3bbd 08       		.uleb128 0x8
 12765 3bbe 00200000 		.4byte	.LASF808
 12766 3bc2 37       		.byte	0x37
 12767 3bc3 D3       		.byte	0xd3
 12768 3bc4 ED3D0000 		.4byte	0x3ded
 12769 3bc8 40       		.byte	0x40
 12770 3bc9 08       		.uleb128 0x8
 12771 3bca 75030000 		.4byte	.LASF809
 12772 3bce 37       		.byte	0x37
 12773 3bcf D4       		.byte	0xd4
 12774 3bd0 FD3D0000 		.4byte	0x3dfd
 12775 3bd4 43       		.byte	0x43
 12776 3bd5 18       		.uleb128 0x18
 12777 3bd6 5F6C6200 		.ascii	"_lb\000"
 12778 3bda 37       		.byte	0x37
 12779 3bdb D7       		.byte	0xd7
 12780 3bdc D53A0000 		.4byte	0x3ad5
 12781 3be0 44       		.byte	0x44
 12782 3be1 08       		.uleb128 0x8
 12783 3be2 4F0C0000 		.4byte	.LASF810
 12784 3be6 37       		.byte	0x37
 12785 3be7 DA       		.byte	0xda
 12786 3be8 AA000000 		.4byte	0xaa
 12787 3bec 4C       		.byte	0x4c
 12788 3bed 08       		.uleb128 0x8
 12789 3bee C9180000 		.4byte	.LASF811
 12790 3bf2 37       		.byte	0x37
 12791 3bf3 DB       		.byte	0xdb
 12792 3bf4 19370000 		.4byte	0x3719
 12793 3bf8 50       		.byte	0x50
 12794 3bf9 08       		.uleb128 0x8
 12795 3bfa 4C250000 		.4byte	.LASF812
 12796 3bfe 37       		.byte	0x37
 12797 3bff DE       		.byte	0xde
 12798 3c00 483C0000 		.4byte	0x3c48
 12799 3c04 54       		.byte	0x54
 12800 3c05 08       		.uleb128 0x8
ARM GAS  /var/folders/bw/wdbp2_bd0pn7gl5ybd33xbb80000gn/T//ccZ5cvgj.s 			page 231


 12801 3c06 6F030000 		.4byte	.LASF813
 12802 3c0a 37       		.byte	0x37
 12803 3c0b E2       		.byte	0xe2
 12804 3c0c 96370000 		.4byte	0x3796
 12805 3c10 58       		.byte	0x58
 12806 3c11 08       		.uleb128 0x8
 12807 3c12 DB150000 		.4byte	.LASF814
 12808 3c16 37       		.byte	0x37
 12809 3c17 E4       		.byte	0xe4
 12810 3c18 8B370000 		.4byte	0x378b
 12811 3c1c 5C       		.byte	0x5c
 12812 3c1d 08       		.uleb128 0x8
 12813 3c1e 1A270000 		.4byte	.LASF815
 12814 3c22 37       		.byte	0x37
 12815 3c23 E5       		.byte	0xe5
 12816 3c24 AA000000 		.4byte	0xaa
 12817 3c28 64       		.byte	0x64
 12818 3c29 00       		.byte	0
 12819 3c2a 20       		.uleb128 0x20
 12820 3c2b AA000000 		.4byte	0xaa
 12821 3c2f 483C0000 		.4byte	0x3c48
 12822 3c33 0E       		.uleb128 0xe
 12823 3c34 483C0000 		.4byte	0x3c48
 12824 3c38 0E       		.uleb128 0xe
 12825 3c39 D0030000 		.4byte	0x3d0
 12826 3c3d 0E       		.uleb128 0xe
 12827 3c3e A1370000 		.4byte	0x37a1
 12828 3c42 0E       		.uleb128 0xe
 12829 3c43 AA000000 		.4byte	0xaa
 12830 3c47 00       		.byte	0
 12831 3c48 0B       		.uleb128 0xb
 12832 3c49 04       		.byte	0x4
 12833 3c4a 533C0000 		.4byte	0x3c53
 12834 3c4e 05       		.uleb128 0x5
 12835 3c4f 483C0000 		.4byte	0x3c48
 12836 3c53 10       		.uleb128 0x10
 12837 3c54 B0190000 		.4byte	.LASF816
 12838 3c58 2804     		.2byte	0x428
 12839 3c5a 37       		.byte	0x37
 12840 3c5b 3902     		.2byte	0x239
 12841 3c5d 853D0000 		.4byte	0x3d85
 12842 3c61 0A       		.uleb128 0xa
 12843 3c62 03120000 		.4byte	.LASF817
 12844 3c66 37       		.byte	0x37
 12845 3c67 3B02     		.2byte	0x23b
 12846 3c69 AA000000 		.4byte	0xaa
 12847 3c6d 00       		.byte	0
 12848 3c6e 0A       		.uleb128 0xa
 12849 3c6f 6B0D0000 		.4byte	.LASF818
 12850 3c73 37       		.byte	0x37
 12851 3c74 4002     		.2byte	0x240
 12852 3c76 543E0000 		.4byte	0x3e54
 12853 3c7a 04       		.byte	0x4
 12854 3c7b 0A       		.uleb128 0xa
 12855 3c7c 5E0A0000 		.4byte	.LASF819
 12856 3c80 37       		.byte	0x37
 12857 3c81 4002     		.2byte	0x240
ARM GAS  /var/folders/bw/wdbp2_bd0pn7gl5ybd33xbb80000gn/T//ccZ5cvgj.s 			page 232


 12858 3c83 543E0000 		.4byte	0x3e54
 12859 3c87 08       		.byte	0x8
 12860 3c88 0A       		.uleb128 0xa
 12861 3c89 70090000 		.4byte	.LASF820
 12862 3c8d 37       		.byte	0x37
 12863 3c8e 4002     		.2byte	0x240
 12864 3c90 543E0000 		.4byte	0x3e54
 12865 3c94 0C       		.byte	0xc
 12866 3c95 0A       		.uleb128 0xa
 12867 3c96 2F020000 		.4byte	.LASF821
 12868 3c9a 37       		.byte	0x37
 12869 3c9b 4202     		.2byte	0x242
 12870 3c9d AA000000 		.4byte	0xaa
 12871 3ca1 10       		.byte	0x10
 12872 3ca2 0A       		.uleb128 0xa
 12873 3ca3 5A0F0000 		.4byte	.LASF822
 12874 3ca7 37       		.byte	0x37
 12875 3ca8 4302     		.2byte	0x243
 12876 3caa 36400000 		.4byte	0x4036
 12877 3cae 14       		.byte	0x14
 12878 3caf 0A       		.uleb128 0xa
 12879 3cb0 97250000 		.4byte	.LASF823
 12880 3cb4 37       		.byte	0x37
 12881 3cb5 4602     		.2byte	0x246
 12882 3cb7 AA000000 		.4byte	0xaa
 12883 3cbb 30       		.byte	0x30
 12884 3cbc 0A       		.uleb128 0xa
 12885 3cbd 75270000 		.4byte	.LASF824
 12886 3cc1 37       		.byte	0x37
 12887 3cc2 4702     		.2byte	0x247
 12888 3cc4 4B400000 		.4byte	0x404b
 12889 3cc8 34       		.byte	0x34
 12890 3cc9 0A       		.uleb128 0xa
 12891 3cca FB250000 		.4byte	.LASF825
 12892 3cce 37       		.byte	0x37
 12893 3ccf 4902     		.2byte	0x249
 12894 3cd1 AA000000 		.4byte	0xaa
 12895 3cd5 38       		.byte	0x38
 12896 3cd6 0A       		.uleb128 0xa
 12897 3cd7 57200000 		.4byte	.LASF826
 12898 3cdb 37       		.byte	0x37
 12899 3cdc 4B02     		.2byte	0x24b
 12900 3cde 5C400000 		.4byte	0x405c
 12901 3ce2 3C       		.byte	0x3c
 12902 3ce3 0A       		.uleb128 0xa
 12903 3ce4 78090000 		.4byte	.LASF827
 12904 3ce8 37       		.byte	0x37
 12905 3ce9 4E02     		.2byte	0x24e
 12906 3ceb 9B390000 		.4byte	0x399b
 12907 3cef 40       		.byte	0x40
 12908 3cf0 0A       		.uleb128 0xa
 12909 3cf1 61090000 		.4byte	.LASF828
 12910 3cf5 37       		.byte	0x37
 12911 3cf6 4F02     		.2byte	0x24f
 12912 3cf8 AA000000 		.4byte	0xaa
 12913 3cfc 44       		.byte	0x44
 12914 3cfd 0A       		.uleb128 0xa
ARM GAS  /var/folders/bw/wdbp2_bd0pn7gl5ybd33xbb80000gn/T//ccZ5cvgj.s 			page 233


 12915 3cfe 08230000 		.4byte	.LASF829
 12916 3d02 37       		.byte	0x37
 12917 3d03 5002     		.2byte	0x250
 12918 3d05 9B390000 		.4byte	0x399b
 12919 3d09 48       		.byte	0x48
 12920 3d0a 0A       		.uleb128 0xa
 12921 3d0b 29180000 		.4byte	.LASF830
 12922 3d0f 37       		.byte	0x37
 12923 3d10 5102     		.2byte	0x251
 12924 3d12 62400000 		.4byte	0x4062
 12925 3d16 4C       		.byte	0x4c
 12926 3d17 0A       		.uleb128 0xa
 12927 3d18 F0020000 		.4byte	.LASF831
 12928 3d1c 37       		.byte	0x37
 12929 3d1d 5402     		.2byte	0x254
 12930 3d1f AA000000 		.4byte	0xaa
 12931 3d23 50       		.byte	0x50
 12932 3d24 0A       		.uleb128 0xa
 12933 3d25 3D0F0000 		.4byte	.LASF832
 12934 3d29 37       		.byte	0x37
 12935 3d2a 5502     		.2byte	0x255
 12936 3d2c A1370000 		.4byte	0x37a1
 12937 3d30 54       		.byte	0x54
 12938 3d31 0A       		.uleb128 0xa
 12939 3d32 B4050000 		.4byte	.LASF833
 12940 3d36 37       		.byte	0x37
 12941 3d37 7802     		.2byte	0x278
 12942 3d39 14400000 		.4byte	0x4014
 12943 3d3d 58       		.byte	0x58
 12944 3d3e 11       		.uleb128 0x11
 12945 3d3f 6A010000 		.4byte	.LASF793
 12946 3d43 37       		.byte	0x37
 12947 3d44 7C02     		.2byte	0x27c
 12948 3d46 B83A0000 		.4byte	0x3ab8
 12949 3d4a 4801     		.2byte	0x148
 12950 3d4c 11       		.uleb128 0x11
 12951 3d4d 751E0000 		.4byte	.LASF834
 12952 3d51 37       		.byte	0x37
 12953 3d52 7D02     		.2byte	0x27d
 12954 3d54 7A3A0000 		.4byte	0x3a7a
 12955 3d58 4C01     		.2byte	0x14c
 12956 3d5a 11       		.uleb128 0x11
 12957 3d5b 2C030000 		.4byte	.LASF835
 12958 3d5f 37       		.byte	0x37
 12959 3d60 8102     		.2byte	0x281
 12960 3d62 73400000 		.4byte	0x4073
 12961 3d66 DC02     		.2byte	0x2dc
 12962 3d68 11       		.uleb128 0x11
 12963 3d69 35200000 		.4byte	.LASF836
 12964 3d6d 37       		.byte	0x37
 12965 3d6e 8602     		.2byte	0x286
 12966 3d70 193E0000 		.4byte	0x3e19
 12967 3d74 E002     		.2byte	0x2e0
 12968 3d76 11       		.uleb128 0x11
 12969 3d77 E3060000 		.4byte	.LASF837
 12970 3d7b 37       		.byte	0x37
 12971 3d7c 8802     		.2byte	0x288
ARM GAS  /var/folders/bw/wdbp2_bd0pn7gl5ybd33xbb80000gn/T//ccZ5cvgj.s 			page 234


 12972 3d7e 7F400000 		.4byte	0x407f
 12973 3d82 EC02     		.2byte	0x2ec
 12974 3d84 00       		.byte	0
 12975 3d85 0B       		.uleb128 0xb
 12976 3d86 04       		.byte	0x4
 12977 3d87 2A3C0000 		.4byte	0x3c2a
 12978 3d8b 20       		.uleb128 0x20
 12979 3d8c AA000000 		.4byte	0xaa
 12980 3d90 A93D0000 		.4byte	0x3da9
 12981 3d94 0E       		.uleb128 0xe
 12982 3d95 483C0000 		.4byte	0x3c48
 12983 3d99 0E       		.uleb128 0xe
 12984 3d9a D0030000 		.4byte	0x3d0
 12985 3d9e 0E       		.uleb128 0xe
 12986 3d9f 15110000 		.4byte	0x1115
 12987 3da3 0E       		.uleb128 0xe
 12988 3da4 AA000000 		.4byte	0xaa
 12989 3da8 00       		.byte	0
 12990 3da9 0B       		.uleb128 0xb
 12991 3daa 04       		.byte	0x4
 12992 3dab 8B3D0000 		.4byte	0x3d8b
 12993 3daf 20       		.uleb128 0x20
 12994 3db0 24370000 		.4byte	0x3724
 12995 3db4 CD3D0000 		.4byte	0x3dcd
 12996 3db8 0E       		.uleb128 0xe
 12997 3db9 483C0000 		.4byte	0x3c48
 12998 3dbd 0E       		.uleb128 0xe
 12999 3dbe D0030000 		.4byte	0x3d0
 13000 3dc2 0E       		.uleb128 0xe
 13001 3dc3 24370000 		.4byte	0x3724
 13002 3dc7 0E       		.uleb128 0xe
 13003 3dc8 AA000000 		.4byte	0xaa
 13004 3dcc 00       		.byte	0
 13005 3dcd 0B       		.uleb128 0xb
 13006 3dce 04       		.byte	0x4
 13007 3dcf AF3D0000 		.4byte	0x3daf
 13008 3dd3 20       		.uleb128 0x20
 13009 3dd4 AA000000 		.4byte	0xaa
 13010 3dd8 E73D0000 		.4byte	0x3de7
 13011 3ddc 0E       		.uleb128 0xe
 13012 3ddd 483C0000 		.4byte	0x3c48
 13013 3de1 0E       		.uleb128 0xe
 13014 3de2 D0030000 		.4byte	0x3d0
 13015 3de6 00       		.byte	0
 13016 3de7 0B       		.uleb128 0xb
 13017 3de8 04       		.byte	0x4
 13018 3de9 D33D0000 		.4byte	0x3dd3
 13019 3ded 13       		.uleb128 0x13
 13020 3dee 42000000 		.4byte	0x42
 13021 3df2 FD3D0000 		.4byte	0x3dfd
 13022 3df6 14       		.uleb128 0x14
 13023 3df7 B1000000 		.4byte	0xb1
 13024 3dfb 02       		.byte	0x2
 13025 3dfc 00       		.byte	0
 13026 3dfd 13       		.uleb128 0x13
 13027 3dfe 42000000 		.4byte	0x42
 13028 3e02 0D3E0000 		.4byte	0x3e0d
ARM GAS  /var/folders/bw/wdbp2_bd0pn7gl5ybd33xbb80000gn/T//ccZ5cvgj.s 			page 235


 13029 3e06 14       		.uleb128 0x14
 13030 3e07 B1000000 		.4byte	0xb1
 13031 3e0b 00       		.byte	0
 13032 3e0c 00       		.byte	0
 13033 3e0d 1A       		.uleb128 0x1a
 13034 3e0e AD280000 		.4byte	.LASF838
 13035 3e12 37       		.byte	0x37
 13036 3e13 1F01     		.2byte	0x11f
 13037 3e15 003B0000 		.4byte	0x3b00
 13038 3e19 0C       		.uleb128 0xc
 13039 3e1a 561D0000 		.4byte	.LASF839
 13040 3e1e 0C       		.byte	0xc
 13041 3e1f 37       		.byte	0x37
 13042 3e20 2301     		.2byte	0x123
 13043 3e22 4E3E0000 		.4byte	0x3e4e
 13044 3e26 0A       		.uleb128 0xa
 13045 3e27 22130000 		.4byte	.LASF774
 13046 3e2b 37       		.byte	0x37
 13047 3e2c 2501     		.2byte	0x125
 13048 3e2e 4E3E0000 		.4byte	0x3e4e
 13049 3e32 00       		.byte	0
 13050 3e33 0A       		.uleb128 0xa
 13051 3e34 92100000 		.4byte	.LASF840
 13052 3e38 37       		.byte	0x37
 13053 3e39 2601     		.2byte	0x126
 13054 3e3b AA000000 		.4byte	0xaa
 13055 3e3f 04       		.byte	0x4
 13056 3e40 0A       		.uleb128 0xa
 13057 3e41 6F1B0000 		.4byte	.LASF841
 13058 3e45 37       		.byte	0x37
 13059 3e46 2701     		.2byte	0x127
 13060 3e48 543E0000 		.4byte	0x3e54
 13061 3e4c 08       		.byte	0x8
 13062 3e4d 00       		.byte	0
 13063 3e4e 0B       		.uleb128 0xb
 13064 3e4f 04       		.byte	0x4
 13065 3e50 193E0000 		.4byte	0x3e19
 13066 3e54 0B       		.uleb128 0xb
 13067 3e55 04       		.byte	0x4
 13068 3e56 0D3E0000 		.4byte	0x3e0d
 13069 3e5a 0C       		.uleb128 0xc
 13070 3e5b 002A0000 		.4byte	.LASF842
 13071 3e5f 0E       		.byte	0xe
 13072 3e60 37       		.byte	0x37
 13073 3e61 3F01     		.2byte	0x13f
 13074 3e63 8F3E0000 		.4byte	0x3e8f
 13075 3e67 0A       		.uleb128 0xa
 13076 3e68 F8160000 		.4byte	.LASF843
 13077 3e6c 37       		.byte	0x37
 13078 3e6d 4001     		.2byte	0x140
 13079 3e6f 8F3E0000 		.4byte	0x3e8f
 13080 3e73 00       		.byte	0
 13081 3e74 0A       		.uleb128 0xa
 13082 3e75 B7290000 		.4byte	.LASF844
 13083 3e79 37       		.byte	0x37
 13084 3e7a 4101     		.2byte	0x141
 13085 3e7c 8F3E0000 		.4byte	0x3e8f
ARM GAS  /var/folders/bw/wdbp2_bd0pn7gl5ybd33xbb80000gn/T//ccZ5cvgj.s 			page 236


 13086 3e80 06       		.byte	0x6
 13087 3e81 0A       		.uleb128 0xa
 13088 3e82 8D190000 		.4byte	.LASF845
 13089 3e86 37       		.byte	0x37
 13090 3e87 4201     		.2byte	0x142
 13091 3e89 66000000 		.4byte	0x66
 13092 3e8d 0C       		.byte	0xc
 13093 3e8e 00       		.byte	0
 13094 3e8f 13       		.uleb128 0x13
 13095 3e90 66000000 		.4byte	0x66
 13096 3e94 9F3E0000 		.4byte	0x3e9f
 13097 3e98 14       		.uleb128 0x14
 13098 3e99 B1000000 		.4byte	0xb1
 13099 3e9d 02       		.byte	0x2
 13100 3e9e 00       		.byte	0
 13101 3e9f 19       		.uleb128 0x19
 13102 3ea0 D0       		.byte	0xd0
 13103 3ea1 37       		.byte	0x37
 13104 3ea2 5902     		.2byte	0x259
 13105 3ea4 A03F0000 		.4byte	0x3fa0
 13106 3ea8 0A       		.uleb128 0xa
 13107 3ea9 C2080000 		.4byte	.LASF846
 13108 3ead 37       		.byte	0x37
 13109 3eae 5B02     		.2byte	0x25b
 13110 3eb0 B1000000 		.4byte	0xb1
 13111 3eb4 00       		.byte	0
 13112 3eb5 0A       		.uleb128 0xa
 13113 3eb6 AE160000 		.4byte	.LASF847
 13114 3eba 37       		.byte	0x37
 13115 3ebb 5C02     		.2byte	0x25c
 13116 3ebd A1370000 		.4byte	0x37a1
 13117 3ec1 04       		.byte	0x4
 13118 3ec2 0A       		.uleb128 0xa
 13119 3ec3 CE190000 		.4byte	.LASF848
 13120 3ec7 37       		.byte	0x37
 13121 3ec8 5D02     		.2byte	0x25d
 13122 3eca A03F0000 		.4byte	0x3fa0
 13123 3ece 08       		.byte	0x8
 13124 3ecf 0A       		.uleb128 0xa
 13125 3ed0 C3140000 		.4byte	.LASF849
 13126 3ed4 37       		.byte	0x37
 13127 3ed5 5E02     		.2byte	0x25e
 13128 3ed7 B1390000 		.4byte	0x39b1
 13129 3edb 24       		.byte	0x24
 13130 3edc 0A       		.uleb128 0xa
 13131 3edd BA240000 		.4byte	.LASF850
 13132 3ee1 37       		.byte	0x37
 13133 3ee2 5F02     		.2byte	0x25f
 13134 3ee4 AA000000 		.4byte	0xaa
 13135 3ee8 48       		.byte	0x48
 13136 3ee9 0A       		.uleb128 0xa
 13137 3eea A51B0000 		.4byte	.LASF851
 13138 3eee 37       		.byte	0x37
 13139 3eef 6002     		.2byte	0x260
 13140 3ef1 A3000000 		.4byte	0xa3
 13141 3ef5 50       		.byte	0x50
 13142 3ef6 0A       		.uleb128 0xa
ARM GAS  /var/folders/bw/wdbp2_bd0pn7gl5ybd33xbb80000gn/T//ccZ5cvgj.s 			page 237


 13143 3ef7 EE270000 		.4byte	.LASF852
 13144 3efb 37       		.byte	0x37
 13145 3efc 6102     		.2byte	0x261
 13146 3efe 5A3E0000 		.4byte	0x3e5a
 13147 3f02 58       		.byte	0x58
 13148 3f03 0A       		.uleb128 0xa
 13149 3f04 28200000 		.4byte	.LASF853
 13150 3f08 37       		.byte	0x37
 13151 3f09 6202     		.2byte	0x262
 13152 3f0b 8B370000 		.4byte	0x378b
 13153 3f0f 68       		.byte	0x68
 13154 3f10 0A       		.uleb128 0xa
 13155 3f11 12070000 		.4byte	.LASF854
 13156 3f15 37       		.byte	0x37
 13157 3f16 6302     		.2byte	0x263
 13158 3f18 8B370000 		.4byte	0x378b
 13159 3f1c 70       		.byte	0x70
 13160 3f1d 0A       		.uleb128 0xa
 13161 3f1e 6C040000 		.4byte	.LASF855
 13162 3f22 37       		.byte	0x37
 13163 3f23 6402     		.2byte	0x264
 13164 3f25 8B370000 		.4byte	0x378b
 13165 3f29 78       		.byte	0x78
 13166 3f2a 0A       		.uleb128 0xa
 13167 3f2b C4190000 		.4byte	.LASF856
 13168 3f2f 37       		.byte	0x37
 13169 3f30 6502     		.2byte	0x265
 13170 3f32 B03F0000 		.4byte	0x3fb0
 13171 3f36 80       		.byte	0x80
 13172 3f37 0A       		.uleb128 0xa
 13173 3f38 58130000 		.4byte	.LASF857
 13174 3f3c 37       		.byte	0x37
 13175 3f3d 6602     		.2byte	0x266
 13176 3f3f C03F0000 		.4byte	0x3fc0
 13177 3f43 88       		.byte	0x88
 13178 3f44 0A       		.uleb128 0xa
 13179 3f45 E61E0000 		.4byte	.LASF858
 13180 3f49 37       		.byte	0x37
 13181 3f4a 6702     		.2byte	0x267
 13182 3f4c AA000000 		.4byte	0xaa
 13183 3f50 A0       		.byte	0xa0
 13184 3f51 0A       		.uleb128 0xa
 13185 3f52 FD0C0000 		.4byte	.LASF859
 13186 3f56 37       		.byte	0x37
 13187 3f57 6802     		.2byte	0x268
 13188 3f59 8B370000 		.4byte	0x378b
 13189 3f5d A4       		.byte	0xa4
 13190 3f5e 0A       		.uleb128 0xa
 13191 3f5f 4D000000 		.4byte	.LASF860
 13192 3f63 37       		.byte	0x37
 13193 3f64 6902     		.2byte	0x269
 13194 3f66 8B370000 		.4byte	0x378b
 13195 3f6a AC       		.byte	0xac
 13196 3f6b 0A       		.uleb128 0xa
 13197 3f6c B80A0000 		.4byte	.LASF861
 13198 3f70 37       		.byte	0x37
 13199 3f71 6A02     		.2byte	0x26a
ARM GAS  /var/folders/bw/wdbp2_bd0pn7gl5ybd33xbb80000gn/T//ccZ5cvgj.s 			page 238


 13200 3f73 8B370000 		.4byte	0x378b
 13201 3f77 B4       		.byte	0xb4
 13202 3f78 0A       		.uleb128 0xa
 13203 3f79 3E150000 		.4byte	.LASF862
 13204 3f7d 37       		.byte	0x37
 13205 3f7e 6B02     		.2byte	0x26b
 13206 3f80 8B370000 		.4byte	0x378b
 13207 3f84 BC       		.byte	0xbc
 13208 3f85 0A       		.uleb128 0xa
 13209 3f86 1D1A0000 		.4byte	.LASF863
 13210 3f8a 37       		.byte	0x37
 13211 3f8b 6C02     		.2byte	0x26c
 13212 3f8d 8B370000 		.4byte	0x378b
 13213 3f91 C4       		.byte	0xc4
 13214 3f92 0A       		.uleb128 0xa
 13215 3f93 9A210000 		.4byte	.LASF864
 13216 3f97 37       		.byte	0x37
 13217 3f98 6D02     		.2byte	0x26d
 13218 3f9a AA000000 		.4byte	0xaa
 13219 3f9e CC       		.byte	0xcc
 13220 3f9f 00       		.byte	0
 13221 3fa0 13       		.uleb128 0x13
 13222 3fa1 20110000 		.4byte	0x1120
 13223 3fa5 B03F0000 		.4byte	0x3fb0
 13224 3fa9 14       		.uleb128 0x14
 13225 3faa B1000000 		.4byte	0xb1
 13226 3fae 19       		.byte	0x19
 13227 3faf 00       		.byte	0
 13228 3fb0 13       		.uleb128 0x13
 13229 3fb1 20110000 		.4byte	0x1120
 13230 3fb5 C03F0000 		.4byte	0x3fc0
 13231 3fb9 14       		.uleb128 0x14
 13232 3fba B1000000 		.4byte	0xb1
 13233 3fbe 07       		.byte	0x7
 13234 3fbf 00       		.byte	0
 13235 3fc0 13       		.uleb128 0x13
 13236 3fc1 20110000 		.4byte	0x1120
 13237 3fc5 D03F0000 		.4byte	0x3fd0
 13238 3fc9 14       		.uleb128 0x14
 13239 3fca B1000000 		.4byte	0xb1
 13240 3fce 17       		.byte	0x17
 13241 3fcf 00       		.byte	0
 13242 3fd0 19       		.uleb128 0x19
 13243 3fd1 F0       		.byte	0xf0
 13244 3fd2 37       		.byte	0x37
 13245 3fd3 7202     		.2byte	0x272
 13246 3fd5 F43F0000 		.4byte	0x3ff4
 13247 3fd9 0A       		.uleb128 0xa
 13248 3fda 35270000 		.4byte	.LASF865
 13249 3fde 37       		.byte	0x37
 13250 3fdf 7502     		.2byte	0x275
 13251 3fe1 F43F0000 		.4byte	0x3ff4
 13252 3fe5 00       		.byte	0
 13253 3fe6 0A       		.uleb128 0xa
 13254 3fe7 720D0000 		.4byte	.LASF866
 13255 3feb 37       		.byte	0x37
 13256 3fec 7602     		.2byte	0x276
ARM GAS  /var/folders/bw/wdbp2_bd0pn7gl5ybd33xbb80000gn/T//ccZ5cvgj.s 			page 239


 13257 3fee 04400000 		.4byte	0x4004
 13258 3ff2 78       		.byte	0x78
 13259 3ff3 00       		.byte	0
 13260 3ff4 13       		.uleb128 0x13
 13261 3ff5 FA3A0000 		.4byte	0x3afa
 13262 3ff9 04400000 		.4byte	0x4004
 13263 3ffd 14       		.uleb128 0x14
 13264 3ffe B1000000 		.4byte	0xb1
 13265 4002 1D       		.byte	0x1d
 13266 4003 00       		.byte	0
 13267 4004 13       		.uleb128 0x13
 13268 4005 B1000000 		.4byte	0xb1
 13269 4009 14400000 		.4byte	0x4014
 13270 400d 14       		.uleb128 0x14
 13271 400e B1000000 		.4byte	0xb1
 13272 4012 1D       		.byte	0x1d
 13273 4013 00       		.byte	0
 13274 4014 2B       		.uleb128 0x2b
 13275 4015 F0       		.byte	0xf0
 13276 4016 37       		.byte	0x37
 13277 4017 5702     		.2byte	0x257
 13278 4019 36400000 		.4byte	0x4036
 13279 401d 1E       		.uleb128 0x1e
 13280 401e B0190000 		.4byte	.LASF816
 13281 4022 37       		.byte	0x37
 13282 4023 6E02     		.2byte	0x26e
 13283 4025 9F3E0000 		.4byte	0x3e9f
 13284 4029 1E       		.uleb128 0x1e
 13285 402a DA1F0000 		.4byte	.LASF867
 13286 402e 37       		.byte	0x37
 13287 402f 7702     		.2byte	0x277
 13288 4031 D03F0000 		.4byte	0x3fd0
 13289 4035 00       		.byte	0
 13290 4036 13       		.uleb128 0x13
 13291 4037 20110000 		.4byte	0x1120
 13292 403b 46400000 		.4byte	0x4046
 13293 403f 14       		.uleb128 0x14
 13294 4040 B1000000 		.4byte	0xb1
 13295 4044 18       		.byte	0x18
 13296 4045 00       		.byte	0
 13297 4046 2C       		.uleb128 0x2c
 13298 4047 3D200000 		.4byte	.LASF869
 13299 404b 0B       		.uleb128 0xb
 13300 404c 04       		.byte	0x4
 13301 404d 46400000 		.4byte	0x4046
 13302 4051 0D       		.uleb128 0xd
 13303 4052 5C400000 		.4byte	0x405c
 13304 4056 0E       		.uleb128 0xe
 13305 4057 483C0000 		.4byte	0x3c48
 13306 405b 00       		.byte	0
 13307 405c 0B       		.uleb128 0xb
 13308 405d 04       		.byte	0x4
 13309 405e 51400000 		.4byte	0x4051
 13310 4062 0B       		.uleb128 0xb
 13311 4063 04       		.byte	0x4
 13312 4064 9B390000 		.4byte	0x399b
 13313 4068 0D       		.uleb128 0xd
ARM GAS  /var/folders/bw/wdbp2_bd0pn7gl5ybd33xbb80000gn/T//ccZ5cvgj.s 			page 240


 13314 4069 73400000 		.4byte	0x4073
 13315 406d 0E       		.uleb128 0xe
 13316 406e AA000000 		.4byte	0xaa
 13317 4072 00       		.byte	0
 13318 4073 0B       		.uleb128 0xb
 13319 4074 04       		.byte	0x4
 13320 4075 79400000 		.4byte	0x4079
 13321 4079 0B       		.uleb128 0xb
 13322 407a 04       		.byte	0x4
 13323 407b 68400000 		.4byte	0x4068
 13324 407f 13       		.uleb128 0x13
 13325 4080 0D3E0000 		.4byte	0x3e0d
 13326 4084 8F400000 		.4byte	0x408f
 13327 4088 14       		.uleb128 0x14
 13328 4089 B1000000 		.4byte	0xb1
 13329 408d 02       		.byte	0x2
 13330 408e 00       		.byte	0
 13331 408f 15       		.uleb128 0x15
 13332 4090 BF1F0000 		.4byte	.LASF870
 13333 4094 37       		.byte	0x37
 13334 4095 0703     		.2byte	0x307
 13335 4097 483C0000 		.4byte	0x3c48
 13336 409b 15       		.uleb128 0x15
 13337 409c ED230000 		.4byte	.LASF871
 13338 40a0 37       		.byte	0x37
 13339 40a1 0803     		.2byte	0x308
 13340 40a3 4E3C0000 		.4byte	0x3c4e
 13341 40a7 16       		.uleb128 0x16
 13342 40a8 B5010000 		.4byte	.LASF872
 13343 40ac 38       		.byte	0x38
 13344 40ad 63       		.byte	0x63
 13345 40ae A1370000 		.4byte	0x37a1
 13346 40b2 02       		.uleb128 0x2
 13347 40b3 8A130000 		.4byte	.LASF873
 13348 40b7 39       		.byte	0x39
 13349 40b8 08       		.byte	0x8
 13350 40b9 BD400000 		.4byte	0x40bd
 13351 40bd 07       		.uleb128 0x7
 13352 40be 82220000 		.4byte	.LASF874
 13353 40c2 18       		.byte	0x18
 13354 40c3 39       		.byte	0x39
 13355 40c4 0B       		.byte	0xb
 13356 40c5 11410000 		.4byte	0x4111
 13357 40c9 18       		.uleb128 0x18
 13358 40ca 696400   		.ascii	"id\000"
 13359 40cd 39       		.byte	0x39
 13360 40ce 0C       		.byte	0xc
 13361 40cf 15110000 		.4byte	0x1115
 13362 40d3 00       		.byte	0
 13363 40d4 08       		.uleb128 0x8
 13364 40d5 A9010000 		.4byte	.LASF875
 13365 40d9 39       		.byte	0x39
 13366 40da 0D       		.byte	0xd
 13367 40db E9000000 		.4byte	0xe9
 13368 40df 04       		.byte	0x4
 13369 40e0 08       		.uleb128 0x8
 13370 40e1 0F050000 		.4byte	.LASF876
ARM GAS  /var/folders/bw/wdbp2_bd0pn7gl5ybd33xbb80000gn/T//ccZ5cvgj.s 			page 241


 13371 40e5 39       		.byte	0x39
 13372 40e6 0E       		.byte	0xe
 13373 40e7 7B410000 		.4byte	0x417b
 13374 40eb 08       		.byte	0x8
 13375 40ec 08       		.uleb128 0x8
 13376 40ed 120C0000 		.4byte	.LASF877
 13377 40f1 39       		.byte	0x39
 13378 40f2 0F       		.byte	0xf
 13379 40f3 7B410000 		.4byte	0x417b
 13380 40f7 0C       		.byte	0xc
 13381 40f8 08       		.uleb128 0x8
 13382 40f9 A9020000 		.4byte	.LASF762
 13383 40fd 39       		.byte	0x39
 13384 40fe 10       		.byte	0x10
 13385 40ff 7B410000 		.4byte	0x417b
 13386 4103 10       		.byte	0x10
 13387 4104 08       		.uleb128 0x8
 13388 4105 9E280000 		.4byte	.LASF878
 13389 4109 39       		.byte	0x39
 13390 410a 11       		.byte	0x11
 13391 410b 81410000 		.4byte	0x4181
 13392 410f 14       		.byte	0x14
 13393 4110 00       		.byte	0
 13394 4111 02       		.uleb128 0x2
 13395 4112 69170000 		.4byte	.LASF879
 13396 4116 39       		.byte	0x39
 13397 4117 09       		.byte	0x9
 13398 4118 1C410000 		.4byte	0x411c
 13399 411c 07       		.uleb128 0x7
 13400 411d 2B120000 		.4byte	.LASF880
 13401 4121 18       		.byte	0x18
 13402 4122 39       		.byte	0x39
 13403 4123 2E       		.byte	0x2e
 13404 4124 7B410000 		.4byte	0x417b
 13405 4128 18       		.uleb128 0x18
 13406 4129 696400   		.ascii	"id\000"
 13407 412c 39       		.byte	0x39
 13408 412d 2F       		.byte	0x2f
 13409 412e 15110000 		.4byte	0x1115
 13410 4132 00       		.byte	0
 13411 4133 18       		.uleb128 0x18
 13412 4134 6E7300   		.ascii	"ns\000"
 13413 4137 39       		.byte	0x39
 13414 4138 30       		.byte	0x30
 13415 4139 7B410000 		.4byte	0x417b
 13416 413d 04       		.byte	0x4
 13417 413e 08       		.uleb128 0x8
 13418 413f A9020000 		.4byte	.LASF762
 13419 4143 39       		.byte	0x39
 13420 4144 31       		.byte	0x31
 13421 4145 81410000 		.4byte	0x4181
 13422 4149 08       		.byte	0x8
 13423 414a 08       		.uleb128 0x8
 13424 414b 87210000 		.4byte	.LASF881
 13425 414f 39       		.byte	0x39
 13426 4150 32       		.byte	0x32
 13427 4151 A4150000 		.4byte	0x15a4
ARM GAS  /var/folders/bw/wdbp2_bd0pn7gl5ybd33xbb80000gn/T//ccZ5cvgj.s 			page 242


 13428 4155 0C       		.byte	0xc
 13429 4156 08       		.uleb128 0x8
 13430 4157 ED120000 		.4byte	.LASF882
 13431 415b 39       		.byte	0x39
 13432 415c 33       		.byte	0x33
 13433 415d A4150000 		.4byte	0x15a4
 13434 4161 0D       		.byte	0xd
 13435 4162 08       		.uleb128 0x8
 13436 4163 38080000 		.4byte	.LASF883
 13437 4167 39       		.byte	0x39
 13438 4168 34       		.byte	0x34
 13439 4169 C3000000 		.4byte	0xc3
 13440 416d 0E       		.byte	0xe
 13441 416e 08       		.uleb128 0x8
 13442 416f 190D0000 		.4byte	.LASF884
 13443 4173 39       		.byte	0x39
 13444 4174 3C       		.byte	0x3c
 13445 4175 23420000 		.4byte	0x4223
 13446 4179 10       		.byte	0x10
 13447 417a 00       		.byte	0
 13448 417b 0B       		.uleb128 0xb
 13449 417c 04       		.byte	0x4
 13450 417d B2400000 		.4byte	0x40b2
 13451 4181 0B       		.uleb128 0xb
 13452 4182 04       		.byte	0x4
 13453 4183 11410000 		.4byte	0x4111
 13454 4187 07       		.uleb128 0x7
 13455 4188 431A0000 		.4byte	.LASF885
 13456 418c 08       		.byte	0x8
 13457 418d 39       		.byte	0x39
 13458 418e 14       		.byte	0x14
 13459 418f B8410000 		.4byte	0x41b8
 13460 4193 18       		.uleb128 0x18
 13461 4194 62756600 		.ascii	"buf\000"
 13462 4198 39       		.byte	0x39
 13463 4199 15       		.byte	0x15
 13464 419a A1370000 		.4byte	0x37a1
 13465 419e 00       		.byte	0
 13466 419f 08       		.uleb128 0x8
 13467 41a0 60280000 		.4byte	.LASF886
 13468 41a4 39       		.byte	0x39
 13469 41a5 16       		.byte	0x16
 13470 41a6 DE000000 		.4byte	0xde
 13471 41aa 04       		.byte	0x4
 13472 41ab 18       		.uleb128 0x18
 13473 41ac 6C656E00 		.ascii	"len\000"
 13474 41b0 39       		.byte	0x39
 13475 41b1 17       		.byte	0x17
 13476 41b2 DE000000 		.4byte	0xde
 13477 41b6 06       		.byte	0x6
 13478 41b7 00       		.byte	0
 13479 41b8 07       		.uleb128 0x7
 13480 41b9 D1180000 		.4byte	.LASF887
 13481 41bd 08       		.byte	0x8
 13482 41be 39       		.byte	0x39
 13483 41bf 1A       		.byte	0x1a
 13484 41c0 E9410000 		.4byte	0x41e9
ARM GAS  /var/folders/bw/wdbp2_bd0pn7gl5ybd33xbb80000gn/T//ccZ5cvgj.s 			page 243


 13485 41c4 18       		.uleb128 0x18
 13486 41c5 62756600 		.ascii	"buf\000"
 13487 41c9 39       		.byte	0x39
 13488 41ca 1B       		.byte	0x1b
 13489 41cb E9410000 		.4byte	0x41e9
 13490 41cf 00       		.byte	0
 13491 41d0 08       		.uleb128 0x8
 13492 41d1 BB090000 		.4byte	.LASF888
 13493 41d5 39       		.byte	0x39
 13494 41d6 1C       		.byte	0x1c
 13495 41d7 DE000000 		.4byte	0xde
 13496 41db 04       		.byte	0x4
 13497 41dc 18       		.uleb128 0x18
 13498 41dd 64696D00 		.ascii	"dim\000"
 13499 41e1 39       		.byte	0x39
 13500 41e2 1D       		.byte	0x1d
 13501 41e3 DE000000 		.4byte	0xde
 13502 41e7 06       		.byte	0x6
 13503 41e8 00       		.byte	0
 13504 41e9 0B       		.uleb128 0xb
 13505 41ea 04       		.byte	0x4
 13506 41eb EF410000 		.4byte	0x41ef
 13507 41ef 03       		.uleb128 0x3
 13508 41f0 04       		.byte	0x4
 13509 41f1 04       		.byte	0x4
 13510 41f2 E40A0000 		.4byte	.LASF889
 13511 41f6 07       		.uleb128 0x7
 13512 41f7 7E100000 		.4byte	.LASF890
 13513 41fb 08       		.byte	0x8
 13514 41fc 39       		.byte	0x39
 13515 41fd 20       		.byte	0x20
 13516 41fe 23420000 		.4byte	0x4223
 13517 4202 18       		.uleb128 0x18
 13518 4203 62756600 		.ascii	"buf\000"
 13519 4207 39       		.byte	0x39
 13520 4208 21       		.byte	0x21
 13521 4209 E9410000 		.4byte	0x41e9
 13522 420d 00       		.byte	0
 13523 420e 18       		.uleb128 0x18
 13524 420f 6E00     		.ascii	"n\000"
 13525 4211 39       		.byte	0x39
 13526 4212 22       		.byte	0x22
 13527 4213 DE000000 		.4byte	0xde
 13528 4217 04       		.byte	0x4
 13529 4218 18       		.uleb128 0x18
 13530 4219 6D00     		.ascii	"m\000"
 13531 421b 39       		.byte	0x39
 13532 421c 23       		.byte	0x23
 13533 421d DE000000 		.4byte	0xde
 13534 4221 06       		.byte	0x6
 13535 4222 00       		.byte	0
 13536 4223 1D       		.uleb128 0x1d
 13537 4224 08       		.byte	0x8
 13538 4225 39       		.byte	0x39
 13539 4226 35       		.byte	0x35
 13540 4227 68420000 		.4byte	0x4268
 13541 422b 23       		.uleb128 0x23
ARM GAS  /var/folders/bw/wdbp2_bd0pn7gl5ybd33xbb80000gn/T//ccZ5cvgj.s 			page 244


 13542 422c 6200     		.ascii	"b\000"
 13543 422e 39       		.byte	0x39
 13544 422f 36       		.byte	0x36
 13545 4230 A4150000 		.4byte	0x15a4
 13546 4234 23       		.uleb128 0x23
 13547 4235 7300     		.ascii	"s\000"
 13548 4237 39       		.byte	0x39
 13549 4238 37       		.byte	0x37
 13550 4239 EF410000 		.4byte	0x41ef
 13551 423d 23       		.uleb128 0x23
 13552 423e 6900     		.ascii	"i\000"
 13553 4240 39       		.byte	0x39
 13554 4241 38       		.byte	0x38
 13555 4242 E9000000 		.4byte	0xe9
 13556 4246 23       		.uleb128 0x23
 13557 4247 73747200 		.ascii	"str\000"
 13558 424b 39       		.byte	0x39
 13559 424c 39       		.byte	0x39
 13560 424d 87410000 		.4byte	0x4187
 13561 4251 2A       		.uleb128 0x2a
 13562 4252 F6000000 		.4byte	.LASF891
 13563 4256 39       		.byte	0x39
 13564 4257 3A       		.byte	0x3a
 13565 4258 B8410000 		.4byte	0x41b8
 13566 425c 23       		.uleb128 0x23
 13567 425d 6D617400 		.ascii	"mat\000"
 13568 4261 39       		.byte	0x39
 13569 4262 3B       		.byte	0x3b
 13570 4263 F6410000 		.4byte	0x41f6
 13571 4267 00       		.byte	0
 13572 4268 03       		.uleb128 0x3
 13573 4269 08       		.byte	0x8
 13574 426a 04       		.byte	0x4
 13575 426b 40210000 		.4byte	.LASF892
 13576 426f 2F       		.uleb128 0x2f
 13577 4270 7B1A0000 		.4byte	.LASF1018
 13578 4274 05       		.byte	0x5
 13579 4275 01       		.byte	0x1
 13580 4276 30000000 		.4byte	0x30
 13581 427a 3A       		.byte	0x3a
 13582 427b 8202     		.2byte	0x282
 13583 427d 9A420000 		.4byte	0x429a
 13584 4281 30       		.uleb128 0x30
 13585 4282 B7170000 		.4byte	.LASF893
 13586 4286 7F       		.sleb128 -1
 13587 4287 22       		.uleb128 0x22
 13588 4288 1E030000 		.4byte	.LASF894
 13589 428c 00       		.byte	0
 13590 428d 22       		.uleb128 0x22
 13591 428e 75170000 		.4byte	.LASF895
 13592 4292 01       		.byte	0x1
 13593 4293 22       		.uleb128 0x22
 13594 4294 DE090000 		.4byte	.LASF896
 13595 4298 02       		.byte	0x2
 13596 4299 00       		.byte	0
 13597 429a 15       		.uleb128 0x15
 13598 429b 23290000 		.4byte	.LASF897
ARM GAS  /var/folders/bw/wdbp2_bd0pn7gl5ybd33xbb80000gn/T//ccZ5cvgj.s 			page 245


 13599 429f 3A       		.byte	0x3a
 13600 42a0 8D02     		.2byte	0x28d
 13601 42a2 6F420000 		.4byte	0x426f
 13602 42a6 31       		.uleb128 0x31
 13603 42a7 62757300 		.ascii	"bus\000"
 13604 42ab 3B       		.byte	0x3b
 13605 42ac 24       		.byte	0x24
 13606 42ad F0380000 		.4byte	0x38f0
 13607 42b1 16       		.uleb128 0x16
 13608 42b2 830E0000 		.4byte	.LASF898
 13609 42b6 3B       		.byte	0x3b
 13610 42b7 26       		.byte	0x26
 13611 42b8 B2400000 		.4byte	0x40b2
 13612 42bc 21       		.uleb128 0x21
 13613 42bd 07       		.byte	0x7
 13614 42be 01       		.byte	0x1
 13615 42bf 42000000 		.4byte	0x42
 13616 42c3 3C       		.byte	0x3c
 13617 42c4 70       		.byte	0x70
 13618 42c5 2A430000 		.4byte	0x432a
 13619 42c9 22       		.uleb128 0x22
 13620 42ca 90030000 		.4byte	.LASF899
 13621 42ce 00       		.byte	0
 13622 42cf 22       		.uleb128 0x22
 13623 42d0 4C020000 		.4byte	.LASF900
 13624 42d4 01       		.byte	0x1
 13625 42d5 22       		.uleb128 0x22
 13626 42d6 780B0000 		.4byte	.LASF901
 13627 42da 02       		.byte	0x2
 13628 42db 22       		.uleb128 0x22
 13629 42dc 231C0000 		.4byte	.LASF902
 13630 42e0 03       		.byte	0x3
 13631 42e1 22       		.uleb128 0x22
 13632 42e2 A3210000 		.4byte	.LASF903
 13633 42e6 04       		.byte	0x4
 13634 42e7 22       		.uleb128 0x22
 13635 42e8 73080000 		.4byte	.LASF904
 13636 42ec 05       		.byte	0x5
 13637 42ed 22       		.uleb128 0x22
 13638 42ee BF0C0000 		.4byte	.LASF905
 13639 42f2 06       		.byte	0x6
 13640 42f3 22       		.uleb128 0x22
 13641 42f4 41220000 		.4byte	.LASF906
 13642 42f8 07       		.byte	0x7
 13643 42f9 22       		.uleb128 0x22
 13644 42fa 7B0E0000 		.4byte	.LASF907
 13645 42fe 08       		.byte	0x8
 13646 42ff 22       		.uleb128 0x22
 13647 4300 D91D0000 		.4byte	.LASF908
 13648 4304 09       		.byte	0x9
 13649 4305 22       		.uleb128 0x22
 13650 4306 8F290000 		.4byte	.LASF909
 13651 430a 0A       		.byte	0xa
 13652 430b 22       		.uleb128 0x22
 13653 430c EA0A0000 		.4byte	.LASF910
 13654 4310 0B       		.byte	0xb
 13655 4311 22       		.uleb128 0x22
ARM GAS  /var/folders/bw/wdbp2_bd0pn7gl5ybd33xbb80000gn/T//ccZ5cvgj.s 			page 246


 13656 4312 5C000000 		.4byte	.LASF911
 13657 4316 0C       		.byte	0xc
 13658 4317 22       		.uleb128 0x22
 13659 4318 44120000 		.4byte	.LASF912
 13660 431c 0D       		.byte	0xd
 13661 431d 22       		.uleb128 0x22
 13662 431e CA260000 		.4byte	.LASF913
 13663 4322 0E       		.byte	0xe
 13664 4323 22       		.uleb128 0x22
 13665 4324 8B0F0000 		.4byte	.LASF914
 13666 4328 0F       		.byte	0xf
 13667 4329 00       		.byte	0
 13668 432a 21       		.uleb128 0x21
 13669 432b 07       		.byte	0x7
 13670 432c 01       		.byte	0x1
 13671 432d 42000000 		.4byte	0x42
 13672 4331 3C       		.byte	0x3c
 13673 4332 86       		.byte	0x86
 13674 4333 4A430000 		.4byte	0x434a
 13675 4337 22       		.uleb128 0x22
 13676 4338 3C010000 		.4byte	.LASF915
 13677 433c 00       		.byte	0
 13678 433d 22       		.uleb128 0x22
 13679 433e 981E0000 		.4byte	.LASF916
 13680 4342 01       		.byte	0x1
 13681 4343 22       		.uleb128 0x22
 13682 4344 26220000 		.4byte	.LASF917
 13683 4348 02       		.byte	0x2
 13684 4349 00       		.byte	0
 13685 434a 13       		.uleb128 0x13
 13686 434b 27110000 		.4byte	0x1127
 13687 434f 55430000 		.4byte	0x4355
 13688 4353 32       		.uleb128 0x32
 13689 4354 00       		.byte	0
 13690 4355 05       		.uleb128 0x5
 13691 4356 4A430000 		.4byte	0x434a
 13692 435a 16       		.uleb128 0x16
 13693 435b 151A0000 		.4byte	.LASF918
 13694 435f 3D       		.byte	0x3d
 13695 4360 A5       		.byte	0xa5
 13696 4361 55430000 		.4byte	0x4355
 13697 4365 17       		.uleb128 0x17
 13698 4366 0C       		.byte	0xc
 13699 4367 3E       		.byte	0x3e
 13700 4368 16       		.byte	0x16
 13701 4369 92430000 		.4byte	0x4392
 13702 436d 08       		.uleb128 0x8
 13703 436e 700F0000 		.4byte	.LASF919
 13704 4372 3E       		.byte	0x3e
 13705 4373 18       		.byte	0x18
 13706 4374 EF410000 		.4byte	0x41ef
 13707 4378 00       		.byte	0
 13708 4379 08       		.uleb128 0x8
 13709 437a F8020000 		.4byte	.LASF920
 13710 437e 3E       		.byte	0x3e
 13711 437f 1A       		.byte	0x1a
 13712 4380 EF410000 		.4byte	0x41ef
ARM GAS  /var/folders/bw/wdbp2_bd0pn7gl5ybd33xbb80000gn/T//ccZ5cvgj.s 			page 247


 13713 4384 04       		.byte	0x4
 13714 4385 08       		.uleb128 0x8
 13715 4386 D3020000 		.4byte	.LASF921
 13716 438a 3E       		.byte	0x3e
 13717 438b 24       		.byte	0x24
 13718 438c EF410000 		.4byte	0x41ef
 13719 4390 08       		.byte	0x8
 13720 4391 00       		.byte	0
 13721 4392 02       		.uleb128 0x2
 13722 4393 F3200000 		.4byte	.LASF922
 13723 4397 3E       		.byte	0x3e
 13724 4398 28       		.byte	0x28
 13725 4399 65430000 		.4byte	0x4365
 13726 439d 13       		.uleb128 0x13
 13727 439e 20110000 		.4byte	0x1120
 13728 43a2 AE430000 		.4byte	0x43ae
 13729 43a6 29       		.uleb128 0x29
 13730 43a7 B1000000 		.4byte	0xb1
 13731 43ab 2A10     		.2byte	0x102a
 13732 43ad 00       		.byte	0
 13733 43ae 33       		.uleb128 0x33
 13734 43af B31F0000 		.4byte	.LASF755
 13735 43b3 01       		.byte	0x1
 13736 43b4 2E       		.byte	0x2e
 13737 43b5 9D430000 		.4byte	0x439d
 13738 43b9 05       		.uleb128 0x5
 13739 43ba 03       		.byte	0x3
 13740 43bb 00000000 		.4byte	buffer
 13741 43bf 16       		.uleb128 0x16
 13742 43c0 281F0000 		.4byte	.LASF923
 13743 43c4 01       		.byte	0x1
 13744 43c5 30       		.byte	0x30
 13745 43c6 B1000000 		.4byte	0xb1
 13746 43ca 33       		.uleb128 0x33
 13747 43cb 650C0000 		.4byte	.LASF924
 13748 43cf 01       		.byte	0x1
 13749 43d0 31       		.byte	0x31
 13750 43d1 AA000000 		.4byte	0xaa
 13751 43d5 05       		.uleb128 0x5
 13752 43d6 03       		.byte	0x3
 13753 43d7 00000000 		.4byte	selector
 13754 43db 34       		.uleb128 0x34
 13755 43dc 6300     		.ascii	"c\000"
 13756 43de 01       		.byte	0x1
 13757 43df 32       		.byte	0x32
 13758 43e0 20110000 		.4byte	0x1120
 13759 43e4 05       		.uleb128 0x5
 13760 43e5 03       		.byte	0x3
 13761 43e6 00000000 		.4byte	c
 13762 43ea 13       		.uleb128 0x13
 13763 43eb AA000000 		.4byte	0xaa
 13764 43ef FA430000 		.4byte	0x43fa
 13765 43f3 14       		.uleb128 0x14
 13766 43f4 B1000000 		.4byte	0xb1
 13767 43f8 09       		.byte	0x9
 13768 43f9 00       		.byte	0
 13769 43fa 33       		.uleb128 0x33
ARM GAS  /var/folders/bw/wdbp2_bd0pn7gl5ybd33xbb80000gn/T//ccZ5cvgj.s 			page 248


 13770 43fb 02050000 		.4byte	.LASF925
 13771 43ff 01       		.byte	0x1
 13772 4400 33       		.byte	0x33
 13773 4401 EA430000 		.4byte	0x43ea
 13774 4405 05       		.uleb128 0x5
 13775 4406 03       		.byte	0x3
 13776 4407 00000000 		.4byte	e_ambient_ir
 13777 440b 33       		.uleb128 0x33
 13778 440c 2A1B0000 		.4byte	.LASF926
 13779 4410 01       		.byte	0x1
 13780 4411 34       		.byte	0x34
 13781 4412 EA430000 		.4byte	0x43ea
 13782 4416 05       		.uleb128 0x5
 13783 4417 03       		.byte	0x3
 13784 4418 00000000 		.4byte	e_ambient_and_reflected_ir
 13785 441c 35       		.uleb128 0x35
 13786 441d F20D0000 		.4byte	.LASF1019
 13787 4421 01       		.byte	0x1
 13788 4422 3B       		.byte	0x3b
 13789 4423 AA000000 		.4byte	0xaa
 13790 4427 00000000 		.4byte	.LFB259
 13791 442b 58200000 		.4byte	.LFE259-.LFB259
 13792 442f 01       		.uleb128 0x1
 13793 4430 9C       		.byte	0x9c
 13794 4431 4F690000 		.4byte	0x694f
 13795 4435 36       		.uleb128 0x36
 13796 4436 633100   		.ascii	"c1\000"
 13797 4439 01       		.byte	0x1
 13798 443a 3C       		.byte	0x3c
 13799 443b 20110000 		.4byte	0x1120
 13800 443f 05       		.uleb128 0x5
 13801 4440 03       		.byte	0x3
 13802 4441 00000000 		.4byte	c1.13164
 13803 4445 36       		.uleb128 0x36
 13804 4446 633200   		.ascii	"c2\000"
 13805 4449 01       		.byte	0x1
 13806 444a 3C       		.byte	0x3c
 13807 444b 20110000 		.4byte	0x1120
 13808 444f 05       		.uleb128 0x5
 13809 4450 03       		.byte	0x3
 13810 4451 00000000 		.4byte	c2.13165
 13811 4455 37       		.uleb128 0x37
 13812 4456 E8060000 		.4byte	.LASF927
 13813 445a 01       		.byte	0x1
 13814 445b 3C       		.byte	0x3c
 13815 445c 20110000 		.4byte	0x1120
 13816 4460 05       		.uleb128 0x5
 13817 4461 03       		.byte	0x3
 13818 4462 00000000 		.4byte	wait_cam.13166
 13819 4466 36       		.uleb128 0x36
 13820 4467 6900     		.ascii	"i\000"
 13821 4469 01       		.byte	0x1
 13822 446a 3D       		.byte	0x3d
 13823 446b AA000000 		.4byte	0xaa
 13824 446f 05       		.uleb128 0x5
 13825 4470 03       		.byte	0x3
 13826 4471 00000000 		.4byte	i.13167
ARM GAS  /var/folders/bw/wdbp2_bd0pn7gl5ybd33xbb80000gn/T//ccZ5cvgj.s 			page 249


 13827 4475 36       		.uleb128 0x36
 13828 4476 6A00     		.ascii	"j\000"
 13829 4478 01       		.byte	0x1
 13830 4479 3D       		.byte	0x3d
 13831 447a AA000000 		.4byte	0xaa
 13832 447e 05       		.uleb128 0x5
 13833 447f 03       		.byte	0x3
 13834 4480 00000000 		.4byte	j.13168
 13835 4484 38       		.uleb128 0x38
 13836 4485 6E00     		.ascii	"n\000"
 13837 4487 01       		.byte	0x1
 13838 4488 3D       		.byte	0x3d
 13839 4489 AA000000 		.4byte	0xaa
 13840 448d 37       		.uleb128 0x37
 13841 448e C4150000 		.4byte	.LASF928
 13842 4492 01       		.byte	0x1
 13843 4493 3D       		.byte	0x3d
 13844 4494 AA000000 		.4byte	0xaa
 13845 4498 05       		.uleb128 0x5
 13846 4499 03       		.byte	0x3
 13847 449a 00000000 		.4byte	speedr.13170
 13848 449e 37       		.uleb128 0x37
 13849 449f A8150000 		.4byte	.LASF929
 13850 44a3 01       		.byte	0x1
 13851 44a4 3D       		.byte	0x3d
 13852 44a5 AA000000 		.4byte	0xaa
 13853 44a9 05       		.uleb128 0x5
 13854 44aa 03       		.byte	0x3
 13855 44ab 00000000 		.4byte	speedl.13171
 13856 44af 37       		.uleb128 0x37
 13857 44b0 E2000000 		.4byte	.LASF930
 13858 44b4 01       		.byte	0x1
 13859 44b5 3D       		.byte	0x3d
 13860 44b6 AA000000 		.4byte	0xaa
 13861 44ba 05       		.uleb128 0x5
 13862 44bb 03       		.byte	0x3
 13863 44bc 00000000 		.4byte	positionr.13172
 13864 44c0 37       		.uleb128 0x37
 13865 44c1 D8000000 		.4byte	.LASF931
 13866 44c5 01       		.byte	0x1
 13867 44c6 3D       		.byte	0x3d
 13868 44c7 AA000000 		.4byte	0xaa
 13869 44cb 05       		.uleb128 0x5
 13870 44cc 03       		.byte	0x3
 13871 44cd 00000000 		.4byte	positionl.13173
 13872 44d1 37       		.uleb128 0x37
 13873 44d2 74000000 		.4byte	.LASF932
 13874 44d6 01       		.byte	0x1
 13875 44d7 3D       		.byte	0x3d
 13876 44d8 AA000000 		.4byte	0xaa
 13877 44dc 05       		.uleb128 0x5
 13878 44dd 03       		.byte	0x3
 13879 44de 00000000 		.4byte	LED_nbr.13174
 13880 44e2 37       		.uleb128 0x37
 13881 44e3 AB270000 		.4byte	.LASF933
 13882 44e7 01       		.byte	0x1
 13883 44e8 3D       		.byte	0x3d
ARM GAS  /var/folders/bw/wdbp2_bd0pn7gl5ybd33xbb80000gn/T//ccZ5cvgj.s 			page 250


 13884 44e9 AA000000 		.4byte	0xaa
 13885 44ed 05       		.uleb128 0x5
 13886 44ee 03       		.byte	0x3
 13887 44ef 00000000 		.4byte	LED_action.13175
 13888 44f3 37       		.uleb128 0x37
 13889 44f4 490B0000 		.4byte	.LASF934
 13890 44f8 01       		.byte	0x1
 13891 44f9 3D       		.byte	0x3d
 13892 44fa AA000000 		.4byte	0xaa
 13893 44fe 05       		.uleb128 0x5
 13894 44ff 03       		.byte	0x3
 13895 4500 00000000 		.4byte	accx.13176
 13896 4504 37       		.uleb128 0x37
 13897 4505 4E0B0000 		.4byte	.LASF935
 13898 4509 01       		.byte	0x1
 13899 450a 3D       		.byte	0x3d
 13900 450b AA000000 		.4byte	0xaa
 13901 450f 05       		.uleb128 0x5
 13902 4510 03       		.byte	0x3
 13903 4511 00000000 		.4byte	accy.13177
 13904 4515 37       		.uleb128 0x37
 13905 4516 3C0D0000 		.4byte	.LASF936
 13906 451a 01       		.byte	0x1
 13907 451b 3D       		.byte	0x3d
 13908 451c AA000000 		.4byte	0xaa
 13909 4520 05       		.uleb128 0x5
 13910 4521 03       		.byte	0x3
 13911 4522 00000000 		.4byte	accz.13178
 13912 4526 37       		.uleb128 0x37
 13913 4527 AB2A0000 		.4byte	.LASF937
 13914 452b 01       		.byte	0x1
 13915 452c 3D       		.byte	0x3d
 13916 452d AA000000 		.4byte	0xaa
 13917 4531 05       		.uleb128 0x5
 13918 4532 03       		.byte	0x3
 13919 4533 00000000 		.4byte	sound.13179
 13920 4537 37       		.uleb128 0x37
 13921 4538 F3270000 		.4byte	.LASF938
 13922 453c 01       		.byte	0x1
 13923 453d 3D       		.byte	0x3d
 13924 453e AA000000 		.4byte	0xaa
 13925 4542 05       		.uleb128 0x5
 13926 4543 03       		.byte	0x3
 13927 4544 00000000 		.4byte	gyrox.13180
 13928 4548 37       		.uleb128 0x37
 13929 4549 A20E0000 		.4byte	.LASF939
 13930 454d 01       		.byte	0x1
 13931 454e 3D       		.byte	0x3d
 13932 454f AA000000 		.4byte	0xaa
 13933 4553 05       		.uleb128 0x5
 13934 4554 03       		.byte	0x3
 13935 4555 00000000 		.4byte	gyroy.13181
 13936 4559 37       		.uleb128 0x37
 13937 455a F9270000 		.4byte	.LASF940
 13938 455e 01       		.byte	0x1
 13939 455f 3D       		.byte	0x3d
 13940 4560 AA000000 		.4byte	0xaa
ARM GAS  /var/folders/bw/wdbp2_bd0pn7gl5ybd33xbb80000gn/T//ccZ5cvgj.s 			page 251


 13941 4564 05       		.uleb128 0x5
 13942 4565 03       		.byte	0x3
 13943 4566 00000000 		.4byte	gyroz.13182
 13944 456a 37       		.uleb128 0x37
 13945 456b 801B0000 		.4byte	.LASF941
 13946 456f 01       		.byte	0x1
 13947 4570 3E       		.byte	0x3e
 13948 4571 AA000000 		.4byte	0xaa
 13949 4575 05       		.uleb128 0x5
 13950 4576 03       		.byte	0x3
 13951 4577 00000000 		.4byte	cam_mode.13183
 13952 457b 37       		.uleb128 0x37
 13953 457c 8D0D0000 		.4byte	.LASF942
 13954 4580 01       		.byte	0x1
 13955 4581 3E       		.byte	0x3e
 13956 4582 AA000000 		.4byte	0xaa
 13957 4586 05       		.uleb128 0x5
 13958 4587 03       		.byte	0x3
 13959 4588 00000000 		.4byte	cam_width.13184
 13960 458c 37       		.uleb128 0x37
 13961 458d E8200000 		.4byte	.LASF943
 13962 4591 01       		.byte	0x1
 13963 4592 3E       		.byte	0x3e
 13964 4593 AA000000 		.4byte	0xaa
 13965 4597 05       		.uleb128 0x5
 13966 4598 03       		.byte	0x3
 13967 4599 00000000 		.4byte	cam_heigth.13185
 13968 459d 37       		.uleb128 0x37
 13969 459e 6E020000 		.4byte	.LASF944
 13970 45a2 01       		.byte	0x1
 13971 45a3 3E       		.byte	0x3e
 13972 45a4 AA000000 		.4byte	0xaa
 13973 45a8 05       		.uleb128 0x5
 13974 45a9 03       		.byte	0x3
 13975 45aa 00000000 		.4byte	cam_zoom.13186
 13976 45ae 37       		.uleb128 0x37
 13977 45af DD0B0000 		.4byte	.LASF945
 13978 45b3 01       		.byte	0x1
 13979 45b4 3E       		.byte	0x3e
 13980 45b5 AA000000 		.4byte	0xaa
 13981 45b9 05       		.uleb128 0x5
 13982 45ba 03       		.byte	0x3
 13983 45bb 00000000 		.4byte	cam_size.13187
 13984 45bf 37       		.uleb128 0x37
 13985 45c0 28130000 		.4byte	.LASF946
 13986 45c4 01       		.byte	0x1
 13987 45c5 3E       		.byte	0x3e
 13988 45c6 AA000000 		.4byte	0xaa
 13989 45ca 05       		.uleb128 0x5
 13990 45cb 03       		.byte	0x3
 13991 45cc 00000000 		.4byte	cam_x1.13188
 13992 45d0 37       		.uleb128 0x37
 13993 45d1 13190000 		.4byte	.LASF947
 13994 45d5 01       		.byte	0x1
 13995 45d6 3E       		.byte	0x3e
 13996 45d7 AA000000 		.4byte	0xaa
 13997 45db 05       		.uleb128 0x5
ARM GAS  /var/folders/bw/wdbp2_bd0pn7gl5ybd33xbb80000gn/T//ccZ5cvgj.s 			page 252


 13998 45dc 03       		.byte	0x3
 13999 45dd 00000000 		.4byte	cam_y1.13189
 14000 45e1 37       		.uleb128 0x37
 14001 45e2 13100000 		.4byte	.LASF948
 14002 45e6 01       		.byte	0x1
 14003 45e7 3F       		.byte	0x3f
 14004 45e8 20110000 		.4byte	0x1120
 14005 45ec 05       		.uleb128 0x5
 14006 45ed 03       		.byte	0x3
 14007 45ee 00000000 		.4byte	first.13190
 14008 45f2 39       		.uleb128 0x39
 14009 45f3 70747200 		.ascii	"ptr\000"
 14010 45f7 01       		.byte	0x1
 14011 45f8 40       		.byte	0x40
 14012 45f9 A1370000 		.4byte	0x37a1
 14013 45fd 00000000 		.4byte	.LLST0
 14014 4601 36       		.uleb128 0x36
 14015 4602 6D6F6400 		.ascii	"mod\000"
 14016 4606 01       		.byte	0x1
 14017 4607 41       		.byte	0x41
 14018 4608 AA000000 		.4byte	0xaa
 14019 460c 05       		.uleb128 0x5
 14020 460d 03       		.byte	0x3
 14021 460e 00000000 		.4byte	mod.13192
 14022 4612 36       		.uleb128 0x36
 14023 4613 72656700 		.ascii	"reg\000"
 14024 4617 01       		.byte	0x1
 14025 4618 41       		.byte	0x41
 14026 4619 AA000000 		.4byte	0xaa
 14027 461d 05       		.uleb128 0x5
 14028 461e 03       		.byte	0x3
 14029 461f 00000000 		.4byte	reg.13193
 14030 4623 36       		.uleb128 0x36
 14031 4624 76616C00 		.ascii	"val\000"
 14032 4628 01       		.byte	0x1
 14033 4629 41       		.byte	0x41
 14034 462a AA000000 		.4byte	0xaa
 14035 462e 05       		.uleb128 0x5
 14036 462f 03       		.byte	0x3
 14037 4630 00000000 		.4byte	val.13194
 14038 4634 3A       		.uleb128 0x3a
 14039 4635 76060000 		.4byte	.LASF949
 14040 4639 01       		.byte	0x1
 14041 463a 43       		.byte	0x43
 14042 463b 20110000 		.4byte	0x1120
 14043 463f 78000000 		.4byte	.LLST1
 14044 4643 3A       		.uleb128 0x3a
 14045 4644 0A060000 		.4byte	.LASF950
 14046 4648 01       		.byte	0x1
 14047 4649 43       		.byte	0x43
 14048 464a 20110000 		.4byte	0x1120
 14049 464e CF000000 		.4byte	.LLST2
 14050 4652 3A       		.uleb128 0x3a
 14051 4653 45140000 		.4byte	.LASF951
 14052 4657 01       		.byte	0x1
 14053 4658 43       		.byte	0x43
 14054 4659 20110000 		.4byte	0x1120
ARM GAS  /var/folders/bw/wdbp2_bd0pn7gl5ybd33xbb80000gn/T//ccZ5cvgj.s 			page 253


 14055 465d 52010000 		.4byte	.LLST3
 14056 4661 37       		.uleb128 0x37
 14057 4662 121F0000 		.4byte	.LASF952
 14058 4666 01       		.byte	0x1
 14059 4667 45       		.byte	0x45
 14060 4668 92430000 		.4byte	0x4392
 14061 466c 05       		.uleb128 0x5
 14062 466d 03       		.byte	0x3
 14063 466e 00000000 		.4byte	accelero.13198
 14064 4672 3A       		.uleb128 0x3a
 14065 4673 CD090000 		.4byte	.LASF953
 14066 4677 01       		.byte	0x1
 14067 4678 47       		.byte	0x47
 14068 4679 AA000000 		.4byte	0xaa
 14069 467d EB010000 		.4byte	.LLST4
 14070 4681 3A       		.uleb128 0x3a
 14071 4682 EC000000 		.4byte	.LASF954
 14072 4686 01       		.byte	0x1
 14073 4687 48       		.byte	0x48
 14074 4688 B1000000 		.4byte	0xb1
 14075 468c 17020000 		.4byte	.LLST5
 14076 4690 37       		.uleb128 0x37
 14077 4691 E6280000 		.4byte	.LASF955
 14078 4695 01       		.byte	0x1
 14079 4696 65       		.byte	0x65
 14080 4697 AA000000 		.4byte	0xaa
 14081 469b 05       		.uleb128 0x5
 14082 469c 03       		.byte	0x3
 14083 469d 00000000 		.4byte	HWversion.13201
 14084 46a1 3B       		.uleb128 0x3b
 14085 46a2 9C0B0000 		.4byte	.LBB3
 14086 46a6 12000000 		.4byte	.LBE3-.LBB3
 14087 46aa C8460000 		.4byte	0x46c8
 14088 46ae 3C       		.uleb128 0x3c
 14089 46af 5F5F7800 		.ascii	"__x\000"
 14090 46b3 01       		.byte	0x1
 14091 46b4 6802     		.2byte	0x268
 14092 46b6 20110000 		.4byte	0x1120
 14093 46ba 42020000 		.4byte	.LLST7
 14094 46be 3D       		.uleb128 0x3d
 14095 46bf A00B0000 		.4byte	.LVL132
 14096 46c3 4F690000 		.4byte	0x694f
 14097 46c7 00       		.byte	0
 14098 46c8 3E       		.uleb128 0x3e
 14099 46c9 00000000 		.4byte	.Ldebug_ranges0+0
 14100 46cd 17620000 		.4byte	0x6217
 14101 46d1 3C       		.uleb128 0x3c
 14102 46d2 7400     		.ascii	"t\000"
 14103 46d4 01       		.byte	0x1
 14104 46d5 4103     		.2byte	0x341
 14105 46d7 78000000 		.4byte	0x78
 14106 46db 55020000 		.4byte	.LLST6
 14107 46df 3D       		.uleb128 0x3d
 14108 46e0 EC010000 		.4byte	.LVL30
 14109 46e4 5A690000 		.4byte	0x695a
 14110 46e8 3F       		.uleb128 0x3f
 14111 46e9 04020000 		.4byte	.LVL31
ARM GAS  /var/folders/bw/wdbp2_bd0pn7gl5ybd33xbb80000gn/T//ccZ5cvgj.s 			page 254


 14112 46ed 65690000 		.4byte	0x6965
 14113 46f1 FC460000 		.4byte	0x46fc
 14114 46f5 40       		.uleb128 0x40
 14115 46f6 01       		.uleb128 0x1
 14116 46f7 50       		.byte	0x50
 14117 46f8 02       		.uleb128 0x2
 14118 46f9 78       		.byte	0x78
 14119 46fa 00       		.sleb128 0
 14120 46fb 00       		.byte	0
 14121 46fc 3F       		.uleb128 0x3f
 14122 46fd 0C020000 		.4byte	.LVL32
 14123 4701 70690000 		.4byte	0x6970
 14124 4705 10470000 		.4byte	0x4710
 14125 4709 40       		.uleb128 0x40
 14126 470a 01       		.uleb128 0x1
 14127 470b 50       		.byte	0x50
 14128 470c 02       		.uleb128 0x2
 14129 470d 78       		.byte	0x78
 14130 470e 00       		.sleb128 0
 14131 470f 00       		.byte	0
 14132 4710 3D       		.uleb128 0x3d
 14133 4711 10020000 		.4byte	.LVL33
 14134 4715 7B690000 		.4byte	0x697b
 14135 4719 3D       		.uleb128 0x3d
 14136 471a A00C0000 		.4byte	.LVL134
 14137 471e 5A690000 		.4byte	0x695a
 14138 4722 3F       		.uleb128 0x3f
 14139 4723 BA0C0000 		.4byte	.LVL135
 14140 4727 65690000 		.4byte	0x6965
 14141 472b 36470000 		.4byte	0x4736
 14142 472f 40       		.uleb128 0x40
 14143 4730 01       		.uleb128 0x1
 14144 4731 50       		.byte	0x50
 14145 4732 02       		.uleb128 0x2
 14146 4733 78       		.byte	0x78
 14147 4734 00       		.sleb128 0
 14148 4735 00       		.byte	0
 14149 4736 3F       		.uleb128 0x3f
 14150 4737 C20C0000 		.4byte	.LVL136
 14151 473b 70690000 		.4byte	0x6970
 14152 473f 4A470000 		.4byte	0x474a
 14153 4743 40       		.uleb128 0x40
 14154 4744 01       		.uleb128 0x1
 14155 4745 50       		.byte	0x50
 14156 4746 02       		.uleb128 0x2
 14157 4747 78       		.byte	0x78
 14158 4748 00       		.sleb128 0
 14159 4749 00       		.byte	0
 14160 474a 3D       		.uleb128 0x3d
 14161 474b C60C0000 		.4byte	.LVL137
 14162 474f 7B690000 		.4byte	0x697b
 14163 4753 3D       		.uleb128 0x3d
 14164 4754 F60C0000 		.4byte	.LVL138
 14165 4758 86690000 		.4byte	0x6986
 14166 475c 3F       		.uleb128 0x3f
 14167 475d 000D0000 		.4byte	.LVL139
 14168 4761 91690000 		.4byte	0x6991
ARM GAS  /var/folders/bw/wdbp2_bd0pn7gl5ybd33xbb80000gn/T//ccZ5cvgj.s 			page 255


 14169 4765 6F470000 		.4byte	0x476f
 14170 4769 40       		.uleb128 0x40
 14171 476a 01       		.uleb128 0x1
 14172 476b 51       		.byte	0x51
 14173 476c 01       		.uleb128 0x1
 14174 476d 30       		.byte	0x30
 14175 476e 00       		.byte	0
 14176 476f 3D       		.uleb128 0x3d
 14177 4770 0A0D0000 		.4byte	.LVL140
 14178 4774 9C690000 		.4byte	0x699c
 14179 4778 3F       		.uleb128 0x3f
 14180 4779 1C0D0000 		.4byte	.LVL141
 14181 477d A7690000 		.4byte	0x69a7
 14182 4781 92470000 		.4byte	0x4792
 14183 4785 40       		.uleb128 0x40
 14184 4786 01       		.uleb128 0x1
 14185 4787 50       		.byte	0x50
 14186 4788 02       		.uleb128 0x2
 14187 4789 78       		.byte	0x78
 14188 478a 00       		.sleb128 0
 14189 478b 40       		.uleb128 0x40
 14190 478c 01       		.uleb128 0x1
 14191 478d 51       		.byte	0x51
 14192 478e 02       		.uleb128 0x2
 14193 478f 75       		.byte	0x75
 14194 4790 00       		.sleb128 0
 14195 4791 00       		.byte	0
 14196 4792 3F       		.uleb128 0x3f
 14197 4793 220D0000 		.4byte	.LVL142
 14198 4797 65690000 		.4byte	0x6965
 14199 479b A6470000 		.4byte	0x47a6
 14200 479f 40       		.uleb128 0x40
 14201 47a0 01       		.uleb128 0x1
 14202 47a1 50       		.byte	0x50
 14203 47a2 02       		.uleb128 0x2
 14204 47a3 78       		.byte	0x78
 14205 47a4 00       		.sleb128 0
 14206 47a5 00       		.byte	0
 14207 47a6 3F       		.uleb128 0x3f
 14208 47a7 2A0D0000 		.4byte	.LVL143
 14209 47ab 70690000 		.4byte	0x6970
 14210 47af BA470000 		.4byte	0x47ba
 14211 47b3 40       		.uleb128 0x40
 14212 47b4 01       		.uleb128 0x1
 14213 47b5 50       		.byte	0x50
 14214 47b6 02       		.uleb128 0x2
 14215 47b7 78       		.byte	0x78
 14216 47b8 00       		.sleb128 0
 14217 47b9 00       		.byte	0
 14218 47ba 3D       		.uleb128 0x3d
 14219 47bb 2E0D0000 		.4byte	.LVL144
 14220 47bf 7B690000 		.4byte	0x697b
 14221 47c3 3F       		.uleb128 0x3f
 14222 47c4 480D0000 		.4byte	.LVL145
 14223 47c8 B2690000 		.4byte	0x69b2
 14224 47cc F2470000 		.4byte	0x47f2
 14225 47d0 40       		.uleb128 0x40
ARM GAS  /var/folders/bw/wdbp2_bd0pn7gl5ybd33xbb80000gn/T//ccZ5cvgj.s 			page 256


 14226 47d1 01       		.uleb128 0x1
 14227 47d2 50       		.byte	0x50
 14228 47d3 02       		.uleb128 0x2
 14229 47d4 78       		.byte	0x78
 14230 47d5 00       		.sleb128 0
 14231 47d6 40       		.uleb128 0x40
 14232 47d7 01       		.uleb128 0x1
 14233 47d8 51       		.byte	0x51
 14234 47d9 05       		.uleb128 0x5
 14235 47da 03       		.byte	0x3
 14236 47db F8090000 		.4byte	.LC85
 14237 47df 40       		.uleb128 0x40
 14238 47e0 01       		.uleb128 0x1
 14239 47e1 52       		.byte	0x52
 14240 47e2 05       		.uleb128 0x5
 14241 47e3 03       		.byte	0x3
 14242 47e4 00000000 		.4byte	.LANCHOR25
 14243 47e8 40       		.uleb128 0x40
 14244 47e9 01       		.uleb128 0x1
 14245 47ea 53       		.byte	0x53
 14246 47eb 05       		.uleb128 0x5
 14247 47ec 03       		.byte	0x3
 14248 47ed 00000000 		.4byte	.LANCHOR26
 14249 47f1 00       		.byte	0
 14250 47f2 3F       		.uleb128 0x3f
 14251 47f3 580D0000 		.4byte	.LVL146
 14252 47f7 A7690000 		.4byte	0x69a7
 14253 47fb 0F480000 		.4byte	0x480f
 14254 47ff 40       		.uleb128 0x40
 14255 4800 01       		.uleb128 0x1
 14256 4801 50       		.byte	0x50
 14257 4802 02       		.uleb128 0x2
 14258 4803 78       		.byte	0x78
 14259 4804 00       		.sleb128 0
 14260 4805 40       		.uleb128 0x40
 14261 4806 01       		.uleb128 0x1
 14262 4807 51       		.byte	0x51
 14263 4808 05       		.uleb128 0x5
 14264 4809 03       		.byte	0x3
 14265 480a 040A0000 		.4byte	.LC86
 14266 480e 00       		.byte	0
 14267 480f 3F       		.uleb128 0x3f
 14268 4810 5E0D0000 		.4byte	.LVL147
 14269 4814 65690000 		.4byte	0x6965
 14270 4818 23480000 		.4byte	0x4823
 14271 481c 40       		.uleb128 0x40
 14272 481d 01       		.uleb128 0x1
 14273 481e 50       		.byte	0x50
 14274 481f 02       		.uleb128 0x2
 14275 4820 78       		.byte	0x78
 14276 4821 00       		.sleb128 0
 14277 4822 00       		.byte	0
 14278 4823 3F       		.uleb128 0x3f
 14279 4824 660D0000 		.4byte	.LVL148
 14280 4828 70690000 		.4byte	0x6970
 14281 482c 37480000 		.4byte	0x4837
 14282 4830 40       		.uleb128 0x40
ARM GAS  /var/folders/bw/wdbp2_bd0pn7gl5ybd33xbb80000gn/T//ccZ5cvgj.s 			page 257


 14283 4831 01       		.uleb128 0x1
 14284 4832 50       		.byte	0x50
 14285 4833 02       		.uleb128 0x2
 14286 4834 78       		.byte	0x78
 14287 4835 00       		.sleb128 0
 14288 4836 00       		.byte	0
 14289 4837 3D       		.uleb128 0x3d
 14290 4838 6A0D0000 		.4byte	.LVL149
 14291 483c 7B690000 		.4byte	0x697b
 14292 4840 3D       		.uleb128 0x3d
 14293 4841 720D0000 		.4byte	.LVL150
 14294 4845 86690000 		.4byte	0x6986
 14295 4849 3D       		.uleb128 0x3d
 14296 484a 7E0D0000 		.4byte	.LVL151
 14297 484e 91690000 		.4byte	0x6991
 14298 4852 3D       		.uleb128 0x3d
 14299 4853 880D0000 		.4byte	.LVL152
 14300 4857 9C690000 		.4byte	0x699c
 14301 485b 3F       		.uleb128 0x3f
 14302 485c 920D0000 		.4byte	.LVL153
 14303 4860 A7690000 		.4byte	0x69a7
 14304 4864 78480000 		.4byte	0x4878
 14305 4868 40       		.uleb128 0x40
 14306 4869 01       		.uleb128 0x1
 14307 486a 50       		.byte	0x50
 14308 486b 02       		.uleb128 0x2
 14309 486c 78       		.byte	0x78
 14310 486d 00       		.sleb128 0
 14311 486e 40       		.uleb128 0x40
 14312 486f 01       		.uleb128 0x1
 14313 4870 51       		.byte	0x51
 14314 4871 05       		.uleb128 0x5
 14315 4872 03       		.byte	0x3
 14316 4873 100A0000 		.4byte	.LC87
 14317 4877 00       		.byte	0
 14318 4878 3F       		.uleb128 0x3f
 14319 4879 980D0000 		.4byte	.LVL154
 14320 487d 65690000 		.4byte	0x6965
 14321 4881 8C480000 		.4byte	0x488c
 14322 4885 40       		.uleb128 0x40
 14323 4886 01       		.uleb128 0x1
 14324 4887 50       		.byte	0x50
 14325 4888 02       		.uleb128 0x2
 14326 4889 78       		.byte	0x78
 14327 488a 00       		.sleb128 0
 14328 488b 00       		.byte	0
 14329 488c 3F       		.uleb128 0x3f
 14330 488d A00D0000 		.4byte	.LVL155
 14331 4891 70690000 		.4byte	0x6970
 14332 4895 A0480000 		.4byte	0x48a0
 14333 4899 40       		.uleb128 0x40
 14334 489a 01       		.uleb128 0x1
 14335 489b 50       		.byte	0x50
 14336 489c 02       		.uleb128 0x2
 14337 489d 78       		.byte	0x78
 14338 489e 00       		.sleb128 0
 14339 489f 00       		.byte	0
ARM GAS  /var/folders/bw/wdbp2_bd0pn7gl5ybd33xbb80000gn/T//ccZ5cvgj.s 			page 258


 14340 48a0 3D       		.uleb128 0x3d
 14341 48a1 A40D0000 		.4byte	.LVL156
 14342 48a5 7B690000 		.4byte	0x697b
 14343 48a9 3F       		.uleb128 0x3f
 14344 48aa C60D0000 		.4byte	.LVL157
 14345 48ae B2690000 		.4byte	0x69b2
 14346 48b2 DF480000 		.4byte	0x48df
 14347 48b6 40       		.uleb128 0x40
 14348 48b7 01       		.uleb128 0x1
 14349 48b8 50       		.byte	0x50
 14350 48b9 02       		.uleb128 0x2
 14351 48ba 78       		.byte	0x78
 14352 48bb 00       		.sleb128 0
 14353 48bc 40       		.uleb128 0x40
 14354 48bd 01       		.uleb128 0x1
 14355 48be 51       		.byte	0x51
 14356 48bf 05       		.uleb128 0x5
 14357 48c0 03       		.byte	0x3
 14358 48c1 E8090000 		.4byte	.LC83
 14359 48c5 40       		.uleb128 0x40
 14360 48c6 01       		.uleb128 0x1
 14361 48c7 52       		.byte	0x52
 14362 48c8 05       		.uleb128 0x5
 14363 48c9 03       		.byte	0x3
 14364 48ca 00000000 		.4byte	.LANCHOR25
 14365 48ce 40       		.uleb128 0x40
 14366 48cf 01       		.uleb128 0x1
 14367 48d0 53       		.byte	0x53
 14368 48d1 05       		.uleb128 0x5
 14369 48d2 03       		.byte	0x3
 14370 48d3 00000000 		.4byte	.LANCHOR26
 14371 48d7 40       		.uleb128 0x40
 14372 48d8 02       		.uleb128 0x2
 14373 48d9 7D       		.byte	0x7d
 14374 48da 00       		.sleb128 0
 14375 48db 02       		.uleb128 0x2
 14376 48dc 74       		.byte	0x74
 14377 48dd 00       		.sleb128 0
 14378 48de 00       		.byte	0
 14379 48df 3D       		.uleb128 0x3d
 14380 48e0 CA0D0000 		.4byte	.LVL158
 14381 48e4 86690000 		.4byte	0x6986
 14382 48e8 3D       		.uleb128 0x3d
 14383 48e9 D80D0000 		.4byte	.LVL159
 14384 48ed BD690000 		.4byte	0x69bd
 14385 48f1 3D       		.uleb128 0x3d
 14386 48f2 DC0D0000 		.4byte	.LVL160
 14387 48f6 9C690000 		.4byte	0x699c
 14388 48fa 3F       		.uleb128 0x3f
 14389 48fb E40D0000 		.4byte	.LVL161
 14390 48ff 70690000 		.4byte	0x6970
 14391 4903 16490000 		.4byte	0x4916
 14392 4907 40       		.uleb128 0x40
 14393 4908 01       		.uleb128 0x1
 14394 4909 50       		.byte	0x50
 14395 490a 05       		.uleb128 0x5
 14396 490b 03       		.byte	0x3
ARM GAS  /var/folders/bw/wdbp2_bd0pn7gl5ybd33xbb80000gn/T//ccZ5cvgj.s 			page 259


 14397 490c F4090000 		.4byte	.LC84
 14398 4910 40       		.uleb128 0x40
 14399 4911 01       		.uleb128 0x1
 14400 4912 51       		.byte	0x51
 14401 4913 01       		.uleb128 0x1
 14402 4914 33       		.byte	0x33
 14403 4915 00       		.byte	0
 14404 4916 3D       		.uleb128 0x3d
 14405 4917 E80D0000 		.4byte	.LVL162
 14406 491b 7B690000 		.4byte	0x697b
 14407 491f 3F       		.uleb128 0x3f
 14408 4920 000E0000 		.4byte	.LVL163
 14409 4924 70690000 		.4byte	0x6970
 14410 4928 3C490000 		.4byte	0x493c
 14411 492c 40       		.uleb128 0x40
 14412 492d 01       		.uleb128 0x1
 14413 492e 50       		.byte	0x50
 14414 492f 05       		.uleb128 0x5
 14415 4930 03       		.byte	0x3
 14416 4931 C0090000 		.4byte	.LC82
 14417 4935 40       		.uleb128 0x40
 14418 4936 01       		.uleb128 0x1
 14419 4937 51       		.byte	0x51
 14420 4938 02       		.uleb128 0x2
 14421 4939 08       		.byte	0x8
 14422 493a 26       		.byte	0x26
 14423 493b 00       		.byte	0
 14424 493c 3D       		.uleb128 0x3d
 14425 493d 040E0000 		.4byte	.LVL164
 14426 4941 7B690000 		.4byte	0x697b
 14427 4945 3F       		.uleb128 0x3f
 14428 4946 140E0000 		.4byte	.LVL165
 14429 494a A7690000 		.4byte	0x69a7
 14430 494e 62490000 		.4byte	0x4962
 14431 4952 40       		.uleb128 0x40
 14432 4953 01       		.uleb128 0x1
 14433 4954 50       		.byte	0x50
 14434 4955 02       		.uleb128 0x2
 14435 4956 78       		.byte	0x78
 14436 4957 00       		.sleb128 0
 14437 4958 40       		.uleb128 0x40
 14438 4959 01       		.uleb128 0x1
 14439 495a 51       		.byte	0x51
 14440 495b 05       		.uleb128 0x5
 14441 495c 03       		.byte	0x3
 14442 495d 580A0000 		.4byte	.LC91
 14443 4961 00       		.byte	0
 14444 4962 3F       		.uleb128 0x3f
 14445 4963 1A0E0000 		.4byte	.LVL166
 14446 4967 65690000 		.4byte	0x6965
 14447 496b 76490000 		.4byte	0x4976
 14448 496f 40       		.uleb128 0x40
 14449 4970 01       		.uleb128 0x1
 14450 4971 50       		.byte	0x50
 14451 4972 02       		.uleb128 0x2
 14452 4973 78       		.byte	0x78
 14453 4974 00       		.sleb128 0
ARM GAS  /var/folders/bw/wdbp2_bd0pn7gl5ybd33xbb80000gn/T//ccZ5cvgj.s 			page 260


 14454 4975 00       		.byte	0
 14455 4976 3F       		.uleb128 0x3f
 14456 4977 220E0000 		.4byte	.LVL167
 14457 497b 70690000 		.4byte	0x6970
 14458 497f 8A490000 		.4byte	0x498a
 14459 4983 40       		.uleb128 0x40
 14460 4984 01       		.uleb128 0x1
 14461 4985 50       		.byte	0x50
 14462 4986 02       		.uleb128 0x2
 14463 4987 78       		.byte	0x78
 14464 4988 00       		.sleb128 0
 14465 4989 00       		.byte	0
 14466 498a 3D       		.uleb128 0x3d
 14467 498b 260E0000 		.4byte	.LVL168
 14468 498f 7B690000 		.4byte	0x697b
 14469 4993 3D       		.uleb128 0x3d
 14470 4994 320E0000 		.4byte	.LVL169
 14471 4998 C8690000 		.4byte	0x69c8
 14472 499c 3D       		.uleb128 0x3d
 14473 499d 380E0000 		.4byte	.LVL170
 14474 49a1 D3690000 		.4byte	0x69d3
 14475 49a5 3F       		.uleb128 0x3f
 14476 49a6 440E0000 		.4byte	.LVL171
 14477 49aa A7690000 		.4byte	0x69a7
 14478 49ae C8490000 		.4byte	0x49c8
 14479 49b2 40       		.uleb128 0x40
 14480 49b3 01       		.uleb128 0x1
 14481 49b4 50       		.byte	0x50
 14482 49b5 02       		.uleb128 0x2
 14483 49b6 78       		.byte	0x78
 14484 49b7 00       		.sleb128 0
 14485 49b8 40       		.uleb128 0x40
 14486 49b9 01       		.uleb128 0x1
 14487 49ba 51       		.byte	0x51
 14488 49bb 05       		.uleb128 0x5
 14489 49bc 03       		.byte	0x3
 14490 49bd 8C090000 		.4byte	.LC76
 14491 49c1 40       		.uleb128 0x40
 14492 49c2 01       		.uleb128 0x1
 14493 49c3 52       		.byte	0x52
 14494 49c4 02       		.uleb128 0x2
 14495 49c5 74       		.byte	0x74
 14496 49c6 00       		.sleb128 0
 14497 49c7 00       		.byte	0
 14498 49c8 3F       		.uleb128 0x3f
 14499 49c9 520E0000 		.4byte	.LVL172
 14500 49cd 65690000 		.4byte	0x6965
 14501 49d1 DC490000 		.4byte	0x49dc
 14502 49d5 40       		.uleb128 0x40
 14503 49d6 01       		.uleb128 0x1
 14504 49d7 50       		.byte	0x50
 14505 49d8 02       		.uleb128 0x2
 14506 49d9 78       		.byte	0x78
 14507 49da 00       		.sleb128 0
 14508 49db 00       		.byte	0
 14509 49dc 3F       		.uleb128 0x3f
 14510 49dd 5A0E0000 		.4byte	.LVL173
ARM GAS  /var/folders/bw/wdbp2_bd0pn7gl5ybd33xbb80000gn/T//ccZ5cvgj.s 			page 261


 14511 49e1 70690000 		.4byte	0x6970
 14512 49e5 F0490000 		.4byte	0x49f0
 14513 49e9 40       		.uleb128 0x40
 14514 49ea 01       		.uleb128 0x1
 14515 49eb 50       		.byte	0x50
 14516 49ec 02       		.uleb128 0x2
 14517 49ed 78       		.byte	0x78
 14518 49ee 00       		.sleb128 0
 14519 49ef 00       		.byte	0
 14520 49f0 3D       		.uleb128 0x3d
 14521 49f1 5E0E0000 		.4byte	.LVL174
 14522 49f5 7B690000 		.4byte	0x697b
 14523 49f9 3F       		.uleb128 0x3f
 14524 49fa 720E0000 		.4byte	.LVL175
 14525 49fe B2690000 		.4byte	0x69b2
 14526 4a02 284A0000 		.4byte	0x4a28
 14527 4a06 40       		.uleb128 0x40
 14528 4a07 01       		.uleb128 0x1
 14529 4a08 50       		.byte	0x50
 14530 4a09 02       		.uleb128 0x2
 14531 4a0a 78       		.byte	0x78
 14532 4a0b 00       		.sleb128 0
 14533 4a0c 40       		.uleb128 0x40
 14534 4a0d 01       		.uleb128 0x1
 14535 4a0e 51       		.byte	0x51
 14536 4a0f 05       		.uleb128 0x5
 14537 4a10 03       		.byte	0x3
 14538 4a11 7C090000 		.4byte	.LC74
 14539 4a15 40       		.uleb128 0x40
 14540 4a16 01       		.uleb128 0x1
 14541 4a17 52       		.byte	0x52
 14542 4a18 05       		.uleb128 0x5
 14543 4a19 03       		.byte	0x3
 14544 4a1a 00000000 		.4byte	.LANCHOR24
 14545 4a1e 40       		.uleb128 0x40
 14546 4a1f 01       		.uleb128 0x1
 14547 4a20 53       		.byte	0x53
 14548 4a21 05       		.uleb128 0x5
 14549 4a22 03       		.byte	0x3
 14550 4a23 00000000 		.4byte	.LANCHOR23
 14551 4a27 00       		.byte	0
 14552 4a28 3D       		.uleb128 0x3d
 14553 4a29 7A0E0000 		.4byte	.LVL176
 14554 4a2d DE690000 		.4byte	0x69de
 14555 4a31 3D       		.uleb128 0x3d
 14556 4a32 820E0000 		.4byte	.LVL177
 14557 4a36 E9690000 		.4byte	0x69e9
 14558 4a3a 3F       		.uleb128 0x3f
 14559 4a3b 920E0000 		.4byte	.LVL178
 14560 4a3f 70690000 		.4byte	0x6970
 14561 4a43 564A0000 		.4byte	0x4a56
 14562 4a47 40       		.uleb128 0x40
 14563 4a48 01       		.uleb128 0x1
 14564 4a49 50       		.byte	0x50
 14565 4a4a 05       		.uleb128 0x5
 14566 4a4b 03       		.byte	0x3
 14567 4a4c 88090000 		.4byte	.LC75
ARM GAS  /var/folders/bw/wdbp2_bd0pn7gl5ybd33xbb80000gn/T//ccZ5cvgj.s 			page 262


 14568 4a50 40       		.uleb128 0x40
 14569 4a51 01       		.uleb128 0x1
 14570 4a52 51       		.byte	0x51
 14571 4a53 01       		.uleb128 0x1
 14572 4a54 33       		.byte	0x33
 14573 4a55 00       		.byte	0
 14574 4a56 3D       		.uleb128 0x3d
 14575 4a57 960E0000 		.4byte	.LVL179
 14576 4a5b 7B690000 		.4byte	0x697b
 14577 4a5f 3F       		.uleb128 0x3f
 14578 4a60 B00E0000 		.4byte	.LVL180
 14579 4a64 B2690000 		.4byte	0x69b2
 14580 4a68 854A0000 		.4byte	0x4a85
 14581 4a6c 40       		.uleb128 0x40
 14582 4a6d 01       		.uleb128 0x1
 14583 4a6e 50       		.byte	0x50
 14584 4a6f 02       		.uleb128 0x2
 14585 4a70 78       		.byte	0x78
 14586 4a71 00       		.sleb128 0
 14587 4a72 40       		.uleb128 0x40
 14588 4a73 01       		.uleb128 0x1
 14589 4a74 51       		.byte	0x51
 14590 4a75 05       		.uleb128 0x5
 14591 4a76 03       		.byte	0x3
 14592 4a77 9C090000 		.4byte	.LC78
 14593 4a7b 40       		.uleb128 0x40
 14594 4a7c 01       		.uleb128 0x1
 14595 4a7d 52       		.byte	0x52
 14596 4a7e 05       		.uleb128 0x5
 14597 4a7f 03       		.byte	0x3
 14598 4a80 00000000 		.4byte	.LANCHOR32
 14599 4a84 00       		.byte	0
 14600 4a85 3F       		.uleb128 0x3f
 14601 4a86 E20E0000 		.4byte	.LVL181
 14602 4a8a F4690000 		.4byte	0x69f4
 14603 4a8e 984A0000 		.4byte	0x4a98
 14604 4a92 40       		.uleb128 0x40
 14605 4a93 01       		.uleb128 0x1
 14606 4a94 50       		.byte	0x50
 14607 4a95 01       		.uleb128 0x1
 14608 4a96 30       		.byte	0x30
 14609 4a97 00       		.byte	0
 14610 4a98 3F       		.uleb128 0x3f
 14611 4a99 EA0E0000 		.4byte	.LVL182
 14612 4a9d F4690000 		.4byte	0x69f4
 14613 4aa1 AB4A0000 		.4byte	0x4aab
 14614 4aa5 40       		.uleb128 0x40
 14615 4aa6 01       		.uleb128 0x1
 14616 4aa7 50       		.byte	0x50
 14617 4aa8 01       		.uleb128 0x1
 14618 4aa9 31       		.byte	0x31
 14619 4aaa 00       		.byte	0
 14620 4aab 3F       		.uleb128 0x3f
 14621 4aac F20E0000 		.4byte	.LVL183
 14622 4ab0 F4690000 		.4byte	0x69f4
 14623 4ab4 BE4A0000 		.4byte	0x4abe
 14624 4ab8 40       		.uleb128 0x40
ARM GAS  /var/folders/bw/wdbp2_bd0pn7gl5ybd33xbb80000gn/T//ccZ5cvgj.s 			page 263


 14625 4ab9 01       		.uleb128 0x1
 14626 4aba 50       		.byte	0x50
 14627 4abb 01       		.uleb128 0x1
 14628 4abc 32       		.byte	0x32
 14629 4abd 00       		.byte	0
 14630 4abe 3F       		.uleb128 0x3f
 14631 4abf FA0E0000 		.4byte	.LVL184
 14632 4ac3 F4690000 		.4byte	0x69f4
 14633 4ac7 D14A0000 		.4byte	0x4ad1
 14634 4acb 40       		.uleb128 0x40
 14635 4acc 01       		.uleb128 0x1
 14636 4acd 50       		.byte	0x50
 14637 4ace 01       		.uleb128 0x1
 14638 4acf 33       		.byte	0x33
 14639 4ad0 00       		.byte	0
 14640 4ad1 3F       		.uleb128 0x3f
 14641 4ad2 020F0000 		.4byte	.LVL185
 14642 4ad6 F4690000 		.4byte	0x69f4
 14643 4ada E44A0000 		.4byte	0x4ae4
 14644 4ade 40       		.uleb128 0x40
 14645 4adf 01       		.uleb128 0x1
 14646 4ae0 50       		.byte	0x50
 14647 4ae1 01       		.uleb128 0x1
 14648 4ae2 34       		.byte	0x34
 14649 4ae3 00       		.byte	0
 14650 4ae4 3F       		.uleb128 0x3f
 14651 4ae5 0A0F0000 		.4byte	.LVL186
 14652 4ae9 F4690000 		.4byte	0x69f4
 14653 4aed F74A0000 		.4byte	0x4af7
 14654 4af1 40       		.uleb128 0x40
 14655 4af2 01       		.uleb128 0x1
 14656 4af3 50       		.byte	0x50
 14657 4af4 01       		.uleb128 0x1
 14658 4af5 35       		.byte	0x35
 14659 4af6 00       		.byte	0
 14660 4af7 3F       		.uleb128 0x3f
 14661 4af8 120F0000 		.4byte	.LVL187
 14662 4afc F4690000 		.4byte	0x69f4
 14663 4b00 0A4B0000 		.4byte	0x4b0a
 14664 4b04 40       		.uleb128 0x40
 14665 4b05 01       		.uleb128 0x1
 14666 4b06 50       		.byte	0x50
 14667 4b07 01       		.uleb128 0x1
 14668 4b08 36       		.byte	0x36
 14669 4b09 00       		.byte	0
 14670 4b0a 3F       		.uleb128 0x3f
 14671 4b0b 1A0F0000 		.4byte	.LVL188
 14672 4b0f F4690000 		.4byte	0x69f4
 14673 4b13 1D4B0000 		.4byte	0x4b1d
 14674 4b17 40       		.uleb128 0x40
 14675 4b18 01       		.uleb128 0x1
 14676 4b19 50       		.byte	0x50
 14677 4b1a 01       		.uleb128 0x1
 14678 4b1b 37       		.byte	0x37
 14679 4b1c 00       		.byte	0
 14680 4b1d 3F       		.uleb128 0x3f
 14681 4b1e 360F0000 		.4byte	.LVL189
ARM GAS  /var/folders/bw/wdbp2_bd0pn7gl5ybd33xbb80000gn/T//ccZ5cvgj.s 			page 264


 14682 4b22 A7690000 		.4byte	0x69a7
 14683 4b26 714B0000 		.4byte	0x4b71
 14684 4b2a 40       		.uleb128 0x40
 14685 4b2b 01       		.uleb128 0x1
 14686 4b2c 50       		.byte	0x50
 14687 4b2d 02       		.uleb128 0x2
 14688 4b2e 78       		.byte	0x78
 14689 4b2f 00       		.sleb128 0
 14690 4b30 40       		.uleb128 0x40
 14691 4b31 01       		.uleb128 0x1
 14692 4b32 51       		.byte	0x51
 14693 4b33 05       		.uleb128 0x5
 14694 4b34 03       		.byte	0x3
 14695 4b35 3C090000 		.4byte	.LC72
 14696 4b39 40       		.uleb128 0x40
 14697 4b3a 01       		.uleb128 0x1
 14698 4b3b 52       		.byte	0x52
 14699 4b3c 04       		.uleb128 0x4
 14700 4b3d 91       		.byte	0x91
 14701 4b3e A47F     		.sleb128 -92
 14702 4b40 06       		.byte	0x6
 14703 4b41 40       		.uleb128 0x40
 14704 4b42 01       		.uleb128 0x1
 14705 4b43 53       		.byte	0x53
 14706 4b44 04       		.uleb128 0x4
 14707 4b45 91       		.byte	0x91
 14708 4b46 A07F     		.sleb128 -96
 14709 4b48 06       		.byte	0x6
 14710 4b49 40       		.uleb128 0x40
 14711 4b4a 02       		.uleb128 0x2
 14712 4b4b 7D       		.byte	0x7d
 14713 4b4c 00       		.sleb128 0
 14714 4b4d 04       		.uleb128 0x4
 14715 4b4e 91       		.byte	0x91
 14716 4b4f 987F     		.sleb128 -104
 14717 4b51 06       		.byte	0x6
 14718 4b52 40       		.uleb128 0x40
 14719 4b53 02       		.uleb128 0x2
 14720 4b54 7D       		.byte	0x7d
 14721 4b55 04       		.sleb128 4
 14722 4b56 02       		.uleb128 0x2
 14723 4b57 74       		.byte	0x74
 14724 4b58 00       		.sleb128 0
 14725 4b59 40       		.uleb128 0x40
 14726 4b5a 02       		.uleb128 0x2
 14727 4b5b 7D       		.byte	0x7d
 14728 4b5c 08       		.sleb128 8
 14729 4b5d 02       		.uleb128 0x2
 14730 4b5e 75       		.byte	0x75
 14731 4b5f 00       		.sleb128 0
 14732 4b60 40       		.uleb128 0x40
 14733 4b61 02       		.uleb128 0x2
 14734 4b62 7D       		.byte	0x7d
 14735 4b63 0C       		.sleb128 12
 14736 4b64 02       		.uleb128 0x2
 14737 4b65 76       		.byte	0x76
 14738 4b66 00       		.sleb128 0
ARM GAS  /var/folders/bw/wdbp2_bd0pn7gl5ybd33xbb80000gn/T//ccZ5cvgj.s 			page 265


 14739 4b67 40       		.uleb128 0x40
 14740 4b68 02       		.uleb128 0x2
 14741 4b69 7D       		.byte	0x7d
 14742 4b6a 10       		.sleb128 16
 14743 4b6b 04       		.uleb128 0x4
 14744 4b6c 91       		.byte	0x91
 14745 4b6d 9C7F     		.sleb128 -100
 14746 4b6f 06       		.byte	0x6
 14747 4b70 00       		.byte	0
 14748 4b71 3F       		.uleb128 0x3f
 14749 4b72 3C0F0000 		.4byte	.LVL190
 14750 4b76 65690000 		.4byte	0x6965
 14751 4b7a 854B0000 		.4byte	0x4b85
 14752 4b7e 40       		.uleb128 0x40
 14753 4b7f 01       		.uleb128 0x1
 14754 4b80 50       		.byte	0x50
 14755 4b81 02       		.uleb128 0x2
 14756 4b82 78       		.byte	0x78
 14757 4b83 00       		.sleb128 0
 14758 4b84 00       		.byte	0
 14759 4b85 3F       		.uleb128 0x3f
 14760 4b86 440F0000 		.4byte	.LVL191
 14761 4b8a 70690000 		.4byte	0x6970
 14762 4b8e 994B0000 		.4byte	0x4b99
 14763 4b92 40       		.uleb128 0x40
 14764 4b93 01       		.uleb128 0x1
 14765 4b94 50       		.byte	0x50
 14766 4b95 02       		.uleb128 0x2
 14767 4b96 78       		.byte	0x78
 14768 4b97 00       		.sleb128 0
 14769 4b98 00       		.byte	0
 14770 4b99 3D       		.uleb128 0x3d
 14771 4b9a 480F0000 		.4byte	.LVL192
 14772 4b9e 7B690000 		.4byte	0x697b
 14773 4ba2 3F       		.uleb128 0x3f
 14774 4ba3 BE0F0000 		.4byte	.LVL193
 14775 4ba7 FF690000 		.4byte	0x69ff
 14776 4bab B54B0000 		.4byte	0x4bb5
 14777 4baf 40       		.uleb128 0x40
 14778 4bb0 01       		.uleb128 0x1
 14779 4bb1 50       		.byte	0x50
 14780 4bb2 01       		.uleb128 0x1
 14781 4bb3 30       		.byte	0x30
 14782 4bb4 00       		.byte	0
 14783 4bb5 3F       		.uleb128 0x3f
 14784 4bb6 C60F0000 		.4byte	.LVL194
 14785 4bba FF690000 		.4byte	0x69ff
 14786 4bbe C84B0000 		.4byte	0x4bc8
 14787 4bc2 40       		.uleb128 0x40
 14788 4bc3 01       		.uleb128 0x1
 14789 4bc4 50       		.byte	0x50
 14790 4bc5 01       		.uleb128 0x1
 14791 4bc6 31       		.byte	0x31
 14792 4bc7 00       		.byte	0
 14793 4bc8 3F       		.uleb128 0x3f
 14794 4bc9 CE0F0000 		.4byte	.LVL195
 14795 4bcd FF690000 		.4byte	0x69ff
ARM GAS  /var/folders/bw/wdbp2_bd0pn7gl5ybd33xbb80000gn/T//ccZ5cvgj.s 			page 266


 14796 4bd1 DB4B0000 		.4byte	0x4bdb
 14797 4bd5 40       		.uleb128 0x40
 14798 4bd6 01       		.uleb128 0x1
 14799 4bd7 50       		.byte	0x50
 14800 4bd8 01       		.uleb128 0x1
 14801 4bd9 32       		.byte	0x32
 14802 4bda 00       		.byte	0
 14803 4bdb 3F       		.uleb128 0x3f
 14804 4bdc D60F0000 		.4byte	.LVL196
 14805 4be0 FF690000 		.4byte	0x69ff
 14806 4be4 EE4B0000 		.4byte	0x4bee
 14807 4be8 40       		.uleb128 0x40
 14808 4be9 01       		.uleb128 0x1
 14809 4bea 50       		.byte	0x50
 14810 4beb 01       		.uleb128 0x1
 14811 4bec 33       		.byte	0x33
 14812 4bed 00       		.byte	0
 14813 4bee 3F       		.uleb128 0x3f
 14814 4bef DE0F0000 		.4byte	.LVL197
 14815 4bf3 FF690000 		.4byte	0x69ff
 14816 4bf7 014C0000 		.4byte	0x4c01
 14817 4bfb 40       		.uleb128 0x40
 14818 4bfc 01       		.uleb128 0x1
 14819 4bfd 50       		.byte	0x50
 14820 4bfe 01       		.uleb128 0x1
 14821 4bff 34       		.byte	0x34
 14822 4c00 00       		.byte	0
 14823 4c01 3F       		.uleb128 0x3f
 14824 4c02 E60F0000 		.4byte	.LVL198
 14825 4c06 FF690000 		.4byte	0x69ff
 14826 4c0a 144C0000 		.4byte	0x4c14
 14827 4c0e 40       		.uleb128 0x40
 14828 4c0f 01       		.uleb128 0x1
 14829 4c10 50       		.byte	0x50
 14830 4c11 01       		.uleb128 0x1
 14831 4c12 35       		.byte	0x35
 14832 4c13 00       		.byte	0
 14833 4c14 3F       		.uleb128 0x3f
 14834 4c15 EE0F0000 		.4byte	.LVL199
 14835 4c19 FF690000 		.4byte	0x69ff
 14836 4c1d 274C0000 		.4byte	0x4c27
 14837 4c21 40       		.uleb128 0x40
 14838 4c22 01       		.uleb128 0x1
 14839 4c23 50       		.byte	0x50
 14840 4c24 01       		.uleb128 0x1
 14841 4c25 36       		.byte	0x36
 14842 4c26 00       		.byte	0
 14843 4c27 3F       		.uleb128 0x3f
 14844 4c28 F60F0000 		.4byte	.LVL200
 14845 4c2c FF690000 		.4byte	0x69ff
 14846 4c30 3A4C0000 		.4byte	0x4c3a
 14847 4c34 40       		.uleb128 0x40
 14848 4c35 01       		.uleb128 0x1
 14849 4c36 50       		.byte	0x50
 14850 4c37 01       		.uleb128 0x1
 14851 4c38 37       		.byte	0x37
 14852 4c39 00       		.byte	0
ARM GAS  /var/folders/bw/wdbp2_bd0pn7gl5ybd33xbb80000gn/T//ccZ5cvgj.s 			page 267


 14853 4c3a 3F       		.uleb128 0x3f
 14854 4c3b 12100000 		.4byte	.LVL201
 14855 4c3f A7690000 		.4byte	0x69a7
 14856 4c43 8E4C0000 		.4byte	0x4c8e
 14857 4c47 40       		.uleb128 0x40
 14858 4c48 01       		.uleb128 0x1
 14859 4c49 50       		.byte	0x50
 14860 4c4a 02       		.uleb128 0x2
 14861 4c4b 78       		.byte	0x78
 14862 4c4c 00       		.sleb128 0
 14863 4c4d 40       		.uleb128 0x40
 14864 4c4e 01       		.uleb128 0x1
 14865 4c4f 51       		.byte	0x51
 14866 4c50 05       		.uleb128 0x5
 14867 4c51 03       		.byte	0x3
 14868 4c52 FC080000 		.4byte	.LC70
 14869 4c56 40       		.uleb128 0x40
 14870 4c57 01       		.uleb128 0x1
 14871 4c58 52       		.byte	0x52
 14872 4c59 04       		.uleb128 0x4
 14873 4c5a 91       		.byte	0x91
 14874 4c5b A47F     		.sleb128 -92
 14875 4c5d 06       		.byte	0x6
 14876 4c5e 40       		.uleb128 0x40
 14877 4c5f 01       		.uleb128 0x1
 14878 4c60 53       		.byte	0x53
 14879 4c61 04       		.uleb128 0x4
 14880 4c62 91       		.byte	0x91
 14881 4c63 A07F     		.sleb128 -96
 14882 4c65 06       		.byte	0x6
 14883 4c66 40       		.uleb128 0x40
 14884 4c67 02       		.uleb128 0x2
 14885 4c68 7D       		.byte	0x7d
 14886 4c69 00       		.sleb128 0
 14887 4c6a 04       		.uleb128 0x4
 14888 4c6b 91       		.byte	0x91
 14889 4c6c 987F     		.sleb128 -104
 14890 4c6e 06       		.byte	0x6
 14891 4c6f 40       		.uleb128 0x40
 14892 4c70 02       		.uleb128 0x2
 14893 4c71 7D       		.byte	0x7d
 14894 4c72 04       		.sleb128 4
 14895 4c73 02       		.uleb128 0x2
 14896 4c74 74       		.byte	0x74
 14897 4c75 00       		.sleb128 0
 14898 4c76 40       		.uleb128 0x40
 14899 4c77 02       		.uleb128 0x2
 14900 4c78 7D       		.byte	0x7d
 14901 4c79 08       		.sleb128 8
 14902 4c7a 02       		.uleb128 0x2
 14903 4c7b 75       		.byte	0x75
 14904 4c7c 00       		.sleb128 0
 14905 4c7d 40       		.uleb128 0x40
 14906 4c7e 02       		.uleb128 0x2
 14907 4c7f 7D       		.byte	0x7d
 14908 4c80 0C       		.sleb128 12
 14909 4c81 02       		.uleb128 0x2
ARM GAS  /var/folders/bw/wdbp2_bd0pn7gl5ybd33xbb80000gn/T//ccZ5cvgj.s 			page 268


 14910 4c82 76       		.byte	0x76
 14911 4c83 00       		.sleb128 0
 14912 4c84 40       		.uleb128 0x40
 14913 4c85 02       		.uleb128 0x2
 14914 4c86 7D       		.byte	0x7d
 14915 4c87 10       		.sleb128 16
 14916 4c88 04       		.uleb128 0x4
 14917 4c89 91       		.byte	0x91
 14918 4c8a 9C7F     		.sleb128 -100
 14919 4c8c 06       		.byte	0x6
 14920 4c8d 00       		.byte	0
 14921 4c8e 3F       		.uleb128 0x3f
 14922 4c8f 18100000 		.4byte	.LVL202
 14923 4c93 65690000 		.4byte	0x6965
 14924 4c97 A24C0000 		.4byte	0x4ca2
 14925 4c9b 40       		.uleb128 0x40
 14926 4c9c 01       		.uleb128 0x1
 14927 4c9d 50       		.byte	0x50
 14928 4c9e 02       		.uleb128 0x2
 14929 4c9f 78       		.byte	0x78
 14930 4ca0 00       		.sleb128 0
 14931 4ca1 00       		.byte	0
 14932 4ca2 3F       		.uleb128 0x3f
 14933 4ca3 20100000 		.4byte	.LVL203
 14934 4ca7 70690000 		.4byte	0x6970
 14935 4cab B64C0000 		.4byte	0x4cb6
 14936 4caf 40       		.uleb128 0x40
 14937 4cb0 01       		.uleb128 0x1
 14938 4cb1 50       		.byte	0x50
 14939 4cb2 02       		.uleb128 0x2
 14940 4cb3 78       		.byte	0x78
 14941 4cb4 00       		.sleb128 0
 14942 4cb5 00       		.byte	0
 14943 4cb6 3D       		.uleb128 0x3d
 14944 4cb7 24100000 		.4byte	.LVL204
 14945 4cbb 7B690000 		.4byte	0x697b
 14946 4cbf 3F       		.uleb128 0x3f
 14947 4cc0 32100000 		.4byte	.LVL205
 14948 4cc4 0A6A0000 		.4byte	0x6a0a
 14949 4cc8 D24C0000 		.4byte	0x4cd2
 14950 4ccc 40       		.uleb128 0x40
 14951 4ccd 01       		.uleb128 0x1
 14952 4cce 50       		.byte	0x50
 14953 4ccf 01       		.uleb128 0x1
 14954 4cd0 30       		.byte	0x30
 14955 4cd1 00       		.byte	0
 14956 4cd2 3F       		.uleb128 0x3f
 14957 4cd3 3A100000 		.4byte	.LVL206
 14958 4cd7 0A6A0000 		.4byte	0x6a0a
 14959 4cdb E54C0000 		.4byte	0x4ce5
 14960 4cdf 40       		.uleb128 0x40
 14961 4ce0 01       		.uleb128 0x1
 14962 4ce1 50       		.byte	0x50
 14963 4ce2 01       		.uleb128 0x1
 14964 4ce3 31       		.byte	0x31
 14965 4ce4 00       		.byte	0
 14966 4ce5 3F       		.uleb128 0x3f
ARM GAS  /var/folders/bw/wdbp2_bd0pn7gl5ybd33xbb80000gn/T//ccZ5cvgj.s 			page 269


 14967 4ce6 42100000 		.4byte	.LVL207
 14968 4cea 0A6A0000 		.4byte	0x6a0a
 14969 4cee F84C0000 		.4byte	0x4cf8
 14970 4cf2 40       		.uleb128 0x40
 14971 4cf3 01       		.uleb128 0x1
 14972 4cf4 50       		.byte	0x50
 14973 4cf5 01       		.uleb128 0x1
 14974 4cf6 32       		.byte	0x32
 14975 4cf7 00       		.byte	0
 14976 4cf8 3F       		.uleb128 0x3f
 14977 4cf9 50100000 		.4byte	.LVL208
 14978 4cfd A7690000 		.4byte	0x69a7
 14979 4d01 214D0000 		.4byte	0x4d21
 14980 4d05 40       		.uleb128 0x40
 14981 4d06 01       		.uleb128 0x1
 14982 4d07 50       		.byte	0x50
 14983 4d08 02       		.uleb128 0x2
 14984 4d09 78       		.byte	0x78
 14985 4d0a 00       		.sleb128 0
 14986 4d0b 40       		.uleb128 0x40
 14987 4d0c 01       		.uleb128 0x1
 14988 4d0d 51       		.byte	0x51
 14989 4d0e 05       		.uleb128 0x5
 14990 4d0f 03       		.byte	0x3
 14991 4d10 B0090000 		.4byte	.LC81
 14992 4d14 40       		.uleb128 0x40
 14993 4d15 01       		.uleb128 0x1
 14994 4d16 52       		.byte	0x52
 14995 4d17 02       		.uleb128 0x2
 14996 4d18 74       		.byte	0x74
 14997 4d19 00       		.sleb128 0
 14998 4d1a 40       		.uleb128 0x40
 14999 4d1b 01       		.uleb128 0x1
 15000 4d1c 53       		.byte	0x53
 15001 4d1d 02       		.uleb128 0x2
 15002 4d1e 75       		.byte	0x75
 15003 4d1f 00       		.sleb128 0
 15004 4d20 00       		.byte	0
 15005 4d21 3F       		.uleb128 0x3f
 15006 4d22 5E100000 		.4byte	.LVL209
 15007 4d26 65690000 		.4byte	0x6965
 15008 4d2a 354D0000 		.4byte	0x4d35
 15009 4d2e 40       		.uleb128 0x40
 15010 4d2f 01       		.uleb128 0x1
 15011 4d30 50       		.byte	0x50
 15012 4d31 02       		.uleb128 0x2
 15013 4d32 78       		.byte	0x78
 15014 4d33 00       		.sleb128 0
 15015 4d34 00       		.byte	0
 15016 4d35 3F       		.uleb128 0x3f
 15017 4d36 66100000 		.4byte	.LVL210
 15018 4d3a 70690000 		.4byte	0x6970
 15019 4d3e 494D0000 		.4byte	0x4d49
 15020 4d42 40       		.uleb128 0x40
 15021 4d43 01       		.uleb128 0x1
 15022 4d44 50       		.byte	0x50
 15023 4d45 02       		.uleb128 0x2
ARM GAS  /var/folders/bw/wdbp2_bd0pn7gl5ybd33xbb80000gn/T//ccZ5cvgj.s 			page 270


 15024 4d46 78       		.byte	0x78
 15025 4d47 00       		.sleb128 0
 15026 4d48 00       		.byte	0
 15027 4d49 3D       		.uleb128 0x3d
 15028 4d4a 6A100000 		.4byte	.LVL211
 15029 4d4e 7B690000 		.4byte	0x697b
 15030 4d52 3F       		.uleb128 0x3f
 15031 4d53 78100000 		.4byte	.LVL212
 15032 4d57 156A0000 		.4byte	0x6a15
 15033 4d5b 654D0000 		.4byte	0x4d65
 15034 4d5f 40       		.uleb128 0x40
 15035 4d60 01       		.uleb128 0x1
 15036 4d61 50       		.byte	0x50
 15037 4d62 01       		.uleb128 0x1
 15038 4d63 30       		.byte	0x30
 15039 4d64 00       		.byte	0
 15040 4d65 3F       		.uleb128 0x3f
 15041 4d66 7E100000 		.4byte	.LVL213
 15042 4d6a 206A0000 		.4byte	0x6a20
 15043 4d6e 784D0000 		.4byte	0x4d78
 15044 4d72 40       		.uleb128 0x40
 15045 4d73 01       		.uleb128 0x1
 15046 4d74 50       		.byte	0x50
 15047 4d75 01       		.uleb128 0x1
 15048 4d76 30       		.byte	0x30
 15049 4d77 00       		.byte	0
 15050 4d78 3F       		.uleb128 0x3f
 15051 4d79 86100000 		.4byte	.LVL214
 15052 4d7d 2B6A0000 		.4byte	0x6a2b
 15053 4d81 904D0000 		.4byte	0x4d90
 15054 4d85 40       		.uleb128 0x40
 15055 4d86 01       		.uleb128 0x1
 15056 4d87 50       		.byte	0x50
 15057 4d88 01       		.uleb128 0x1
 15058 4d89 38       		.byte	0x38
 15059 4d8a 40       		.uleb128 0x40
 15060 4d8b 01       		.uleb128 0x1
 15061 4d8c 51       		.byte	0x51
 15062 4d8d 01       		.uleb128 0x1
 15063 4d8e 30       		.byte	0x30
 15064 4d8f 00       		.byte	0
 15065 4d90 3F       		.uleb128 0x3f
 15066 4d91 96100000 		.4byte	.LVL215
 15067 4d95 70690000 		.4byte	0x6970
 15068 4d99 AC4D0000 		.4byte	0x4dac
 15069 4d9d 40       		.uleb128 0x40
 15070 4d9e 01       		.uleb128 0x1
 15071 4d9f 50       		.byte	0x50
 15072 4da0 05       		.uleb128 0x5
 15073 4da1 03       		.byte	0x3
 15074 4da2 98090000 		.4byte	.LC77
 15075 4da6 40       		.uleb128 0x40
 15076 4da7 01       		.uleb128 0x1
 15077 4da8 51       		.byte	0x51
 15078 4da9 01       		.uleb128 0x1
 15079 4daa 33       		.byte	0x33
 15080 4dab 00       		.byte	0
ARM GAS  /var/folders/bw/wdbp2_bd0pn7gl5ybd33xbb80000gn/T//ccZ5cvgj.s 			page 271


 15081 4dac 3D       		.uleb128 0x3d
 15082 4dad 9A100000 		.4byte	.LVL216
 15083 4db1 7B690000 		.4byte	0x697b
 15084 4db5 3D       		.uleb128 0x3d
 15085 4db6 B0100000 		.4byte	.LVL217
 15086 4dba 86690000 		.4byte	0x6986
 15087 4dbe 3F       		.uleb128 0x3f
 15088 4dbf D0100000 		.4byte	.LVL218
 15089 4dc3 91690000 		.4byte	0x6991
 15090 4dc7 F54D0000 		.4byte	0x4df5
 15091 4dcb 40       		.uleb128 0x40
 15092 4dcc 01       		.uleb128 0x1
 15093 4dcd 50       		.byte	0x50
 15094 4dce 02       		.uleb128 0x2
 15095 4dcf 09       		.byte	0x9
 15096 4dd0 C0       		.byte	0xc0
 15097 4dd1 40       		.uleb128 0x40
 15098 4dd2 01       		.uleb128 0x1
 15099 4dd3 51       		.byte	0x51
 15100 4dd4 1F       		.uleb128 0x1f
 15101 4dd5 74       		.byte	0x74
 15102 4dd6 00       		.sleb128 0
 15103 4dd7 08       		.byte	0x8
 15104 4dd8 FF       		.byte	0xff
 15105 4dd9 1A       		.byte	0x1a
 15106 4dda 31       		.byte	0x31
 15107 4ddb 1C       		.byte	0x1c
 15108 4ddc 08       		.byte	0x8
 15109 4ddd FF       		.byte	0xff
 15110 4dde 1A       		.byte	0x1a
 15111 4ddf 74       		.byte	0x74
 15112 4de0 00       		.sleb128 0
 15113 4de1 08       		.byte	0x8
 15114 4de2 FF       		.byte	0xff
 15115 4de3 1A       		.byte	0x1a
 15116 4de4 23       		.byte	0x23
 15117 4de5 01       		.uleb128 0x1
 15118 4de6 08       		.byte	0x8
 15119 4de7 FF       		.byte	0xff
 15120 4de8 1A       		.byte	0x1a
 15121 4de9 74       		.byte	0x74
 15122 4dea 00       		.sleb128 0
 15123 4deb 4F       		.byte	0x4f
 15124 4dec 24       		.byte	0x24
 15125 4ded 30       		.byte	0x30
 15126 4dee 2D       		.byte	0x2d
 15127 4def 28       		.byte	0x28
 15128 4df0 0100     		.2byte	0x1
 15129 4df2 16       		.byte	0x16
 15130 4df3 13       		.byte	0x13
 15131 4df4 00       		.byte	0
 15132 4df5 3F       		.uleb128 0x3f
 15133 4df6 04110000 		.4byte	.LVL219
 15134 4dfa 91690000 		.4byte	0x6991
 15135 4dfe 094E0000 		.4byte	0x4e09
 15136 4e02 40       		.uleb128 0x40
 15137 4e03 01       		.uleb128 0x1
ARM GAS  /var/folders/bw/wdbp2_bd0pn7gl5ybd33xbb80000gn/T//ccZ5cvgj.s 			page 272


 15138 4e04 50       		.byte	0x50
 15139 4e05 02       		.uleb128 0x2
 15140 4e06 09       		.byte	0x9
 15141 4e07 C0       		.byte	0xc0
 15142 4e08 00       		.byte	0
 15143 4e09 3D       		.uleb128 0x3d
 15144 4e0a 1A110000 		.4byte	.LVL220
 15145 4e0e 9C690000 		.4byte	0x699c
 15146 4e12 3F       		.uleb128 0x3f
 15147 4e13 64110000 		.4byte	.LVL221
 15148 4e17 A7690000 		.4byte	0x69a7
 15149 4e1b 2F4E0000 		.4byte	0x4e2f
 15150 4e1f 40       		.uleb128 0x40
 15151 4e20 01       		.uleb128 0x1
 15152 4e21 50       		.byte	0x50
 15153 4e22 02       		.uleb128 0x2
 15154 4e23 78       		.byte	0x78
 15155 4e24 00       		.sleb128 0
 15156 4e25 40       		.uleb128 0x40
 15157 4e26 01       		.uleb128 0x1
 15158 4e27 51       		.byte	0x51
 15159 4e28 05       		.uleb128 0x5
 15160 4e29 03       		.byte	0x3
 15161 4e2a E8080000 		.4byte	.LC69
 15162 4e2e 00       		.byte	0
 15163 4e2f 3F       		.uleb128 0x3f
 15164 4e30 6A110000 		.4byte	.LVL222
 15165 4e34 65690000 		.4byte	0x6965
 15166 4e38 434E0000 		.4byte	0x4e43
 15167 4e3c 40       		.uleb128 0x40
 15168 4e3d 01       		.uleb128 0x1
 15169 4e3e 50       		.byte	0x50
 15170 4e3f 02       		.uleb128 0x2
 15171 4e40 78       		.byte	0x78
 15172 4e41 00       		.sleb128 0
 15173 4e42 00       		.byte	0
 15174 4e43 3F       		.uleb128 0x3f
 15175 4e44 72110000 		.4byte	.LVL223
 15176 4e48 70690000 		.4byte	0x6970
 15177 4e4c 574E0000 		.4byte	0x4e57
 15178 4e50 40       		.uleb128 0x40
 15179 4e51 01       		.uleb128 0x1
 15180 4e52 50       		.byte	0x50
 15181 4e53 02       		.uleb128 0x2
 15182 4e54 78       		.byte	0x78
 15183 4e55 00       		.sleb128 0
 15184 4e56 00       		.byte	0
 15185 4e57 3D       		.uleb128 0x3d
 15186 4e58 76110000 		.4byte	.LVL224
 15187 4e5c 7B690000 		.4byte	0x697b
 15188 4e60 3F       		.uleb128 0x3f
 15189 4e61 8E110000 		.4byte	.LVL225
 15190 4e65 A7690000 		.4byte	0x69a7
 15191 4e69 7D4E0000 		.4byte	0x4e7d
 15192 4e6d 40       		.uleb128 0x40
 15193 4e6e 01       		.uleb128 0x1
 15194 4e6f 50       		.byte	0x50
ARM GAS  /var/folders/bw/wdbp2_bd0pn7gl5ybd33xbb80000gn/T//ccZ5cvgj.s 			page 273


 15195 4e70 02       		.uleb128 0x2
 15196 4e71 78       		.byte	0x78
 15197 4e72 00       		.sleb128 0
 15198 4e73 40       		.uleb128 0x40
 15199 4e74 01       		.uleb128 0x1
 15200 4e75 51       		.byte	0x51
 15201 4e76 05       		.uleb128 0x5
 15202 4e77 03       		.byte	0x3
 15203 4e78 B4000000 		.4byte	.LC10
 15204 4e7c 00       		.byte	0
 15205 4e7d 3F       		.uleb128 0x3f
 15206 4e7e 9C110000 		.4byte	.LVL226
 15207 4e82 65690000 		.4byte	0x6965
 15208 4e86 914E0000 		.4byte	0x4e91
 15209 4e8a 40       		.uleb128 0x40
 15210 4e8b 01       		.uleb128 0x1
 15211 4e8c 50       		.byte	0x50
 15212 4e8d 02       		.uleb128 0x2
 15213 4e8e 78       		.byte	0x78
 15214 4e8f 00       		.sleb128 0
 15215 4e90 00       		.byte	0
 15216 4e91 3F       		.uleb128 0x3f
 15217 4e92 A4110000 		.4byte	.LVL227
 15218 4e96 70690000 		.4byte	0x6970
 15219 4e9a A54E0000 		.4byte	0x4ea5
 15220 4e9e 40       		.uleb128 0x40
 15221 4e9f 01       		.uleb128 0x1
 15222 4ea0 50       		.byte	0x50
 15223 4ea1 02       		.uleb128 0x2
 15224 4ea2 78       		.byte	0x78
 15225 4ea3 00       		.sleb128 0
 15226 4ea4 00       		.byte	0
 15227 4ea5 3D       		.uleb128 0x3d
 15228 4ea6 A8110000 		.4byte	.LVL228
 15229 4eaa 7B690000 		.4byte	0x697b
 15230 4eae 3F       		.uleb128 0x3f
 15231 4eaf DA110000 		.4byte	.LVL229
 15232 4eb3 A7690000 		.4byte	0x69a7
 15233 4eb7 D24E0000 		.4byte	0x4ed2
 15234 4ebb 40       		.uleb128 0x40
 15235 4ebc 01       		.uleb128 0x1
 15236 4ebd 50       		.byte	0x50
 15237 4ebe 02       		.uleb128 0x2
 15238 4ebf 78       		.byte	0x78
 15239 4ec0 00       		.sleb128 0
 15240 4ec1 40       		.uleb128 0x40
 15241 4ec2 01       		.uleb128 0x1
 15242 4ec3 51       		.byte	0x51
 15243 4ec4 05       		.uleb128 0x5
 15244 4ec5 03       		.byte	0x3
 15245 4ec6 68080000 		.4byte	.LC63
 15246 4eca 40       		.uleb128 0x40
 15247 4ecb 02       		.uleb128 0x2
 15248 4ecc 7D       		.byte	0x7d
 15249 4ecd 08       		.sleb128 8
 15250 4ece 02       		.uleb128 0x2
 15251 4ecf 74       		.byte	0x74
ARM GAS  /var/folders/bw/wdbp2_bd0pn7gl5ybd33xbb80000gn/T//ccZ5cvgj.s 			page 274


 15252 4ed0 00       		.sleb128 0
 15253 4ed1 00       		.byte	0
 15254 4ed2 3F       		.uleb128 0x3f
 15255 4ed3 E0110000 		.4byte	.LVL230
 15256 4ed7 65690000 		.4byte	0x6965
 15257 4edb E64E0000 		.4byte	0x4ee6
 15258 4edf 40       		.uleb128 0x40
 15259 4ee0 01       		.uleb128 0x1
 15260 4ee1 50       		.byte	0x50
 15261 4ee2 02       		.uleb128 0x2
 15262 4ee3 78       		.byte	0x78
 15263 4ee4 00       		.sleb128 0
 15264 4ee5 00       		.byte	0
 15265 4ee6 3F       		.uleb128 0x3f
 15266 4ee7 E8110000 		.4byte	.LVL231
 15267 4eeb 70690000 		.4byte	0x6970
 15268 4eef FA4E0000 		.4byte	0x4efa
 15269 4ef3 40       		.uleb128 0x40
 15270 4ef4 01       		.uleb128 0x1
 15271 4ef5 50       		.byte	0x50
 15272 4ef6 02       		.uleb128 0x2
 15273 4ef7 78       		.byte	0x78
 15274 4ef8 00       		.sleb128 0
 15275 4ef9 00       		.byte	0
 15276 4efa 3D       		.uleb128 0x3d
 15277 4efb EC110000 		.4byte	.LVL232
 15278 4eff 7B690000 		.4byte	0x697b
 15279 4f03 3F       		.uleb128 0x3f
 15280 4f04 04120000 		.4byte	.LVL233
 15281 4f08 366A0000 		.4byte	0x6a36
 15282 4f0c 1B4F0000 		.4byte	0x4f1b
 15283 4f10 40       		.uleb128 0x40
 15284 4f11 01       		.uleb128 0x1
 15285 4f12 50       		.byte	0x50
 15286 4f13 01       		.uleb128 0x1
 15287 4f14 30       		.byte	0x30
 15288 4f15 40       		.uleb128 0x40
 15289 4f16 01       		.uleb128 0x1
 15290 4f17 51       		.byte	0x51
 15291 4f18 01       		.uleb128 0x1
 15292 4f19 31       		.byte	0x31
 15293 4f1a 00       		.byte	0
 15294 4f1b 3F       		.uleb128 0x3f
 15295 4f1c 0E120000 		.4byte	.LVL234
 15296 4f20 366A0000 		.4byte	0x6a36
 15297 4f24 334F0000 		.4byte	0x4f33
 15298 4f28 40       		.uleb128 0x40
 15299 4f29 01       		.uleb128 0x1
 15300 4f2a 50       		.byte	0x50
 15301 4f2b 01       		.uleb128 0x1
 15302 4f2c 31       		.byte	0x31
 15303 4f2d 40       		.uleb128 0x40
 15304 4f2e 01       		.uleb128 0x1
 15305 4f2f 51       		.byte	0x51
 15306 4f30 01       		.uleb128 0x1
 15307 4f31 31       		.byte	0x31
 15308 4f32 00       		.byte	0
ARM GAS  /var/folders/bw/wdbp2_bd0pn7gl5ybd33xbb80000gn/T//ccZ5cvgj.s 			page 275


 15309 4f33 3F       		.uleb128 0x3f
 15310 4f34 18120000 		.4byte	.LVL235
 15311 4f38 366A0000 		.4byte	0x6a36
 15312 4f3c 4B4F0000 		.4byte	0x4f4b
 15313 4f40 40       		.uleb128 0x40
 15314 4f41 01       		.uleb128 0x1
 15315 4f42 50       		.byte	0x50
 15316 4f43 01       		.uleb128 0x1
 15317 4f44 32       		.byte	0x32
 15318 4f45 40       		.uleb128 0x40
 15319 4f46 01       		.uleb128 0x1
 15320 4f47 51       		.byte	0x51
 15321 4f48 01       		.uleb128 0x1
 15322 4f49 31       		.byte	0x31
 15323 4f4a 00       		.byte	0
 15324 4f4b 3F       		.uleb128 0x3f
 15325 4f4c 26120000 		.4byte	.LVL236
 15326 4f50 A7690000 		.4byte	0x69a7
 15327 4f54 744F0000 		.4byte	0x4f74
 15328 4f58 40       		.uleb128 0x40
 15329 4f59 01       		.uleb128 0x1
 15330 4f5a 50       		.byte	0x50
 15331 4f5b 02       		.uleb128 0x2
 15332 4f5c 78       		.byte	0x78
 15333 4f5d 00       		.sleb128 0
 15334 4f5e 40       		.uleb128 0x40
 15335 4f5f 01       		.uleb128 0x1
 15336 4f60 51       		.byte	0x51
 15337 4f61 05       		.uleb128 0x5
 15338 4f62 03       		.byte	0x3
 15339 4f63 5C000000 		.4byte	.LC1
 15340 4f67 40       		.uleb128 0x40
 15341 4f68 01       		.uleb128 0x1
 15342 4f69 52       		.byte	0x52
 15343 4f6a 02       		.uleb128 0x2
 15344 4f6b 74       		.byte	0x74
 15345 4f6c 00       		.sleb128 0
 15346 4f6d 40       		.uleb128 0x40
 15347 4f6e 01       		.uleb128 0x1
 15348 4f6f 53       		.byte	0x53
 15349 4f70 02       		.uleb128 0x2
 15350 4f71 75       		.byte	0x75
 15351 4f72 00       		.sleb128 0
 15352 4f73 00       		.byte	0
 15353 4f74 3F       		.uleb128 0x3f
 15354 4f75 2C120000 		.4byte	.LVL237
 15355 4f79 65690000 		.4byte	0x6965
 15356 4f7d 884F0000 		.4byte	0x4f88
 15357 4f81 40       		.uleb128 0x40
 15358 4f82 01       		.uleb128 0x1
 15359 4f83 50       		.byte	0x50
 15360 4f84 02       		.uleb128 0x2
 15361 4f85 78       		.byte	0x78
 15362 4f86 00       		.sleb128 0
 15363 4f87 00       		.byte	0
 15364 4f88 3F       		.uleb128 0x3f
 15365 4f89 34120000 		.4byte	.LVL238
ARM GAS  /var/folders/bw/wdbp2_bd0pn7gl5ybd33xbb80000gn/T//ccZ5cvgj.s 			page 276


 15366 4f8d 70690000 		.4byte	0x6970
 15367 4f91 9C4F0000 		.4byte	0x4f9c
 15368 4f95 40       		.uleb128 0x40
 15369 4f96 01       		.uleb128 0x1
 15370 4f97 50       		.byte	0x50
 15371 4f98 02       		.uleb128 0x2
 15372 4f99 78       		.byte	0x78
 15373 4f9a 00       		.sleb128 0
 15374 4f9b 00       		.byte	0
 15375 4f9c 3D       		.uleb128 0x3d
 15376 4f9d 38120000 		.4byte	.LVL239
 15377 4fa1 7B690000 		.4byte	0x697b
 15378 4fa5 3F       		.uleb128 0x3f
 15379 4fa6 50120000 		.4byte	.LVL240
 15380 4faa 70690000 		.4byte	0x6970
 15381 4fae C24F0000 		.4byte	0x4fc2
 15382 4fb2 40       		.uleb128 0x40
 15383 4fb3 01       		.uleb128 0x1
 15384 4fb4 50       		.byte	0x50
 15385 4fb5 05       		.uleb128 0x5
 15386 4fb6 03       		.byte	0x3
 15387 4fb7 98080000 		.4byte	.LC66
 15388 4fbb 40       		.uleb128 0x40
 15389 4fbc 01       		.uleb128 0x1
 15390 4fbd 51       		.byte	0x51
 15391 4fbe 02       		.uleb128 0x2
 15392 4fbf 08       		.byte	0x8
 15393 4fc0 3E       		.byte	0x3e
 15394 4fc1 00       		.byte	0
 15395 4fc2 3D       		.uleb128 0x3d
 15396 4fc3 54120000 		.4byte	.LVL241
 15397 4fc7 7B690000 		.4byte	0x697b
 15398 4fcb 3F       		.uleb128 0x3f
 15399 4fcc 60120000 		.4byte	.LVL242
 15400 4fd0 2B6A0000 		.4byte	0x6a2b
 15401 4fd4 E34F0000 		.4byte	0x4fe3
 15402 4fd8 40       		.uleb128 0x40
 15403 4fd9 01       		.uleb128 0x1
 15404 4fda 50       		.byte	0x50
 15405 4fdb 01       		.uleb128 0x1
 15406 4fdc 38       		.byte	0x38
 15407 4fdd 40       		.uleb128 0x40
 15408 4fde 01       		.uleb128 0x1
 15409 4fdf 51       		.byte	0x51
 15410 4fe0 01       		.uleb128 0x1
 15411 4fe1 31       		.byte	0x31
 15412 4fe2 00       		.byte	0
 15413 4fe3 3F       		.uleb128 0x3f
 15414 4fe4 68120000 		.4byte	.LVL243
 15415 4fe8 416A0000 		.4byte	0x6a41
 15416 4fec F84F0000 		.4byte	0x4ff8
 15417 4ff0 40       		.uleb128 0x40
 15418 4ff1 01       		.uleb128 0x1
 15419 4ff2 50       		.byte	0x50
 15420 4ff3 03       		.uleb128 0x3
 15421 4ff4 0A       		.byte	0xa
 15422 4ff5 9001     		.2byte	0x190
ARM GAS  /var/folders/bw/wdbp2_bd0pn7gl5ybd33xbb80000gn/T//ccZ5cvgj.s 			page 277


 15423 4ff7 00       		.byte	0
 15424 4ff8 3D       		.uleb128 0x3d
 15425 4ff9 6C120000 		.4byte	.LVL244
 15426 4ffd 4C6A0000 		.4byte	0x6a4c
 15427 5001 3F       		.uleb128 0x3f
 15428 5002 72120000 		.4byte	.LVL245
 15429 5006 416A0000 		.4byte	0x6a41
 15430 500a 15500000 		.4byte	0x5015
 15431 500e 40       		.uleb128 0x40
 15432 500f 01       		.uleb128 0x1
 15433 5010 50       		.byte	0x50
 15434 5011 02       		.uleb128 0x2
 15435 5012 08       		.byte	0x8
 15436 5013 64       		.byte	0x64
 15437 5014 00       		.byte	0
 15438 5015 3D       		.uleb128 0x3d
 15439 5016 76120000 		.4byte	.LVL246
 15440 501a 576A0000 		.4byte	0x6a57
 15441 501e 3F       		.uleb128 0x3f
 15442 501f 7E120000 		.4byte	.LVL247
 15443 5023 70690000 		.4byte	0x6970
 15444 5027 3A500000 		.4byte	0x503a
 15445 502b 40       		.uleb128 0x40
 15446 502c 01       		.uleb128 0x1
 15447 502d 50       		.byte	0x50
 15448 502e 05       		.uleb128 0x5
 15449 502f 03       		.byte	0x3
 15450 5030 3C0A0000 		.4byte	.LC90
 15451 5034 40       		.uleb128 0x40
 15452 5035 01       		.uleb128 0x1
 15453 5036 51       		.byte	0x51
 15454 5037 01       		.uleb128 0x1
 15455 5038 49       		.byte	0x49
 15456 5039 00       		.byte	0
 15457 503a 3D       		.uleb128 0x3d
 15458 503b 82120000 		.4byte	.LVL248
 15459 503f 7B690000 		.4byte	0x697b
 15460 5043 3F       		.uleb128 0x3f
 15461 5044 C0120000 		.4byte	.LVL250
 15462 5048 A7690000 		.4byte	0x69a7
 15463 504c 60500000 		.4byte	0x5060
 15464 5050 40       		.uleb128 0x40
 15465 5051 01       		.uleb128 0x1
 15466 5052 50       		.byte	0x50
 15467 5053 02       		.uleb128 0x2
 15468 5054 78       		.byte	0x78
 15469 5055 00       		.sleb128 0
 15470 5056 40       		.uleb128 0x40
 15471 5057 01       		.uleb128 0x1
 15472 5058 51       		.byte	0x51
 15473 5059 05       		.uleb128 0x5
 15474 505a 03       		.byte	0x3
 15475 505b 9C000000 		.4byte	.LC7
 15476 505f 00       		.byte	0
 15477 5060 3F       		.uleb128 0x3f
 15478 5061 CE120000 		.4byte	.LVL251
 15479 5065 65690000 		.4byte	0x6965
ARM GAS  /var/folders/bw/wdbp2_bd0pn7gl5ybd33xbb80000gn/T//ccZ5cvgj.s 			page 278


 15480 5069 74500000 		.4byte	0x5074
 15481 506d 40       		.uleb128 0x40
 15482 506e 01       		.uleb128 0x1
 15483 506f 50       		.byte	0x50
 15484 5070 02       		.uleb128 0x2
 15485 5071 78       		.byte	0x78
 15486 5072 00       		.sleb128 0
 15487 5073 00       		.byte	0
 15488 5074 3F       		.uleb128 0x3f
 15489 5075 D6120000 		.4byte	.LVL252
 15490 5079 70690000 		.4byte	0x6970
 15491 507d 88500000 		.4byte	0x5088
 15492 5081 40       		.uleb128 0x40
 15493 5082 01       		.uleb128 0x1
 15494 5083 50       		.byte	0x50
 15495 5084 02       		.uleb128 0x2
 15496 5085 78       		.byte	0x78
 15497 5086 00       		.sleb128 0
 15498 5087 00       		.byte	0
 15499 5088 3D       		.uleb128 0x3d
 15500 5089 DA120000 		.4byte	.LVL253
 15501 508d 7B690000 		.4byte	0x697b
 15502 5091 3F       		.uleb128 0x3f
 15503 5092 EC120000 		.4byte	.LVL254
 15504 5096 B2690000 		.4byte	0x69b2
 15505 509a B7500000 		.4byte	0x50b7
 15506 509e 40       		.uleb128 0x40
 15507 509f 01       		.uleb128 0x1
 15508 50a0 50       		.byte	0x50
 15509 50a1 02       		.uleb128 0x2
 15510 50a2 78       		.byte	0x78
 15511 50a3 00       		.sleb128 0
 15512 50a4 40       		.uleb128 0x40
 15513 50a5 01       		.uleb128 0x1
 15514 50a6 51       		.byte	0x51
 15515 50a7 05       		.uleb128 0x5
 15516 50a8 03       		.byte	0x3
 15517 50a9 90000000 		.4byte	.LC5
 15518 50ad 40       		.uleb128 0x40
 15519 50ae 01       		.uleb128 0x1
 15520 50af 52       		.byte	0x52
 15521 50b0 05       		.uleb128 0x5
 15522 50b1 03       		.byte	0x3
 15523 50b2 00000000 		.4byte	.LANCHOR28
 15524 50b6 00       		.byte	0
 15525 50b7 3D       		.uleb128 0x3d
 15526 50b8 FC120000 		.4byte	.LVL255
 15527 50bc 626A0000 		.4byte	0x6a62
 15528 50c0 3F       		.uleb128 0x3f
 15529 50c1 04130000 		.4byte	.LVL256
 15530 50c5 70690000 		.4byte	0x6970
 15531 50c9 DC500000 		.4byte	0x50dc
 15532 50cd 40       		.uleb128 0x40
 15533 50ce 01       		.uleb128 0x1
 15534 50cf 50       		.byte	0x50
 15535 50d0 05       		.uleb128 0x5
 15536 50d1 03       		.byte	0x3
ARM GAS  /var/folders/bw/wdbp2_bd0pn7gl5ybd33xbb80000gn/T//ccZ5cvgj.s 			page 279


 15537 50d2 98000000 		.4byte	.LC6
 15538 50d6 40       		.uleb128 0x40
 15539 50d7 01       		.uleb128 0x1
 15540 50d8 51       		.byte	0x51
 15541 50d9 01       		.uleb128 0x1
 15542 50da 33       		.byte	0x33
 15543 50db 00       		.byte	0
 15544 50dc 3D       		.uleb128 0x3d
 15545 50dd 08130000 		.4byte	.LVL257
 15546 50e1 7B690000 		.4byte	0x697b
 15547 50e5 3F       		.uleb128 0x3f
 15548 50e6 68130000 		.4byte	.LVL258
 15549 50ea B2690000 		.4byte	0x69b2
 15550 50ee 14510000 		.4byte	0x5114
 15551 50f2 40       		.uleb128 0x40
 15552 50f3 01       		.uleb128 0x1
 15553 50f4 50       		.byte	0x50
 15554 50f5 02       		.uleb128 0x2
 15555 50f6 78       		.byte	0x78
 15556 50f7 00       		.sleb128 0
 15557 50f8 40       		.uleb128 0x40
 15558 50f9 01       		.uleb128 0x1
 15559 50fa 51       		.byte	0x51
 15560 50fb 05       		.uleb128 0x5
 15561 50fc 03       		.byte	0x3
 15562 50fd A4000000 		.4byte	.LC8
 15563 5101 40       		.uleb128 0x40
 15564 5102 01       		.uleb128 0x1
 15565 5103 52       		.byte	0x52
 15566 5104 05       		.uleb128 0x5
 15567 5105 03       		.byte	0x3
 15568 5106 00000000 		.4byte	.LANCHOR8
 15569 510a 40       		.uleb128 0x40
 15570 510b 01       		.uleb128 0x1
 15571 510c 53       		.byte	0x53
 15572 510d 05       		.uleb128 0x5
 15573 510e 03       		.byte	0x3
 15574 510f 00000000 		.4byte	.LANCHOR7
 15575 5113 00       		.byte	0
 15576 5114 3D       		.uleb128 0x3d
 15577 5115 70130000 		.4byte	.LVL259
 15578 5119 156A0000 		.4byte	0x6a15
 15579 511d 3D       		.uleb128 0x3d
 15580 511e 78130000 		.4byte	.LVL260
 15581 5122 206A0000 		.4byte	0x6a20
 15582 5126 3F       		.uleb128 0x3f
 15583 5127 88130000 		.4byte	.LVL261
 15584 512b 70690000 		.4byte	0x6970
 15585 512f 42510000 		.4byte	0x5142
 15586 5133 40       		.uleb128 0x40
 15587 5134 01       		.uleb128 0x1
 15588 5135 50       		.byte	0x50
 15589 5136 05       		.uleb128 0x5
 15590 5137 03       		.byte	0x3
 15591 5138 B0000000 		.4byte	.LC9
 15592 513c 40       		.uleb128 0x40
 15593 513d 01       		.uleb128 0x1
ARM GAS  /var/folders/bw/wdbp2_bd0pn7gl5ybd33xbb80000gn/T//ccZ5cvgj.s 			page 280


 15594 513e 51       		.byte	0x51
 15595 513f 01       		.uleb128 0x1
 15596 5140 33       		.byte	0x33
 15597 5141 00       		.byte	0
 15598 5142 3D       		.uleb128 0x3d
 15599 5143 8C130000 		.4byte	.LVL262
 15600 5147 7B690000 		.4byte	0x697b
 15601 514b 3D       		.uleb128 0x3d
 15602 514c A0130000 		.4byte	.LVL263
 15603 5150 6D6A0000 		.4byte	0x6a6d
 15604 5154 3D       		.uleb128 0x3d
 15605 5155 A6130000 		.4byte	.LVL264
 15606 5159 786A0000 		.4byte	0x6a78
 15607 515d 3D       		.uleb128 0x3d
 15608 515e AC130000 		.4byte	.LVL265
 15609 5162 836A0000 		.4byte	0x6a83
 15610 5166 3F       		.uleb128 0x3f
 15611 5167 BA130000 		.4byte	.LVL266
 15612 516b A7690000 		.4byte	0x69a7
 15613 516f 8F510000 		.4byte	0x518f
 15614 5173 40       		.uleb128 0x40
 15615 5174 01       		.uleb128 0x1
 15616 5175 50       		.byte	0x50
 15617 5176 02       		.uleb128 0x2
 15618 5177 78       		.byte	0x78
 15619 5178 00       		.sleb128 0
 15620 5179 40       		.uleb128 0x40
 15621 517a 01       		.uleb128 0x1
 15622 517b 51       		.byte	0x51
 15623 517c 05       		.uleb128 0x5
 15624 517d 03       		.byte	0x3
 15625 517e CC000000 		.4byte	.LC13
 15626 5182 40       		.uleb128 0x40
 15627 5183 01       		.uleb128 0x1
 15628 5184 52       		.byte	0x52
 15629 5185 02       		.uleb128 0x2
 15630 5186 74       		.byte	0x74
 15631 5187 00       		.sleb128 0
 15632 5188 40       		.uleb128 0x40
 15633 5189 01       		.uleb128 0x1
 15634 518a 53       		.byte	0x53
 15635 518b 02       		.uleb128 0x2
 15636 518c 75       		.byte	0x75
 15637 518d 00       		.sleb128 0
 15638 518e 00       		.byte	0
 15639 518f 3F       		.uleb128 0x3f
 15640 5190 C0130000 		.4byte	.LVL267
 15641 5194 65690000 		.4byte	0x6965
 15642 5198 A3510000 		.4byte	0x51a3
 15643 519c 40       		.uleb128 0x40
 15644 519d 01       		.uleb128 0x1
 15645 519e 50       		.byte	0x50
 15646 519f 02       		.uleb128 0x2
 15647 51a0 78       		.byte	0x78
 15648 51a1 00       		.sleb128 0
 15649 51a2 00       		.byte	0
 15650 51a3 3F       		.uleb128 0x3f
ARM GAS  /var/folders/bw/wdbp2_bd0pn7gl5ybd33xbb80000gn/T//ccZ5cvgj.s 			page 281


 15651 51a4 C8130000 		.4byte	.LVL268
 15652 51a8 70690000 		.4byte	0x6970
 15653 51ac B7510000 		.4byte	0x51b7
 15654 51b0 40       		.uleb128 0x40
 15655 51b1 01       		.uleb128 0x1
 15656 51b2 50       		.byte	0x50
 15657 51b3 02       		.uleb128 0x2
 15658 51b4 78       		.byte	0x78
 15659 51b5 00       		.sleb128 0
 15660 51b6 00       		.byte	0
 15661 51b7 3D       		.uleb128 0x3d
 15662 51b8 CC130000 		.4byte	.LVL269
 15663 51bc 7B690000 		.4byte	0x697b
 15664 51c0 3F       		.uleb128 0x3f
 15665 51c1 E0130000 		.4byte	.LVL270
 15666 51c5 B2690000 		.4byte	0x69b2
 15667 51c9 EF510000 		.4byte	0x51ef
 15668 51cd 40       		.uleb128 0x40
 15669 51ce 01       		.uleb128 0x1
 15670 51cf 50       		.byte	0x50
 15671 51d0 02       		.uleb128 0x2
 15672 51d1 78       		.byte	0x78
 15673 51d2 00       		.sleb128 0
 15674 51d3 40       		.uleb128 0x40
 15675 51d4 01       		.uleb128 0x1
 15676 51d5 51       		.byte	0x51
 15677 51d6 05       		.uleb128 0x5
 15678 51d7 03       		.byte	0x3
 15679 51d8 D8080000 		.4byte	.LC67
 15680 51dc 40       		.uleb128 0x40
 15681 51dd 01       		.uleb128 0x1
 15682 51de 52       		.byte	0x52
 15683 51df 05       		.uleb128 0x5
 15684 51e0 03       		.byte	0x3
 15685 51e1 00000000 		.4byte	.LANCHOR31
 15686 51e5 40       		.uleb128 0x40
 15687 51e6 01       		.uleb128 0x1
 15688 51e7 53       		.byte	0x53
 15689 51e8 05       		.uleb128 0x5
 15690 51e9 03       		.byte	0x3
 15691 51ea 00000000 		.4byte	.LANCHOR28
 15692 51ee 00       		.byte	0
 15693 51ef 3D       		.uleb128 0x3d
 15694 51f0 EC130000 		.4byte	.LVL271
 15695 51f4 2B6A0000 		.4byte	0x6a2b
 15696 51f8 3F       		.uleb128 0x3f
 15697 51f9 FC130000 		.4byte	.LVL272
 15698 51fd 70690000 		.4byte	0x6970
 15699 5201 14520000 		.4byte	0x5214
 15700 5205 40       		.uleb128 0x40
 15701 5206 01       		.uleb128 0x1
 15702 5207 50       		.byte	0x50
 15703 5208 05       		.uleb128 0x5
 15704 5209 03       		.byte	0x3
 15705 520a E4080000 		.4byte	.LC68
 15706 520e 40       		.uleb128 0x40
 15707 520f 01       		.uleb128 0x1
ARM GAS  /var/folders/bw/wdbp2_bd0pn7gl5ybd33xbb80000gn/T//ccZ5cvgj.s 			page 282


 15708 5210 51       		.byte	0x51
 15709 5211 01       		.uleb128 0x1
 15710 5212 33       		.byte	0x33
 15711 5213 00       		.byte	0
 15712 5214 3D       		.uleb128 0x3d
 15713 5215 00140000 		.4byte	.LVL273
 15714 5219 7B690000 		.4byte	0x697b
 15715 521d 3F       		.uleb128 0x3f
 15716 521e 18140000 		.4byte	.LVL274
 15717 5222 70690000 		.4byte	0x6970
 15718 5226 39520000 		.4byte	0x5239
 15719 522a 40       		.uleb128 0x40
 15720 522b 01       		.uleb128 0x1
 15721 522c 50       		.byte	0x50
 15722 522d 05       		.uleb128 0x5
 15723 522e 03       		.byte	0x3
 15724 522f 10010000 		.4byte	.LC15
 15725 5233 40       		.uleb128 0x40
 15726 5234 01       		.uleb128 0x1
 15727 5235 51       		.byte	0x51
 15728 5236 01       		.uleb128 0x1
 15729 5237 31       		.byte	0x31
 15730 5238 00       		.byte	0
 15731 5239 3D       		.uleb128 0x3d
 15732 523a 1C140000 		.4byte	.LVL275
 15733 523e 7B690000 		.4byte	0x697b
 15734 5242 3F       		.uleb128 0x3f
 15735 5243 28140000 		.4byte	.LVL276
 15736 5247 70690000 		.4byte	0x6970
 15737 524b 5F520000 		.4byte	0x525f
 15738 524f 40       		.uleb128 0x40
 15739 5250 01       		.uleb128 0x1
 15740 5251 50       		.byte	0x50
 15741 5252 05       		.uleb128 0x5
 15742 5253 03       		.byte	0x3
 15743 5254 14010000 		.4byte	.LC16
 15744 5258 40       		.uleb128 0x40
 15745 5259 01       		.uleb128 0x1
 15746 525a 51       		.byte	0x51
 15747 525b 02       		.uleb128 0x2
 15748 525c 08       		.byte	0x8
 15749 525d 21       		.byte	0x21
 15750 525e 00       		.byte	0
 15751 525f 3D       		.uleb128 0x3d
 15752 5260 2C140000 		.4byte	.LVL277
 15753 5264 7B690000 		.4byte	0x697b
 15754 5268 3F       		.uleb128 0x3f
 15755 5269 38140000 		.4byte	.LVL278
 15756 526d 70690000 		.4byte	0x6970
 15757 5271 85520000 		.4byte	0x5285
 15758 5275 40       		.uleb128 0x40
 15759 5276 01       		.uleb128 0x1
 15760 5277 50       		.byte	0x50
 15761 5278 05       		.uleb128 0x5
 15762 5279 03       		.byte	0x3
 15763 527a 38010000 		.4byte	.LC17
 15764 527e 40       		.uleb128 0x40
ARM GAS  /var/folders/bw/wdbp2_bd0pn7gl5ybd33xbb80000gn/T//ccZ5cvgj.s 			page 283


 15765 527f 01       		.uleb128 0x1
 15766 5280 51       		.byte	0x51
 15767 5281 02       		.uleb128 0x2
 15768 5282 08       		.byte	0x8
 15769 5283 31       		.byte	0x31
 15770 5284 00       		.byte	0
 15771 5285 3D       		.uleb128 0x3d
 15772 5286 3C140000 		.4byte	.LVL279
 15773 528a 7B690000 		.4byte	0x697b
 15774 528e 3D       		.uleb128 0x3d
 15775 528f 44140000 		.4byte	.LVL280
 15776 5293 5A690000 		.4byte	0x695a
 15777 5297 3F       		.uleb128 0x3f
 15778 5298 52140000 		.4byte	.LVL281
 15779 529c 70690000 		.4byte	0x6970
 15780 52a0 B4520000 		.4byte	0x52b4
 15781 52a4 40       		.uleb128 0x40
 15782 52a5 01       		.uleb128 0x1
 15783 52a6 50       		.byte	0x50
 15784 52a7 05       		.uleb128 0x5
 15785 52a8 03       		.byte	0x3
 15786 52a9 6C010000 		.4byte	.LC18
 15787 52ad 40       		.uleb128 0x40
 15788 52ae 01       		.uleb128 0x1
 15789 52af 51       		.byte	0x51
 15790 52b0 02       		.uleb128 0x2
 15791 52b1 08       		.byte	0x8
 15792 52b2 21       		.byte	0x21
 15793 52b3 00       		.byte	0
 15794 52b4 3D       		.uleb128 0x3d
 15795 52b5 56140000 		.4byte	.LVL282
 15796 52b9 7B690000 		.4byte	0x697b
 15797 52bd 3F       		.uleb128 0x3f
 15798 52be 62140000 		.4byte	.LVL283
 15799 52c2 70690000 		.4byte	0x6970
 15800 52c6 DA520000 		.4byte	0x52da
 15801 52ca 40       		.uleb128 0x40
 15802 52cb 01       		.uleb128 0x1
 15803 52cc 50       		.byte	0x50
 15804 52cd 05       		.uleb128 0x5
 15805 52ce 03       		.byte	0x3
 15806 52cf C0010000 		.4byte	.LC20
 15807 52d3 40       		.uleb128 0x40
 15808 52d4 01       		.uleb128 0x1
 15809 52d5 51       		.byte	0x51
 15810 52d6 02       		.uleb128 0x2
 15811 52d7 08       		.byte	0x8
 15812 52d8 25       		.byte	0x25
 15813 52d9 00       		.byte	0
 15814 52da 3D       		.uleb128 0x3d
 15815 52db 66140000 		.4byte	.LVL284
 15816 52df 7B690000 		.4byte	0x697b
 15817 52e3 3F       		.uleb128 0x3f
 15818 52e4 72140000 		.4byte	.LVL285
 15819 52e8 70690000 		.4byte	0x6970
 15820 52ec 00530000 		.4byte	0x5300
 15821 52f0 40       		.uleb128 0x40
ARM GAS  /var/folders/bw/wdbp2_bd0pn7gl5ybd33xbb80000gn/T//ccZ5cvgj.s 			page 284


 15822 52f1 01       		.uleb128 0x1
 15823 52f2 50       		.byte	0x50
 15824 52f3 05       		.uleb128 0x5
 15825 52f4 03       		.byte	0x3
 15826 52f5 E8010000 		.4byte	.LC21
 15827 52f9 40       		.uleb128 0x40
 15828 52fa 01       		.uleb128 0x1
 15829 52fb 51       		.byte	0x51
 15830 52fc 02       		.uleb128 0x2
 15831 52fd 08       		.byte	0x8
 15832 52fe 2E       		.byte	0x2e
 15833 52ff 00       		.byte	0
 15834 5300 3D       		.uleb128 0x3d
 15835 5301 76140000 		.4byte	.LVL286
 15836 5305 7B690000 		.4byte	0x697b
 15837 5309 3F       		.uleb128 0x3f
 15838 530a 82140000 		.4byte	.LVL287
 15839 530e 70690000 		.4byte	0x6970
 15840 5312 26530000 		.4byte	0x5326
 15841 5316 40       		.uleb128 0x40
 15842 5317 01       		.uleb128 0x1
 15843 5318 50       		.byte	0x50
 15844 5319 05       		.uleb128 0x5
 15845 531a 03       		.byte	0x3
 15846 531b 18020000 		.4byte	.LC22
 15847 531f 40       		.uleb128 0x40
 15848 5320 01       		.uleb128 0x1
 15849 5321 51       		.byte	0x51
 15850 5322 02       		.uleb128 0x2
 15851 5323 08       		.byte	0x8
 15852 5324 2E       		.byte	0x2e
 15853 5325 00       		.byte	0
 15854 5326 3D       		.uleb128 0x3d
 15855 5327 86140000 		.4byte	.LVL288
 15856 532b 7B690000 		.4byte	0x697b
 15857 532f 3F       		.uleb128 0x3f
 15858 5330 92140000 		.4byte	.LVL289
 15859 5334 70690000 		.4byte	0x6970
 15860 5338 4C530000 		.4byte	0x534c
 15861 533c 40       		.uleb128 0x40
 15862 533d 01       		.uleb128 0x1
 15863 533e 50       		.byte	0x50
 15864 533f 05       		.uleb128 0x5
 15865 5340 03       		.byte	0x3
 15866 5341 48020000 		.4byte	.LC23
 15867 5345 40       		.uleb128 0x40
 15868 5346 01       		.uleb128 0x1
 15869 5347 51       		.byte	0x51
 15870 5348 02       		.uleb128 0x2
 15871 5349 08       		.byte	0x8
 15872 534a 32       		.byte	0x32
 15873 534b 00       		.byte	0
 15874 534c 3D       		.uleb128 0x3d
 15875 534d 96140000 		.4byte	.LVL290
 15876 5351 7B690000 		.4byte	0x697b
 15877 5355 3F       		.uleb128 0x3f
 15878 5356 A2140000 		.4byte	.LVL291
ARM GAS  /var/folders/bw/wdbp2_bd0pn7gl5ybd33xbb80000gn/T//ccZ5cvgj.s 			page 285


 15879 535a 70690000 		.4byte	0x6970
 15880 535e 71530000 		.4byte	0x5371
 15881 5362 40       		.uleb128 0x40
 15882 5363 01       		.uleb128 0x1
 15883 5364 50       		.byte	0x50
 15884 5365 05       		.uleb128 0x5
 15885 5366 03       		.byte	0x3
 15886 5367 7C020000 		.4byte	.LC24
 15887 536b 40       		.uleb128 0x40
 15888 536c 01       		.uleb128 0x1
 15889 536d 51       		.byte	0x51
 15890 536e 01       		.uleb128 0x1
 15891 536f 4F       		.byte	0x4f
 15892 5370 00       		.byte	0
 15893 5371 3D       		.uleb128 0x3d
 15894 5372 A6140000 		.4byte	.LVL292
 15895 5376 7B690000 		.4byte	0x697b
 15896 537a 3D       		.uleb128 0x3d
 15897 537b AE140000 		.4byte	.LVL293
 15898 537f 5A690000 		.4byte	0x695a
 15899 5383 3F       		.uleb128 0x3f
 15900 5384 BC140000 		.4byte	.LVL294
 15901 5388 70690000 		.4byte	0x6970
 15902 538c 9F530000 		.4byte	0x539f
 15903 5390 40       		.uleb128 0x40
 15904 5391 01       		.uleb128 0x1
 15905 5392 50       		.byte	0x50
 15906 5393 05       		.uleb128 0x5
 15907 5394 03       		.byte	0x3
 15908 5395 B8020000 		.4byte	.LC26
 15909 5399 40       		.uleb128 0x40
 15910 539a 01       		.uleb128 0x1
 15911 539b 51       		.byte	0x51
 15912 539c 01       		.uleb128 0x1
 15913 539d 48       		.byte	0x48
 15914 539e 00       		.byte	0
 15915 539f 3D       		.uleb128 0x3d
 15916 53a0 C0140000 		.4byte	.LVL295
 15917 53a4 7B690000 		.4byte	0x697b
 15918 53a8 3F       		.uleb128 0x3f
 15919 53a9 CC140000 		.4byte	.LVL296
 15920 53ad 70690000 		.4byte	0x6970
 15921 53b1 C5530000 		.4byte	0x53c5
 15922 53b5 40       		.uleb128 0x40
 15923 53b6 01       		.uleb128 0x1
 15924 53b7 50       		.byte	0x50
 15925 53b8 05       		.uleb128 0x5
 15926 53b9 03       		.byte	0x3
 15927 53ba D4020000 		.4byte	.LC27
 15928 53be 40       		.uleb128 0x40
 15929 53bf 01       		.uleb128 0x1
 15930 53c0 51       		.byte	0x51
 15931 53c1 02       		.uleb128 0x2
 15932 53c2 08       		.byte	0x8
 15933 53c3 28       		.byte	0x28
 15934 53c4 00       		.byte	0
 15935 53c5 3D       		.uleb128 0x3d
ARM GAS  /var/folders/bw/wdbp2_bd0pn7gl5ybd33xbb80000gn/T//ccZ5cvgj.s 			page 286


 15936 53c6 D0140000 		.4byte	.LVL297
 15937 53ca 7B690000 		.4byte	0x697b
 15938 53ce 3F       		.uleb128 0x3f
 15939 53cf DC140000 		.4byte	.LVL298
 15940 53d3 70690000 		.4byte	0x6970
 15941 53d7 EB530000 		.4byte	0x53eb
 15942 53db 40       		.uleb128 0x40
 15943 53dc 01       		.uleb128 0x1
 15944 53dd 50       		.byte	0x50
 15945 53de 05       		.uleb128 0x5
 15946 53df 03       		.byte	0x3
 15947 53e0 00030000 		.4byte	.LC28
 15948 53e4 40       		.uleb128 0x40
 15949 53e5 01       		.uleb128 0x1
 15950 53e6 51       		.byte	0x51
 15951 53e7 02       		.uleb128 0x2
 15952 53e8 08       		.byte	0x8
 15953 53e9 4F       		.byte	0x4f
 15954 53ea 00       		.byte	0
 15955 53eb 3D       		.uleb128 0x3d
 15956 53ec E0140000 		.4byte	.LVL299
 15957 53f0 7B690000 		.4byte	0x697b
 15958 53f4 3F       		.uleb128 0x3f
 15959 53f5 EC140000 		.4byte	.LVL300
 15960 53f9 70690000 		.4byte	0x6970
 15961 53fd 11540000 		.4byte	0x5411
 15962 5401 40       		.uleb128 0x40
 15963 5402 01       		.uleb128 0x1
 15964 5403 50       		.byte	0x50
 15965 5404 05       		.uleb128 0x5
 15966 5405 03       		.byte	0x3
 15967 5406 50030000 		.4byte	.LC29
 15968 540a 40       		.uleb128 0x40
 15969 540b 01       		.uleb128 0x1
 15970 540c 51       		.byte	0x51
 15971 540d 02       		.uleb128 0x2
 15972 540e 08       		.byte	0x8
 15973 540f 2F       		.byte	0x2f
 15974 5410 00       		.byte	0
 15975 5411 3D       		.uleb128 0x3d
 15976 5412 F0140000 		.4byte	.LVL301
 15977 5416 7B690000 		.4byte	0x697b
 15978 541a 3F       		.uleb128 0x3f
 15979 541b FC140000 		.4byte	.LVL302
 15980 541f 70690000 		.4byte	0x6970
 15981 5423 37540000 		.4byte	0x5437
 15982 5427 40       		.uleb128 0x40
 15983 5428 01       		.uleb128 0x1
 15984 5429 50       		.byte	0x50
 15985 542a 05       		.uleb128 0x5
 15986 542b 03       		.byte	0x3
 15987 542c 80030000 		.4byte	.LC30
 15988 5430 40       		.uleb128 0x40
 15989 5431 01       		.uleb128 0x1
 15990 5432 51       		.byte	0x51
 15991 5433 02       		.uleb128 0x2
 15992 5434 08       		.byte	0x8
ARM GAS  /var/folders/bw/wdbp2_bd0pn7gl5ybd33xbb80000gn/T//ccZ5cvgj.s 			page 287


 15993 5435 33       		.byte	0x33
 15994 5436 00       		.byte	0
 15995 5437 3D       		.uleb128 0x3d
 15996 5438 00150000 		.4byte	.LVL303
 15997 543c 7B690000 		.4byte	0x697b
 15998 5440 3F       		.uleb128 0x3f
 15999 5441 0C150000 		.4byte	.LVL304
 16000 5445 70690000 		.4byte	0x6970
 16001 5449 5D540000 		.4byte	0x545d
 16002 544d 40       		.uleb128 0x40
 16003 544e 01       		.uleb128 0x1
 16004 544f 50       		.byte	0x50
 16005 5450 05       		.uleb128 0x5
 16006 5451 03       		.byte	0x3
 16007 5452 B4030000 		.4byte	.LC31
 16008 5456 40       		.uleb128 0x40
 16009 5457 01       		.uleb128 0x1
 16010 5458 51       		.byte	0x51
 16011 5459 02       		.uleb128 0x2
 16012 545a 08       		.byte	0x8
 16013 545b 21       		.byte	0x21
 16014 545c 00       		.byte	0
 16015 545d 3D       		.uleb128 0x3d
 16016 545e 10150000 		.4byte	.LVL305
 16017 5462 7B690000 		.4byte	0x697b
 16018 5466 3F       		.uleb128 0x3f
 16019 5467 1C150000 		.4byte	.LVL306
 16020 546b 70690000 		.4byte	0x6970
 16021 546f 82540000 		.4byte	0x5482
 16022 5473 40       		.uleb128 0x40
 16023 5474 01       		.uleb128 0x1
 16024 5475 50       		.byte	0x50
 16025 5476 05       		.uleb128 0x5
 16026 5477 03       		.byte	0x3
 16027 5478 D8030000 		.4byte	.LC32
 16028 547c 40       		.uleb128 0x40
 16029 547d 01       		.uleb128 0x1
 16030 547e 51       		.byte	0x51
 16031 547f 01       		.uleb128 0x1
 16032 5480 4D       		.byte	0x4d
 16033 5481 00       		.byte	0
 16034 5482 3D       		.uleb128 0x3d
 16035 5483 20150000 		.4byte	.LVL307
 16036 5487 7B690000 		.4byte	0x697b
 16037 548b 3F       		.uleb128 0x3f
 16038 548c 2C150000 		.4byte	.LVL308
 16039 5490 70690000 		.4byte	0x6970
 16040 5494 A8540000 		.4byte	0x54a8
 16041 5498 40       		.uleb128 0x40
 16042 5499 01       		.uleb128 0x1
 16043 549a 50       		.byte	0x50
 16044 549b 05       		.uleb128 0x5
 16045 549c 03       		.byte	0x3
 16046 549d F8030000 		.4byte	.LC33
 16047 54a1 40       		.uleb128 0x40
 16048 54a2 01       		.uleb128 0x1
 16049 54a3 51       		.byte	0x51
ARM GAS  /var/folders/bw/wdbp2_bd0pn7gl5ybd33xbb80000gn/T//ccZ5cvgj.s 			page 288


 16050 54a4 02       		.uleb128 0x2
 16051 54a5 08       		.byte	0x8
 16052 54a6 21       		.byte	0x21
 16053 54a7 00       		.byte	0
 16054 54a8 3D       		.uleb128 0x3d
 16055 54a9 30150000 		.4byte	.LVL309
 16056 54ad 7B690000 		.4byte	0x697b
 16057 54b1 3F       		.uleb128 0x3f
 16058 54b2 3C150000 		.4byte	.LVL310
 16059 54b6 70690000 		.4byte	0x6970
 16060 54ba CE540000 		.4byte	0x54ce
 16061 54be 40       		.uleb128 0x40
 16062 54bf 01       		.uleb128 0x1
 16063 54c0 50       		.byte	0x50
 16064 54c1 05       		.uleb128 0x5
 16065 54c2 03       		.byte	0x3
 16066 54c3 1C040000 		.4byte	.LC34
 16067 54c7 40       		.uleb128 0x40
 16068 54c8 01       		.uleb128 0x1
 16069 54c9 51       		.byte	0x51
 16070 54ca 02       		.uleb128 0x2
 16071 54cb 08       		.byte	0x8
 16072 54cc 31       		.byte	0x31
 16073 54cd 00       		.byte	0
 16074 54ce 3D       		.uleb128 0x3d
 16075 54cf 40150000 		.4byte	.LVL311
 16076 54d3 7B690000 		.4byte	0x697b
 16077 54d7 3F       		.uleb128 0x3f
 16078 54d8 4C150000 		.4byte	.LVL312
 16079 54dc 70690000 		.4byte	0x6970
 16080 54e0 F4540000 		.4byte	0x54f4
 16081 54e4 40       		.uleb128 0x40
 16082 54e5 01       		.uleb128 0x1
 16083 54e6 50       		.byte	0x50
 16084 54e7 05       		.uleb128 0x5
 16085 54e8 03       		.byte	0x3
 16086 54e9 50040000 		.4byte	.LC35
 16087 54ed 40       		.uleb128 0x40
 16088 54ee 01       		.uleb128 0x1
 16089 54ef 51       		.byte	0x51
 16090 54f0 02       		.uleb128 0x2
 16091 54f1 08       		.byte	0x8
 16092 54f2 31       		.byte	0x31
 16093 54f3 00       		.byte	0
 16094 54f4 3D       		.uleb128 0x3d
 16095 54f5 50150000 		.4byte	.LVL313
 16096 54f9 7B690000 		.4byte	0x697b
 16097 54fd 3F       		.uleb128 0x3f
 16098 54fe 5C150000 		.4byte	.LVL314
 16099 5502 70690000 		.4byte	0x6970
 16100 5506 1A550000 		.4byte	0x551a
 16101 550a 40       		.uleb128 0x40
 16102 550b 01       		.uleb128 0x1
 16103 550c 50       		.byte	0x50
 16104 550d 05       		.uleb128 0x5
 16105 550e 03       		.byte	0x3
 16106 550f 84040000 		.4byte	.LC36
ARM GAS  /var/folders/bw/wdbp2_bd0pn7gl5ybd33xbb80000gn/T//ccZ5cvgj.s 			page 289


 16107 5513 40       		.uleb128 0x40
 16108 5514 01       		.uleb128 0x1
 16109 5515 51       		.byte	0x51
 16110 5516 02       		.uleb128 0x2
 16111 5517 08       		.byte	0x8
 16112 5518 20       		.byte	0x20
 16113 5519 00       		.byte	0
 16114 551a 3D       		.uleb128 0x3d
 16115 551b 60150000 		.4byte	.LVL315
 16116 551f 7B690000 		.4byte	0x697b
 16117 5523 3F       		.uleb128 0x3f
 16118 5524 6C150000 		.4byte	.LVL316
 16119 5528 70690000 		.4byte	0x6970
 16120 552c 40550000 		.4byte	0x5540
 16121 5530 40       		.uleb128 0x40
 16122 5531 01       		.uleb128 0x1
 16123 5532 50       		.byte	0x50
 16124 5533 05       		.uleb128 0x5
 16125 5534 03       		.byte	0x3
 16126 5535 A8040000 		.4byte	.LC37
 16127 5539 40       		.uleb128 0x40
 16128 553a 01       		.uleb128 0x1
 16129 553b 51       		.byte	0x51
 16130 553c 02       		.uleb128 0x2
 16131 553d 08       		.byte	0x8
 16132 553e 31       		.byte	0x31
 16133 553f 00       		.byte	0
 16134 5540 3D       		.uleb128 0x3d
 16135 5541 70150000 		.4byte	.LVL317
 16136 5545 7B690000 		.4byte	0x697b
 16137 5549 3F       		.uleb128 0x3f
 16138 554a 7C150000 		.4byte	.LVL318
 16139 554e 70690000 		.4byte	0x6970
 16140 5552 66550000 		.4byte	0x5566
 16141 5556 40       		.uleb128 0x40
 16142 5557 01       		.uleb128 0x1
 16143 5558 50       		.byte	0x50
 16144 5559 05       		.uleb128 0x5
 16145 555a 03       		.byte	0x3
 16146 555b DC040000 		.4byte	.LC38
 16147 555f 40       		.uleb128 0x40
 16148 5560 01       		.uleb128 0x1
 16149 5561 51       		.byte	0x51
 16150 5562 02       		.uleb128 0x2
 16151 5563 08       		.byte	0x8
 16152 5564 32       		.byte	0x32
 16153 5565 00       		.byte	0
 16154 5566 3D       		.uleb128 0x3d
 16155 5567 80150000 		.4byte	.LVL319
 16156 556b 7B690000 		.4byte	0x697b
 16157 556f 3D       		.uleb128 0x3d
 16158 5570 88150000 		.4byte	.LVL320
 16159 5574 5A690000 		.4byte	0x695a
 16160 5578 3F       		.uleb128 0x3f
 16161 5579 96150000 		.4byte	.LVL321
 16162 557d 70690000 		.4byte	0x6970
 16163 5581 95550000 		.4byte	0x5595
ARM GAS  /var/folders/bw/wdbp2_bd0pn7gl5ybd33xbb80000gn/T//ccZ5cvgj.s 			page 290


 16164 5585 40       		.uleb128 0x40
 16165 5586 01       		.uleb128 0x1
 16166 5587 50       		.byte	0x50
 16167 5588 05       		.uleb128 0x5
 16168 5589 03       		.byte	0x3
 16169 558a 30050000 		.4byte	.LC40
 16170 558e 40       		.uleb128 0x40
 16171 558f 01       		.uleb128 0x1
 16172 5590 51       		.byte	0x51
 16173 5591 02       		.uleb128 0x2
 16174 5592 08       		.byte	0x8
 16175 5593 2C       		.byte	0x2c
 16176 5594 00       		.byte	0
 16177 5595 3D       		.uleb128 0x3d
 16178 5596 9A150000 		.4byte	.LVL322
 16179 559a 7B690000 		.4byte	0x697b
 16180 559e 3F       		.uleb128 0x3f
 16181 559f A6150000 		.4byte	.LVL323
 16182 55a3 70690000 		.4byte	0x6970
 16183 55a7 BB550000 		.4byte	0x55bb
 16184 55ab 40       		.uleb128 0x40
 16185 55ac 01       		.uleb128 0x1
 16186 55ad 50       		.byte	0x50
 16187 55ae 05       		.uleb128 0x5
 16188 55af 03       		.byte	0x3
 16189 55b0 60050000 		.4byte	.LC41
 16190 55b4 40       		.uleb128 0x40
 16191 55b5 01       		.uleb128 0x1
 16192 55b6 51       		.byte	0x51
 16193 55b7 02       		.uleb128 0x2
 16194 55b8 08       		.byte	0x8
 16195 55b9 25       		.byte	0x25
 16196 55ba 00       		.byte	0
 16197 55bb 3D       		.uleb128 0x3d
 16198 55bc AA150000 		.4byte	.LVL324
 16199 55c0 7B690000 		.4byte	0x697b
 16200 55c4 3F       		.uleb128 0x3f
 16201 55c5 B6150000 		.4byte	.LVL325
 16202 55c9 70690000 		.4byte	0x6970
 16203 55cd E1550000 		.4byte	0x55e1
 16204 55d1 40       		.uleb128 0x40
 16205 55d2 01       		.uleb128 0x1
 16206 55d3 50       		.byte	0x50
 16207 55d4 05       		.uleb128 0x5
 16208 55d5 03       		.byte	0x3
 16209 55d6 88050000 		.4byte	.LC42
 16210 55da 40       		.uleb128 0x40
 16211 55db 01       		.uleb128 0x1
 16212 55dc 51       		.byte	0x51
 16213 55dd 02       		.uleb128 0x2
 16214 55de 08       		.byte	0x8
 16215 55df 2B       		.byte	0x2b
 16216 55e0 00       		.byte	0
 16217 55e1 3D       		.uleb128 0x3d
 16218 55e2 BA150000 		.4byte	.LVL326
 16219 55e6 7B690000 		.4byte	0x697b
 16220 55ea 3F       		.uleb128 0x3f
ARM GAS  /var/folders/bw/wdbp2_bd0pn7gl5ybd33xbb80000gn/T//ccZ5cvgj.s 			page 291


 16221 55eb C6150000 		.4byte	.LVL327
 16222 55ef 70690000 		.4byte	0x6970
 16223 55f3 07560000 		.4byte	0x5607
 16224 55f7 40       		.uleb128 0x40
 16225 55f8 01       		.uleb128 0x1
 16226 55f9 50       		.byte	0x50
 16227 55fa 05       		.uleb128 0x5
 16228 55fb 03       		.byte	0x3
 16229 55fc B4050000 		.4byte	.LC43
 16230 5600 40       		.uleb128 0x40
 16231 5601 01       		.uleb128 0x1
 16232 5602 51       		.byte	0x51
 16233 5603 02       		.uleb128 0x2
 16234 5604 08       		.byte	0x8
 16235 5605 2A       		.byte	0x2a
 16236 5606 00       		.byte	0
 16237 5607 3D       		.uleb128 0x3d
 16238 5608 CA150000 		.4byte	.LVL328
 16239 560c 7B690000 		.4byte	0x697b
 16240 5610 3F       		.uleb128 0x3f
 16241 5611 90160000 		.4byte	.LVL329
 16242 5615 B2690000 		.4byte	0x69b2
 16243 5619 3C560000 		.4byte	0x563c
 16244 561d 40       		.uleb128 0x40
 16245 561e 01       		.uleb128 0x1
 16246 561f 50       		.byte	0x50
 16247 5620 02       		.uleb128 0x2
 16248 5621 78       		.byte	0x78
 16249 5622 00       		.sleb128 0
 16250 5623 40       		.uleb128 0x40
 16251 5624 01       		.uleb128 0x1
 16252 5625 51       		.byte	0x51
 16253 5626 05       		.uleb128 0x5
 16254 5627 03       		.byte	0x3
 16255 5628 7C080000 		.4byte	.LC64
 16256 562c 40       		.uleb128 0x40
 16257 562d 01       		.uleb128 0x1
 16258 562e 52       		.byte	0x52
 16259 562f 03       		.uleb128 0x3
 16260 5630 91       		.byte	0x91
 16261 5631 40       		.sleb128 -64
 16262 5632 06       		.byte	0x6
 16263 5633 40       		.uleb128 0x40
 16264 5634 01       		.uleb128 0x1
 16265 5635 53       		.byte	0x53
 16266 5636 04       		.uleb128 0x4
 16267 5637 91       		.byte	0x91
 16268 5638 B87F     		.sleb128 -72
 16269 563a 06       		.byte	0x6
 16270 563b 00       		.byte	0
 16271 563c 3D       		.uleb128 0x3d
 16272 563d CE160000 		.4byte	.LVL330
 16273 5641 8E6A0000 		.4byte	0x6a8e
 16274 5645 3F       		.uleb128 0x3f
 16275 5646 1C170000 		.4byte	.LVL331
 16276 564a 996A0000 		.4byte	0x6a99
 16277 564e 68560000 		.4byte	0x5668
ARM GAS  /var/folders/bw/wdbp2_bd0pn7gl5ybd33xbb80000gn/T//ccZ5cvgj.s 			page 292


 16278 5652 40       		.uleb128 0x40
 16279 5653 02       		.uleb128 0x2
 16280 5654 7D       		.byte	0x7d
 16281 5655 00       		.sleb128 0
 16282 5656 02       		.uleb128 0x2
 16283 5657 75       		.byte	0x75
 16284 5658 00       		.sleb128 0
 16285 5659 40       		.uleb128 0x40
 16286 565a 02       		.uleb128 0x2
 16287 565b 7D       		.byte	0x7d
 16288 565c 04       		.sleb128 4
 16289 565d 02       		.uleb128 0x2
 16290 565e 75       		.byte	0x75
 16291 565f 00       		.sleb128 0
 16292 5660 40       		.uleb128 0x40
 16293 5661 02       		.uleb128 0x2
 16294 5662 7D       		.byte	0x7d
 16295 5663 08       		.sleb128 8
 16296 5664 02       		.uleb128 0x2
 16297 5665 74       		.byte	0x74
 16298 5666 00       		.sleb128 0
 16299 5667 00       		.byte	0
 16300 5668 3D       		.uleb128 0x3d
 16301 5669 20170000 		.4byte	.LVL332
 16302 566d A46A0000 		.4byte	0x6aa4
 16303 5671 3F       		.uleb128 0x3f
 16304 5672 28170000 		.4byte	.LVL333
 16305 5676 70690000 		.4byte	0x6970
 16306 567a 8D560000 		.4byte	0x568d
 16307 567e 40       		.uleb128 0x40
 16308 567f 01       		.uleb128 0x1
 16309 5680 50       		.byte	0x50
 16310 5681 05       		.uleb128 0x5
 16311 5682 03       		.byte	0x3
 16312 5683 94080000 		.4byte	.LC65
 16313 5687 40       		.uleb128 0x40
 16314 5688 01       		.uleb128 0x1
 16315 5689 51       		.byte	0x51
 16316 568a 01       		.uleb128 0x1
 16317 568b 33       		.byte	0x33
 16318 568c 00       		.byte	0
 16319 568d 3D       		.uleb128 0x3d
 16320 568e 2C170000 		.4byte	.LVL334
 16321 5692 7B690000 		.4byte	0x697b
 16322 5696 3F       		.uleb128 0x3f
 16323 5697 3E170000 		.4byte	.LVL335
 16324 569b B2690000 		.4byte	0x69b2
 16325 569f BC560000 		.4byte	0x56bc
 16326 56a3 40       		.uleb128 0x40
 16327 56a4 01       		.uleb128 0x1
 16328 56a5 50       		.byte	0x50
 16329 56a6 02       		.uleb128 0x2
 16330 56a7 78       		.byte	0x78
 16331 56a8 00       		.sleb128 0
 16332 56a9 40       		.uleb128 0x40
 16333 56aa 01       		.uleb128 0x1
 16334 56ab 51       		.byte	0x51
ARM GAS  /var/folders/bw/wdbp2_bd0pn7gl5ybd33xbb80000gn/T//ccZ5cvgj.s 			page 293


 16335 56ac 05       		.uleb128 0x5
 16336 56ad 03       		.byte	0x3
 16337 56ae C0000000 		.4byte	.LC11
 16338 56b2 40       		.uleb128 0x40
 16339 56b3 01       		.uleb128 0x1
 16340 56b4 52       		.byte	0x52
 16341 56b5 05       		.uleb128 0x5
 16342 56b6 03       		.byte	0x3
 16343 56b7 00000000 		.4byte	.LANCHOR28
 16344 56bb 00       		.byte	0
 16345 56bc 3D       		.uleb128 0x3d
 16346 56bd 4E170000 		.4byte	.LVL336
 16347 56c1 AF6A0000 		.4byte	0x6aaf
 16348 56c5 3F       		.uleb128 0x3f
 16349 56c6 56170000 		.4byte	.LVL337
 16350 56ca 70690000 		.4byte	0x6970
 16351 56ce E1560000 		.4byte	0x56e1
 16352 56d2 40       		.uleb128 0x40
 16353 56d3 01       		.uleb128 0x1
 16354 56d4 50       		.byte	0x50
 16355 56d5 05       		.uleb128 0x5
 16356 56d6 03       		.byte	0x3
 16357 56d7 C8000000 		.4byte	.LC12
 16358 56db 40       		.uleb128 0x40
 16359 56dc 01       		.uleb128 0x1
 16360 56dd 51       		.byte	0x51
 16361 56de 01       		.uleb128 0x1
 16362 56df 33       		.byte	0x33
 16363 56e0 00       		.byte	0
 16364 56e1 3D       		.uleb128 0x3d
 16365 56e2 5A170000 		.4byte	.LVL338
 16366 56e6 7B690000 		.4byte	0x697b
 16367 56ea 3F       		.uleb128 0x3f
 16368 56eb 72170000 		.4byte	.LVL339
 16369 56ef 70690000 		.4byte	0x6970
 16370 56f3 06570000 		.4byte	0x5706
 16371 56f7 40       		.uleb128 0x40
 16372 56f8 01       		.uleb128 0x1
 16373 56f9 50       		.byte	0x50
 16374 56fa 05       		.uleb128 0x5
 16375 56fb 03       		.byte	0x3
 16376 56fc 240A0000 		.4byte	.LC89
 16377 5700 40       		.uleb128 0x40
 16378 5701 01       		.uleb128 0x1
 16379 5702 51       		.byte	0x51
 16380 5703 01       		.uleb128 0x1
 16381 5704 45       		.byte	0x45
 16382 5705 00       		.byte	0
 16383 5706 3D       		.uleb128 0x3d
 16384 5707 76170000 		.4byte	.LVL340
 16385 570b 7B690000 		.4byte	0x697b
 16386 570f 3F       		.uleb128 0x3f
 16387 5710 8A170000 		.4byte	.LVL341
 16388 5714 BA6A0000 		.4byte	0x6aba
 16389 5718 2B570000 		.4byte	0x572b
 16390 571c 40       		.uleb128 0x40
 16391 571d 01       		.uleb128 0x1
ARM GAS  /var/folders/bw/wdbp2_bd0pn7gl5ybd33xbb80000gn/T//ccZ5cvgj.s 			page 294


 16392 571e 50       		.byte	0x50
 16393 571f 03       		.uleb128 0x3
 16394 5720 0A       		.byte	0xa
 16395 5721 142B     		.2byte	0x2b14
 16396 5723 40       		.uleb128 0x40
 16397 5724 01       		.uleb128 0x1
 16398 5725 51       		.byte	0x51
 16399 5726 03       		.uleb128 0x3
 16400 5727 0A       		.byte	0xa
 16401 5728 501F     		.2byte	0x1f50
 16402 572a 00       		.byte	0
 16403 572b 3F       		.uleb128 0x3f
 16404 572c 92170000 		.4byte	.LVL342
 16405 5730 70690000 		.4byte	0x6970
 16406 5734 47570000 		.4byte	0x5747
 16407 5738 40       		.uleb128 0x40
 16408 5739 01       		.uleb128 0x1
 16409 573a 50       		.byte	0x50
 16410 573b 05       		.uleb128 0x5
 16411 573c 03       		.byte	0x3
 16412 573d A4090000 		.4byte	.LC79
 16413 5741 40       		.uleb128 0x40
 16414 5742 01       		.uleb128 0x1
 16415 5743 51       		.byte	0x51
 16416 5744 01       		.uleb128 0x1
 16417 5745 33       		.byte	0x33
 16418 5746 00       		.byte	0
 16419 5747 3D       		.uleb128 0x3d
 16420 5748 96170000 		.4byte	.LVL343
 16421 574c 7B690000 		.4byte	0x697b
 16422 5750 3F       		.uleb128 0x3f
 16423 5751 AA170000 		.4byte	.LVL344
 16424 5755 BA6A0000 		.4byte	0x6aba
 16425 5759 6C570000 		.4byte	0x576c
 16426 575d 40       		.uleb128 0x40
 16427 575e 01       		.uleb128 0x1
 16428 575f 50       		.byte	0x50
 16429 5760 03       		.uleb128 0x3
 16430 5761 0A       		.byte	0xa
 16431 5762 7E1C     		.2byte	0x1c7e
 16432 5764 40       		.uleb128 0x40
 16433 5765 01       		.uleb128 0x1
 16434 5766 51       		.byte	0x51
 16435 5767 03       		.uleb128 0x3
 16436 5768 0A       		.byte	0xa
 16437 5769 940E     		.2byte	0xe94
 16438 576b 00       		.byte	0
 16439 576c 3F       		.uleb128 0x3f
 16440 576d B6170000 		.4byte	.LVL345
 16441 5771 C56A0000 		.4byte	0x6ac5
 16442 5775 89570000 		.4byte	0x5789
 16443 5779 40       		.uleb128 0x40
 16444 577a 01       		.uleb128 0x1
 16445 577b 50       		.byte	0x50
 16446 577c 01       		.uleb128 0x1
 16447 577d 3B       		.byte	0x3b
 16448 577e 40       		.uleb128 0x40
ARM GAS  /var/folders/bw/wdbp2_bd0pn7gl5ybd33xbb80000gn/T//ccZ5cvgj.s 			page 295


 16449 577f 01       		.uleb128 0x1
 16450 5780 51       		.byte	0x51
 16451 5781 01       		.uleb128 0x1
 16452 5782 32       		.byte	0x32
 16453 5783 40       		.uleb128 0x40
 16454 5784 01       		.uleb128 0x1
 16455 5785 52       		.byte	0x52
 16456 5786 01       		.uleb128 0x1
 16457 5787 30       		.byte	0x30
 16458 5788 00       		.byte	0
 16459 5789 3F       		.uleb128 0x3f
 16460 578a C2170000 		.4byte	.LVL346
 16461 578e C56A0000 		.4byte	0x6ac5
 16462 5792 A6570000 		.4byte	0x57a6
 16463 5796 40       		.uleb128 0x40
 16464 5797 01       		.uleb128 0x1
 16465 5798 50       		.byte	0x50
 16466 5799 01       		.uleb128 0x1
 16467 579a 34       		.byte	0x34
 16468 579b 40       		.uleb128 0x40
 16469 579c 01       		.uleb128 0x1
 16470 579d 51       		.byte	0x51
 16471 579e 01       		.uleb128 0x1
 16472 579f 32       		.byte	0x32
 16473 57a0 40       		.uleb128 0x40
 16474 57a1 01       		.uleb128 0x1
 16475 57a2 52       		.byte	0x52
 16476 57a3 01       		.uleb128 0x1
 16477 57a4 30       		.byte	0x30
 16478 57a5 00       		.byte	0
 16479 57a6 3F       		.uleb128 0x3f
 16480 57a7 CE170000 		.4byte	.LVL347
 16481 57ab C56A0000 		.4byte	0x6ac5
 16482 57af C3570000 		.4byte	0x57c3
 16483 57b3 40       		.uleb128 0x40
 16484 57b4 01       		.uleb128 0x1
 16485 57b5 50       		.byte	0x50
 16486 57b6 01       		.uleb128 0x1
 16487 57b7 33       		.byte	0x33
 16488 57b8 40       		.uleb128 0x40
 16489 57b9 01       		.uleb128 0x1
 16490 57ba 51       		.byte	0x51
 16491 57bb 01       		.uleb128 0x1
 16492 57bc 32       		.byte	0x32
 16493 57bd 40       		.uleb128 0x40
 16494 57be 01       		.uleb128 0x1
 16495 57bf 52       		.byte	0x52
 16496 57c0 01       		.uleb128 0x1
 16497 57c1 30       		.byte	0x30
 16498 57c2 00       		.byte	0
 16499 57c3 3D       		.uleb128 0x3d
 16500 57c4 241A0000 		.4byte	.LVL374
 16501 57c8 5A690000 		.4byte	0x695a
 16502 57cc 3D       		.uleb128 0x3d
 16503 57cd 2E1A0000 		.4byte	.LVL375
 16504 57d1 D06A0000 		.4byte	0x6ad0
 16505 57d5 3D       		.uleb128 0x3d
ARM GAS  /var/folders/bw/wdbp2_bd0pn7gl5ybd33xbb80000gn/T//ccZ5cvgj.s 			page 296


 16506 57d6 341A0000 		.4byte	.LVL376
 16507 57da DB6A0000 		.4byte	0x6adb
 16508 57de 3F       		.uleb128 0x3f
 16509 57df 401A0000 		.4byte	.LVL377
 16510 57e3 A7690000 		.4byte	0x69a7
 16511 57e7 01580000 		.4byte	0x5801
 16512 57eb 40       		.uleb128 0x40
 16513 57ec 01       		.uleb128 0x1
 16514 57ed 50       		.byte	0x50
 16515 57ee 02       		.uleb128 0x2
 16516 57ef 78       		.byte	0x78
 16517 57f0 00       		.sleb128 0
 16518 57f1 40       		.uleb128 0x40
 16519 57f2 01       		.uleb128 0x1
 16520 57f3 51       		.byte	0x51
 16521 57f4 05       		.uleb128 0x5
 16522 57f5 03       		.byte	0x3
 16523 57f6 78000000 		.4byte	.LC3
 16524 57fa 40       		.uleb128 0x40
 16525 57fb 01       		.uleb128 0x1
 16526 57fc 52       		.byte	0x52
 16527 57fd 02       		.uleb128 0x2
 16528 57fe 74       		.byte	0x74
 16529 57ff 00       		.sleb128 0
 16530 5800 00       		.byte	0
 16531 5801 3F       		.uleb128 0x3f
 16532 5802 561A0000 		.4byte	.LVL379
 16533 5806 70690000 		.4byte	0x6970
 16534 580a 15580000 		.4byte	0x5815
 16535 580e 40       		.uleb128 0x40
 16536 580f 01       		.uleb128 0x1
 16537 5810 50       		.byte	0x50
 16538 5811 02       		.uleb128 0x2
 16539 5812 78       		.byte	0x78
 16540 5813 00       		.sleb128 0
 16541 5814 00       		.byte	0
 16542 5815 3D       		.uleb128 0x3d
 16543 5816 5A1A0000 		.4byte	.LVL380
 16544 581a 7B690000 		.4byte	0x697b
 16545 581e 3F       		.uleb128 0x3f
 16546 581f 841A0000 		.4byte	.LVL384
 16547 5823 E66A0000 		.4byte	0x6ae6
 16548 5827 37580000 		.4byte	0x5837
 16549 582b 40       		.uleb128 0x40
 16550 582c 01       		.uleb128 0x1
 16551 582d 50       		.byte	0x50
 16552 582e 02       		.uleb128 0x2
 16553 582f 78       		.byte	0x78
 16554 5830 00       		.sleb128 0
 16555 5831 40       		.uleb128 0x40
 16556 5832 01       		.uleb128 0x1
 16557 5833 51       		.byte	0x51
 16558 5834 01       		.uleb128 0x1
 16559 5835 39       		.byte	0x39
 16560 5836 00       		.byte	0
 16561 5837 3D       		.uleb128 0x3d
 16562 5838 881A0000 		.4byte	.LVL385
ARM GAS  /var/folders/bw/wdbp2_bd0pn7gl5ybd33xbb80000gn/T//ccZ5cvgj.s 			page 297


 16563 583c F16A0000 		.4byte	0x6af1
 16564 5840 3F       		.uleb128 0x3f
 16565 5841 A61A0000 		.4byte	.LVL386
 16566 5845 E66A0000 		.4byte	0x6ae6
 16567 5849 5C580000 		.4byte	0x585c
 16568 584d 40       		.uleb128 0x40
 16569 584e 01       		.uleb128 0x1
 16570 584f 50       		.byte	0x50
 16571 5850 05       		.uleb128 0x5
 16572 5851 03       		.byte	0x3
 16573 5852 00000000 		.4byte	buffer
 16574 5856 40       		.uleb128 0x40
 16575 5857 01       		.uleb128 0x1
 16576 5858 51       		.byte	0x51
 16577 5859 01       		.uleb128 0x1
 16578 585a 35       		.byte	0x35
 16579 585b 00       		.byte	0
 16580 585c 3D       		.uleb128 0x3d
 16581 585d AA1A0000 		.4byte	.LVL387
 16582 5861 F16A0000 		.4byte	0x6af1
 16583 5865 3D       		.uleb128 0x3d
 16584 5866 B61A0000 		.4byte	.LVL388
 16585 586a E66A0000 		.4byte	0x6ae6
 16586 586e 3D       		.uleb128 0x3d
 16587 586f BA1A0000 		.4byte	.LVL389
 16588 5873 F16A0000 		.4byte	0x6af1
 16589 5877 3F       		.uleb128 0x3f
 16590 5878 C61A0000 		.4byte	.LVL390
 16591 587c 2B6A0000 		.4byte	0x6a2b
 16592 5880 8F580000 		.4byte	0x588f
 16593 5884 40       		.uleb128 0x40
 16594 5885 01       		.uleb128 0x1
 16595 5886 50       		.byte	0x50
 16596 5887 01       		.uleb128 0x1
 16597 5888 38       		.byte	0x38
 16598 5889 40       		.uleb128 0x40
 16599 588a 01       		.uleb128 0x1
 16600 588b 51       		.byte	0x51
 16601 588c 01       		.uleb128 0x1
 16602 588d 31       		.byte	0x31
 16603 588e 00       		.byte	0
 16604 588f 3F       		.uleb128 0x3f
 16605 5890 CE1A0000 		.4byte	.LVL391
 16606 5894 416A0000 		.4byte	0x6a41
 16607 5898 A4580000 		.4byte	0x58a4
 16608 589c 40       		.uleb128 0x40
 16609 589d 01       		.uleb128 0x1
 16610 589e 50       		.byte	0x50
 16611 589f 03       		.uleb128 0x3
 16612 58a0 0A       		.byte	0xa
 16613 58a1 9001     		.2byte	0x190
 16614 58a3 00       		.byte	0
 16615 58a4 3D       		.uleb128 0x3d
 16616 58a5 D21A0000 		.4byte	.LVL392
 16617 58a9 4C6A0000 		.4byte	0x6a4c
 16618 58ad 3F       		.uleb128 0x3f
 16619 58ae D81A0000 		.4byte	.LVL393
ARM GAS  /var/folders/bw/wdbp2_bd0pn7gl5ybd33xbb80000gn/T//ccZ5cvgj.s 			page 298


 16620 58b2 416A0000 		.4byte	0x6a41
 16621 58b6 C1580000 		.4byte	0x58c1
 16622 58ba 40       		.uleb128 0x40
 16623 58bb 01       		.uleb128 0x1
 16624 58bc 50       		.byte	0x50
 16625 58bd 02       		.uleb128 0x2
 16626 58be 08       		.byte	0x8
 16627 58bf 64       		.byte	0x64
 16628 58c0 00       		.byte	0
 16629 58c1 3D       		.uleb128 0x3d
 16630 58c2 DC1A0000 		.4byte	.LVL394
 16631 58c6 576A0000 		.4byte	0x6a57
 16632 58ca 3F       		.uleb128 0x3f
 16633 58cb E41A0000 		.4byte	.LVL395
 16634 58cf E66A0000 		.4byte	0x6ae6
 16635 58d3 E6580000 		.4byte	0x58e6
 16636 58d7 40       		.uleb128 0x40
 16637 58d8 01       		.uleb128 0x1
 16638 58d9 50       		.byte	0x50
 16639 58da 05       		.uleb128 0x5
 16640 58db 03       		.byte	0x3
 16641 58dc 3C0A0000 		.4byte	.LC90
 16642 58e0 40       		.uleb128 0x40
 16643 58e1 01       		.uleb128 0x1
 16644 58e2 51       		.byte	0x51
 16645 58e3 01       		.uleb128 0x1
 16646 58e4 49       		.byte	0x49
 16647 58e5 00       		.byte	0
 16648 58e6 3D       		.uleb128 0x3d
 16649 58e7 E81A0000 		.4byte	.LVL396
 16650 58eb F16A0000 		.4byte	0x6af1
 16651 58ef 3F       		.uleb128 0x3f
 16652 58f0 F61A0000 		.4byte	.LVL398
 16653 58f4 F4690000 		.4byte	0x69f4
 16654 58f8 05590000 		.4byte	0x5905
 16655 58fc 40       		.uleb128 0x40
 16656 58fd 01       		.uleb128 0x1
 16657 58fe 50       		.byte	0x50
 16658 58ff 04       		.uleb128 0x4
 16659 5900 91       		.byte	0x91
 16660 5901 947F     		.sleb128 -108
 16661 5903 06       		.byte	0x6
 16662 5904 00       		.byte	0
 16663 5905 3F       		.uleb128 0x3f
 16664 5906 FE1A0000 		.4byte	.LVL399
 16665 590a F4690000 		.4byte	0x69f4
 16666 590e 18590000 		.4byte	0x5918
 16667 5912 40       		.uleb128 0x40
 16668 5913 01       		.uleb128 0x1
 16669 5914 50       		.byte	0x50
 16670 5915 01       		.uleb128 0x1
 16671 5916 31       		.byte	0x31
 16672 5917 00       		.byte	0
 16673 5918 3F       		.uleb128 0x3f
 16674 5919 061B0000 		.4byte	.LVL400
 16675 591d F4690000 		.4byte	0x69f4
 16676 5921 2B590000 		.4byte	0x592b
ARM GAS  /var/folders/bw/wdbp2_bd0pn7gl5ybd33xbb80000gn/T//ccZ5cvgj.s 			page 299


 16677 5925 40       		.uleb128 0x40
 16678 5926 01       		.uleb128 0x1
 16679 5927 50       		.byte	0x50
 16680 5928 01       		.uleb128 0x1
 16681 5929 32       		.byte	0x32
 16682 592a 00       		.byte	0
 16683 592b 3F       		.uleb128 0x3f
 16684 592c 0E1B0000 		.4byte	.LVL401
 16685 5930 F4690000 		.4byte	0x69f4
 16686 5934 3E590000 		.4byte	0x593e
 16687 5938 40       		.uleb128 0x40
 16688 5939 01       		.uleb128 0x1
 16689 593a 50       		.byte	0x50
 16690 593b 01       		.uleb128 0x1
 16691 593c 33       		.byte	0x33
 16692 593d 00       		.byte	0
 16693 593e 3F       		.uleb128 0x3f
 16694 593f 161B0000 		.4byte	.LVL402
 16695 5943 F4690000 		.4byte	0x69f4
 16696 5947 51590000 		.4byte	0x5951
 16697 594b 40       		.uleb128 0x40
 16698 594c 01       		.uleb128 0x1
 16699 594d 50       		.byte	0x50
 16700 594e 01       		.uleb128 0x1
 16701 594f 34       		.byte	0x34
 16702 5950 00       		.byte	0
 16703 5951 3F       		.uleb128 0x3f
 16704 5952 1E1B0000 		.4byte	.LVL403
 16705 5956 F4690000 		.4byte	0x69f4
 16706 595a 64590000 		.4byte	0x5964
 16707 595e 40       		.uleb128 0x40
 16708 595f 01       		.uleb128 0x1
 16709 5960 50       		.byte	0x50
 16710 5961 01       		.uleb128 0x1
 16711 5962 35       		.byte	0x35
 16712 5963 00       		.byte	0
 16713 5964 3F       		.uleb128 0x3f
 16714 5965 261B0000 		.4byte	.LVL404
 16715 5969 F4690000 		.4byte	0x69f4
 16716 596d 77590000 		.4byte	0x5977
 16717 5971 40       		.uleb128 0x40
 16718 5972 01       		.uleb128 0x1
 16719 5973 50       		.byte	0x50
 16720 5974 01       		.uleb128 0x1
 16721 5975 36       		.byte	0x36
 16722 5976 00       		.byte	0
 16723 5977 3F       		.uleb128 0x3f
 16724 5978 2E1B0000 		.4byte	.LVL405
 16725 597c F4690000 		.4byte	0x69f4
 16726 5980 8A590000 		.4byte	0x598a
 16727 5984 40       		.uleb128 0x40
 16728 5985 01       		.uleb128 0x1
 16729 5986 50       		.byte	0x50
 16730 5987 01       		.uleb128 0x1
 16731 5988 37       		.byte	0x37
 16732 5989 00       		.byte	0
 16733 598a 3F       		.uleb128 0x3f
ARM GAS  /var/folders/bw/wdbp2_bd0pn7gl5ybd33xbb80000gn/T//ccZ5cvgj.s 			page 300


 16734 598b 361B0000 		.4byte	.LVL406
 16735 598f F4690000 		.4byte	0x69f4
 16736 5993 9D590000 		.4byte	0x599d
 16737 5997 40       		.uleb128 0x40
 16738 5998 01       		.uleb128 0x1
 16739 5999 50       		.byte	0x50
 16740 599a 01       		.uleb128 0x1
 16741 599b 38       		.byte	0x38
 16742 599c 00       		.byte	0
 16743 599d 3F       		.uleb128 0x3f
 16744 599e 3E1B0000 		.4byte	.LVL407
 16745 59a2 F4690000 		.4byte	0x69f4
 16746 59a6 B0590000 		.4byte	0x59b0
 16747 59aa 40       		.uleb128 0x40
 16748 59ab 01       		.uleb128 0x1
 16749 59ac 50       		.byte	0x50
 16750 59ad 01       		.uleb128 0x1
 16751 59ae 39       		.byte	0x39
 16752 59af 00       		.byte	0
 16753 59b0 3F       		.uleb128 0x3f
 16754 59b1 621B0000 		.4byte	.LVL408
 16755 59b5 A7690000 		.4byte	0x69a7
 16756 59b9 165A0000 		.4byte	0x5a16
 16757 59bd 40       		.uleb128 0x40
 16758 59be 01       		.uleb128 0x1
 16759 59bf 50       		.byte	0x50
 16760 59c0 02       		.uleb128 0x2
 16761 59c1 78       		.byte	0x78
 16762 59c2 00       		.sleb128 0
 16763 59c3 40       		.uleb128 0x40
 16764 59c4 01       		.uleb128 0x1
 16765 59c5 51       		.byte	0x51
 16766 59c6 05       		.uleb128 0x5
 16767 59c7 03       		.byte	0x3
 16768 59c8 58090000 		.4byte	.LC73
 16769 59cc 40       		.uleb128 0x40
 16770 59cd 01       		.uleb128 0x1
 16771 59ce 52       		.byte	0x52
 16772 59cf 04       		.uleb128 0x4
 16773 59d0 91       		.byte	0x91
 16774 59d1 AC7F     		.sleb128 -84
 16775 59d3 06       		.byte	0x6
 16776 59d4 40       		.uleb128 0x40
 16777 59d5 01       		.uleb128 0x1
 16778 59d6 53       		.byte	0x53
 16779 59d7 04       		.uleb128 0x4
 16780 59d8 91       		.byte	0x91
 16781 59d9 A87F     		.sleb128 -88
 16782 59db 06       		.byte	0x6
 16783 59dc 40       		.uleb128 0x40
 16784 59dd 02       		.uleb128 0x2
 16785 59de 7D       		.byte	0x7d
 16786 59df 00       		.sleb128 0
 16787 59e0 04       		.uleb128 0x4
 16788 59e1 91       		.byte	0x91
 16789 59e2 987F     		.sleb128 -104
 16790 59e4 06       		.byte	0x6
ARM GAS  /var/folders/bw/wdbp2_bd0pn7gl5ybd33xbb80000gn/T//ccZ5cvgj.s 			page 301


 16791 59e5 40       		.uleb128 0x40
 16792 59e6 02       		.uleb128 0x2
 16793 59e7 7D       		.byte	0x7d
 16794 59e8 04       		.sleb128 4
 16795 59e9 04       		.uleb128 0x4
 16796 59ea 91       		.byte	0x91
 16797 59eb A47F     		.sleb128 -92
 16798 59ed 06       		.byte	0x6
 16799 59ee 40       		.uleb128 0x40
 16800 59ef 02       		.uleb128 0x2
 16801 59f0 7D       		.byte	0x7d
 16802 59f1 08       		.sleb128 8
 16803 59f2 04       		.uleb128 0x4
 16804 59f3 91       		.byte	0x91
 16805 59f4 9C7F     		.sleb128 -100
 16806 59f6 06       		.byte	0x6
 16807 59f7 40       		.uleb128 0x40
 16808 59f8 02       		.uleb128 0x2
 16809 59f9 7D       		.byte	0x7d
 16810 59fa 0C       		.sleb128 12
 16811 59fb 02       		.uleb128 0x2
 16812 59fc 74       		.byte	0x74
 16813 59fd 00       		.sleb128 0
 16814 59fe 40       		.uleb128 0x40
 16815 59ff 02       		.uleb128 0x2
 16816 5a00 7D       		.byte	0x7d
 16817 5a01 10       		.sleb128 16
 16818 5a02 02       		.uleb128 0x2
 16819 5a03 75       		.byte	0x75
 16820 5a04 00       		.sleb128 0
 16821 5a05 40       		.uleb128 0x40
 16822 5a06 02       		.uleb128 0x2
 16823 5a07 7D       		.byte	0x7d
 16824 5a08 14       		.sleb128 20
 16825 5a09 02       		.uleb128 0x2
 16826 5a0a 76       		.byte	0x76
 16827 5a0b 00       		.sleb128 0
 16828 5a0c 40       		.uleb128 0x40
 16829 5a0d 02       		.uleb128 0x2
 16830 5a0e 7D       		.byte	0x7d
 16831 5a0f 18       		.sleb128 24
 16832 5a10 04       		.uleb128 0x4
 16833 5a11 91       		.byte	0x91
 16834 5a12 A07F     		.sleb128 -96
 16835 5a14 06       		.byte	0x6
 16836 5a15 00       		.byte	0
 16837 5a16 3F       		.uleb128 0x3f
 16838 5a17 681B0000 		.4byte	.LVL409
 16839 5a1b 65690000 		.4byte	0x6965
 16840 5a1f 2A5A0000 		.4byte	0x5a2a
 16841 5a23 40       		.uleb128 0x40
 16842 5a24 01       		.uleb128 0x1
 16843 5a25 50       		.byte	0x50
 16844 5a26 02       		.uleb128 0x2
 16845 5a27 78       		.byte	0x78
 16846 5a28 00       		.sleb128 0
 16847 5a29 00       		.byte	0
ARM GAS  /var/folders/bw/wdbp2_bd0pn7gl5ybd33xbb80000gn/T//ccZ5cvgj.s 			page 302


 16848 5a2a 3F       		.uleb128 0x3f
 16849 5a2b 701B0000 		.4byte	.LVL410
 16850 5a2f E66A0000 		.4byte	0x6ae6
 16851 5a33 3E5A0000 		.4byte	0x5a3e
 16852 5a37 40       		.uleb128 0x40
 16853 5a38 01       		.uleb128 0x1
 16854 5a39 50       		.byte	0x50
 16855 5a3a 02       		.uleb128 0x2
 16856 5a3b 78       		.byte	0x78
 16857 5a3c 00       		.sleb128 0
 16858 5a3d 00       		.byte	0
 16859 5a3e 3D       		.uleb128 0x3d
 16860 5a3f 741B0000 		.4byte	.LVL411
 16861 5a43 F16A0000 		.4byte	0x6af1
 16862 5a47 3D       		.uleb128 0x3d
 16863 5a48 801B0000 		.4byte	.LVL412
 16864 5a4c E66A0000 		.4byte	0x6ae6
 16865 5a50 3D       		.uleb128 0x3d
 16866 5a51 841B0000 		.4byte	.LVL413
 16867 5a55 F16A0000 		.4byte	0x6af1
 16868 5a59 3F       		.uleb128 0x3f
 16869 5a5a 941B0000 		.4byte	.LVL414
 16870 5a5e A7690000 		.4byte	0x69a7
 16871 5a62 765A0000 		.4byte	0x5a76
 16872 5a66 40       		.uleb128 0x40
 16873 5a67 01       		.uleb128 0x1
 16874 5a68 50       		.byte	0x50
 16875 5a69 02       		.uleb128 0x2
 16876 5a6a 78       		.byte	0x78
 16877 5a6b 00       		.sleb128 0
 16878 5a6c 40       		.uleb128 0x40
 16879 5a6d 01       		.uleb128 0x1
 16880 5a6e 51       		.byte	0x51
 16881 5a6f 05       		.uleb128 0x5
 16882 5a70 03       		.byte	0x3
 16883 5a71 580A0000 		.4byte	.LC91
 16884 5a75 00       		.byte	0
 16885 5a76 3F       		.uleb128 0x3f
 16886 5a77 9A1B0000 		.4byte	.LVL415
 16887 5a7b 65690000 		.4byte	0x6965
 16888 5a7f 8A5A0000 		.4byte	0x5a8a
 16889 5a83 40       		.uleb128 0x40
 16890 5a84 01       		.uleb128 0x1
 16891 5a85 50       		.byte	0x50
 16892 5a86 02       		.uleb128 0x2
 16893 5a87 78       		.byte	0x78
 16894 5a88 00       		.sleb128 0
 16895 5a89 00       		.byte	0
 16896 5a8a 3F       		.uleb128 0x3f
 16897 5a8b A21B0000 		.4byte	.LVL416
 16898 5a8f E66A0000 		.4byte	0x6ae6
 16899 5a93 9E5A0000 		.4byte	0x5a9e
 16900 5a97 40       		.uleb128 0x40
 16901 5a98 01       		.uleb128 0x1
 16902 5a99 50       		.byte	0x50
 16903 5a9a 02       		.uleb128 0x2
 16904 5a9b 78       		.byte	0x78
ARM GAS  /var/folders/bw/wdbp2_bd0pn7gl5ybd33xbb80000gn/T//ccZ5cvgj.s 			page 303


 16905 5a9c 00       		.sleb128 0
 16906 5a9d 00       		.byte	0
 16907 5a9e 3D       		.uleb128 0x3d
 16908 5a9f A61B0000 		.4byte	.LVL417
 16909 5aa3 F16A0000 		.4byte	0x6af1
 16910 5aa7 3D       		.uleb128 0x3d
 16911 5aa8 B21B0000 		.4byte	.LVL418
 16912 5aac 65690000 		.4byte	0x6965
 16913 5ab0 3F       		.uleb128 0x3f
 16914 5ab1 BA1B0000 		.4byte	.LVL419
 16915 5ab5 E66A0000 		.4byte	0x6ae6
 16916 5ab9 C45A0000 		.4byte	0x5ac4
 16917 5abd 40       		.uleb128 0x40
 16918 5abe 01       		.uleb128 0x1
 16919 5abf 50       		.byte	0x50
 16920 5ac0 02       		.uleb128 0x2
 16921 5ac1 78       		.byte	0x78
 16922 5ac2 00       		.sleb128 0
 16923 5ac3 00       		.byte	0
 16924 5ac4 3D       		.uleb128 0x3d
 16925 5ac5 BE1B0000 		.4byte	.LVL420
 16926 5ac9 F16A0000 		.4byte	0x6af1
 16927 5acd 3D       		.uleb128 0x3d
 16928 5ace CA1B0000 		.4byte	.LVL421
 16929 5ad2 E66A0000 		.4byte	0x6ae6
 16930 5ad6 3D       		.uleb128 0x3d
 16931 5ad7 CE1B0000 		.4byte	.LVL422
 16932 5adb F16A0000 		.4byte	0x6af1
 16933 5adf 3D       		.uleb128 0x3d
 16934 5ae0 DA1B0000 		.4byte	.LVL423
 16935 5ae4 E66A0000 		.4byte	0x6ae6
 16936 5ae8 3D       		.uleb128 0x3d
 16937 5ae9 DE1B0000 		.4byte	.LVL424
 16938 5aed F16A0000 		.4byte	0x6af1
 16939 5af1 3D       		.uleb128 0x3d
 16940 5af2 EA1B0000 		.4byte	.LVL425
 16941 5af6 65690000 		.4byte	0x6965
 16942 5afa 3F       		.uleb128 0x3f
 16943 5afb F21B0000 		.4byte	.LVL426
 16944 5aff E66A0000 		.4byte	0x6ae6
 16945 5b03 0E5B0000 		.4byte	0x5b0e
 16946 5b07 40       		.uleb128 0x40
 16947 5b08 01       		.uleb128 0x1
 16948 5b09 50       		.byte	0x50
 16949 5b0a 02       		.uleb128 0x2
 16950 5b0b 78       		.byte	0x78
 16951 5b0c 00       		.sleb128 0
 16952 5b0d 00       		.byte	0
 16953 5b0e 3D       		.uleb128 0x3d
 16954 5b0f F61B0000 		.4byte	.LVL427
 16955 5b13 F16A0000 		.4byte	0x6af1
 16956 5b17 3D       		.uleb128 0x3d
 16957 5b18 021C0000 		.4byte	.LVL428
 16958 5b1c E66A0000 		.4byte	0x6ae6
 16959 5b20 3D       		.uleb128 0x3d
 16960 5b21 061C0000 		.4byte	.LVL429
 16961 5b25 F16A0000 		.4byte	0x6af1
ARM GAS  /var/folders/bw/wdbp2_bd0pn7gl5ybd33xbb80000gn/T//ccZ5cvgj.s 			page 304


 16962 5b29 3D       		.uleb128 0x3d
 16963 5b2a 121C0000 		.4byte	.LVL430
 16964 5b2e E66A0000 		.4byte	0x6ae6
 16965 5b32 3D       		.uleb128 0x3d
 16966 5b33 161C0000 		.4byte	.LVL431
 16967 5b37 F16A0000 		.4byte	0x6af1
 16968 5b3b 3D       		.uleb128 0x3d
 16969 5b3c 221C0000 		.4byte	.LVL432
 16970 5b40 65690000 		.4byte	0x6965
 16971 5b44 3F       		.uleb128 0x3f
 16972 5b45 2A1C0000 		.4byte	.LVL433
 16973 5b49 E66A0000 		.4byte	0x6ae6
 16974 5b4d 585B0000 		.4byte	0x5b58
 16975 5b51 40       		.uleb128 0x40
 16976 5b52 01       		.uleb128 0x1
 16977 5b53 50       		.byte	0x50
 16978 5b54 02       		.uleb128 0x2
 16979 5b55 78       		.byte	0x78
 16980 5b56 00       		.sleb128 0
 16981 5b57 00       		.byte	0
 16982 5b58 3D       		.uleb128 0x3d
 16983 5b59 2E1C0000 		.4byte	.LVL434
 16984 5b5d F16A0000 		.4byte	0x6af1
 16985 5b61 3D       		.uleb128 0x3d
 16986 5b62 3A1C0000 		.4byte	.LVL435
 16987 5b66 5A690000 		.4byte	0x695a
 16988 5b6a 3F       		.uleb128 0x3f
 16989 5b6b 521C0000 		.4byte	.LVL436
 16990 5b6f 65690000 		.4byte	0x6965
 16991 5b73 7E5B0000 		.4byte	0x5b7e
 16992 5b77 40       		.uleb128 0x40
 16993 5b78 01       		.uleb128 0x1
 16994 5b79 50       		.byte	0x50
 16995 5b7a 02       		.uleb128 0x2
 16996 5b7b 78       		.byte	0x78
 16997 5b7c 00       		.sleb128 0
 16998 5b7d 00       		.byte	0
 16999 5b7e 3F       		.uleb128 0x3f
 17000 5b7f 5A1C0000 		.4byte	.LVL437
 17001 5b83 E66A0000 		.4byte	0x6ae6
 17002 5b87 925B0000 		.4byte	0x5b92
 17003 5b8b 40       		.uleb128 0x40
 17004 5b8c 01       		.uleb128 0x1
 17005 5b8d 50       		.byte	0x50
 17006 5b8e 02       		.uleb128 0x2
 17007 5b8f 78       		.byte	0x78
 17008 5b90 00       		.sleb128 0
 17009 5b91 00       		.byte	0
 17010 5b92 3D       		.uleb128 0x3d
 17011 5b93 5E1C0000 		.4byte	.LVL438
 17012 5b97 F16A0000 		.4byte	0x6af1
 17013 5b9b 3F       		.uleb128 0x3f
 17014 5b9c AA1C0000 		.4byte	.LVL439
 17015 5ba0 FF690000 		.4byte	0x69ff
 17016 5ba4 B15B0000 		.4byte	0x5bb1
 17017 5ba8 40       		.uleb128 0x40
 17018 5ba9 01       		.uleb128 0x1
ARM GAS  /var/folders/bw/wdbp2_bd0pn7gl5ybd33xbb80000gn/T//ccZ5cvgj.s 			page 305


 17019 5baa 50       		.byte	0x50
 17020 5bab 04       		.uleb128 0x4
 17021 5bac 91       		.byte	0x91
 17022 5bad 947F     		.sleb128 -108
 17023 5baf 06       		.byte	0x6
 17024 5bb0 00       		.byte	0
 17025 5bb1 3F       		.uleb128 0x3f
 17026 5bb2 B21C0000 		.4byte	.LVL440
 17027 5bb6 FF690000 		.4byte	0x69ff
 17028 5bba C45B0000 		.4byte	0x5bc4
 17029 5bbe 40       		.uleb128 0x40
 17030 5bbf 01       		.uleb128 0x1
 17031 5bc0 50       		.byte	0x50
 17032 5bc1 01       		.uleb128 0x1
 17033 5bc2 31       		.byte	0x31
 17034 5bc3 00       		.byte	0
 17035 5bc4 3F       		.uleb128 0x3f
 17036 5bc5 BA1C0000 		.4byte	.LVL441
 17037 5bc9 FF690000 		.4byte	0x69ff
 17038 5bcd D75B0000 		.4byte	0x5bd7
 17039 5bd1 40       		.uleb128 0x40
 17040 5bd2 01       		.uleb128 0x1
 17041 5bd3 50       		.byte	0x50
 17042 5bd4 01       		.uleb128 0x1
 17043 5bd5 32       		.byte	0x32
 17044 5bd6 00       		.byte	0
 17045 5bd7 3F       		.uleb128 0x3f
 17046 5bd8 C21C0000 		.4byte	.LVL442
 17047 5bdc FF690000 		.4byte	0x69ff
 17048 5be0 EA5B0000 		.4byte	0x5bea
 17049 5be4 40       		.uleb128 0x40
 17050 5be5 01       		.uleb128 0x1
 17051 5be6 50       		.byte	0x50
 17052 5be7 01       		.uleb128 0x1
 17053 5be8 33       		.byte	0x33
 17054 5be9 00       		.byte	0
 17055 5bea 3F       		.uleb128 0x3f
 17056 5beb CA1C0000 		.4byte	.LVL443
 17057 5bef FF690000 		.4byte	0x69ff
 17058 5bf3 FD5B0000 		.4byte	0x5bfd
 17059 5bf7 40       		.uleb128 0x40
 17060 5bf8 01       		.uleb128 0x1
 17061 5bf9 50       		.byte	0x50
 17062 5bfa 01       		.uleb128 0x1
 17063 5bfb 34       		.byte	0x34
 17064 5bfc 00       		.byte	0
 17065 5bfd 3F       		.uleb128 0x3f
 17066 5bfe D21C0000 		.4byte	.LVL444
 17067 5c02 FF690000 		.4byte	0x69ff
 17068 5c06 105C0000 		.4byte	0x5c10
 17069 5c0a 40       		.uleb128 0x40
 17070 5c0b 01       		.uleb128 0x1
 17071 5c0c 50       		.byte	0x50
 17072 5c0d 01       		.uleb128 0x1
 17073 5c0e 35       		.byte	0x35
 17074 5c0f 00       		.byte	0
 17075 5c10 3F       		.uleb128 0x3f
ARM GAS  /var/folders/bw/wdbp2_bd0pn7gl5ybd33xbb80000gn/T//ccZ5cvgj.s 			page 306


 17076 5c11 DA1C0000 		.4byte	.LVL445
 17077 5c15 FF690000 		.4byte	0x69ff
 17078 5c19 235C0000 		.4byte	0x5c23
 17079 5c1d 40       		.uleb128 0x40
 17080 5c1e 01       		.uleb128 0x1
 17081 5c1f 50       		.byte	0x50
 17082 5c20 01       		.uleb128 0x1
 17083 5c21 36       		.byte	0x36
 17084 5c22 00       		.byte	0
 17085 5c23 3F       		.uleb128 0x3f
 17086 5c24 E21C0000 		.4byte	.LVL446
 17087 5c28 FF690000 		.4byte	0x69ff
 17088 5c2c 365C0000 		.4byte	0x5c36
 17089 5c30 40       		.uleb128 0x40
 17090 5c31 01       		.uleb128 0x1
 17091 5c32 50       		.byte	0x50
 17092 5c33 01       		.uleb128 0x1
 17093 5c34 37       		.byte	0x37
 17094 5c35 00       		.byte	0
 17095 5c36 3F       		.uleb128 0x3f
 17096 5c37 EA1C0000 		.4byte	.LVL447
 17097 5c3b FF690000 		.4byte	0x69ff
 17098 5c3f 495C0000 		.4byte	0x5c49
 17099 5c43 40       		.uleb128 0x40
 17100 5c44 01       		.uleb128 0x1
 17101 5c45 50       		.byte	0x50
 17102 5c46 01       		.uleb128 0x1
 17103 5c47 38       		.byte	0x38
 17104 5c48 00       		.byte	0
 17105 5c49 3F       		.uleb128 0x3f
 17106 5c4a F21C0000 		.4byte	.LVL448
 17107 5c4e FF690000 		.4byte	0x69ff
 17108 5c52 5C5C0000 		.4byte	0x5c5c
 17109 5c56 40       		.uleb128 0x40
 17110 5c57 01       		.uleb128 0x1
 17111 5c58 50       		.byte	0x50
 17112 5c59 01       		.uleb128 0x1
 17113 5c5a 39       		.byte	0x39
 17114 5c5b 00       		.byte	0
 17115 5c5c 3F       		.uleb128 0x3f
 17116 5c5d 161D0000 		.4byte	.LVL449
 17117 5c61 A7690000 		.4byte	0x69a7
 17118 5c65 C25C0000 		.4byte	0x5cc2
 17119 5c69 40       		.uleb128 0x40
 17120 5c6a 01       		.uleb128 0x1
 17121 5c6b 50       		.byte	0x50
 17122 5c6c 02       		.uleb128 0x2
 17123 5c6d 78       		.byte	0x78
 17124 5c6e 00       		.sleb128 0
 17125 5c6f 40       		.uleb128 0x40
 17126 5c70 01       		.uleb128 0x1
 17127 5c71 51       		.byte	0x51
 17128 5c72 05       		.uleb128 0x5
 17129 5c73 03       		.byte	0x3
 17130 5c74 18090000 		.4byte	.LC71
 17131 5c78 40       		.uleb128 0x40
 17132 5c79 01       		.uleb128 0x1
ARM GAS  /var/folders/bw/wdbp2_bd0pn7gl5ybd33xbb80000gn/T//ccZ5cvgj.s 			page 307


 17133 5c7a 52       		.byte	0x52
 17134 5c7b 04       		.uleb128 0x4
 17135 5c7c 91       		.byte	0x91
 17136 5c7d AC7F     		.sleb128 -84
 17137 5c7f 06       		.byte	0x6
 17138 5c80 40       		.uleb128 0x40
 17139 5c81 01       		.uleb128 0x1
 17140 5c82 53       		.byte	0x53
 17141 5c83 04       		.uleb128 0x4
 17142 5c84 91       		.byte	0x91
 17143 5c85 A87F     		.sleb128 -88
 17144 5c87 06       		.byte	0x6
 17145 5c88 40       		.uleb128 0x40
 17146 5c89 02       		.uleb128 0x2
 17147 5c8a 7D       		.byte	0x7d
 17148 5c8b 00       		.sleb128 0
 17149 5c8c 04       		.uleb128 0x4
 17150 5c8d 91       		.byte	0x91
 17151 5c8e 987F     		.sleb128 -104
 17152 5c90 06       		.byte	0x6
 17153 5c91 40       		.uleb128 0x40
 17154 5c92 02       		.uleb128 0x2
 17155 5c93 7D       		.byte	0x7d
 17156 5c94 04       		.sleb128 4
 17157 5c95 04       		.uleb128 0x4
 17158 5c96 91       		.byte	0x91
 17159 5c97 A47F     		.sleb128 -92
 17160 5c99 06       		.byte	0x6
 17161 5c9a 40       		.uleb128 0x40
 17162 5c9b 02       		.uleb128 0x2
 17163 5c9c 7D       		.byte	0x7d
 17164 5c9d 08       		.sleb128 8
 17165 5c9e 04       		.uleb128 0x4
 17166 5c9f 91       		.byte	0x91
 17167 5ca0 9C7F     		.sleb128 -100
 17168 5ca2 06       		.byte	0x6
 17169 5ca3 40       		.uleb128 0x40
 17170 5ca4 02       		.uleb128 0x2
 17171 5ca5 7D       		.byte	0x7d
 17172 5ca6 0C       		.sleb128 12
 17173 5ca7 02       		.uleb128 0x2
 17174 5ca8 74       		.byte	0x74
 17175 5ca9 00       		.sleb128 0
 17176 5caa 40       		.uleb128 0x40
 17177 5cab 02       		.uleb128 0x2
 17178 5cac 7D       		.byte	0x7d
 17179 5cad 10       		.sleb128 16
 17180 5cae 02       		.uleb128 0x2
 17181 5caf 75       		.byte	0x75
 17182 5cb0 00       		.sleb128 0
 17183 5cb1 40       		.uleb128 0x40
 17184 5cb2 02       		.uleb128 0x2
 17185 5cb3 7D       		.byte	0x7d
 17186 5cb4 14       		.sleb128 20
 17187 5cb5 02       		.uleb128 0x2
 17188 5cb6 76       		.byte	0x76
 17189 5cb7 00       		.sleb128 0
ARM GAS  /var/folders/bw/wdbp2_bd0pn7gl5ybd33xbb80000gn/T//ccZ5cvgj.s 			page 308


 17190 5cb8 40       		.uleb128 0x40
 17191 5cb9 02       		.uleb128 0x2
 17192 5cba 7D       		.byte	0x7d
 17193 5cbb 18       		.sleb128 24
 17194 5cbc 04       		.uleb128 0x4
 17195 5cbd 91       		.byte	0x91
 17196 5cbe A07F     		.sleb128 -96
 17197 5cc0 06       		.byte	0x6
 17198 5cc1 00       		.byte	0
 17199 5cc2 3F       		.uleb128 0x3f
 17200 5cc3 1C1D0000 		.4byte	.LVL450
 17201 5cc7 65690000 		.4byte	0x6965
 17202 5ccb D65C0000 		.4byte	0x5cd6
 17203 5ccf 40       		.uleb128 0x40
 17204 5cd0 01       		.uleb128 0x1
 17205 5cd1 50       		.byte	0x50
 17206 5cd2 02       		.uleb128 0x2
 17207 5cd3 78       		.byte	0x78
 17208 5cd4 00       		.sleb128 0
 17209 5cd5 00       		.byte	0
 17210 5cd6 3F       		.uleb128 0x3f
 17211 5cd7 241D0000 		.4byte	.LVL451
 17212 5cdb E66A0000 		.4byte	0x6ae6
 17213 5cdf EA5C0000 		.4byte	0x5cea
 17214 5ce3 40       		.uleb128 0x40
 17215 5ce4 01       		.uleb128 0x1
 17216 5ce5 50       		.byte	0x50
 17217 5ce6 02       		.uleb128 0x2
 17218 5ce7 78       		.byte	0x78
 17219 5ce8 00       		.sleb128 0
 17220 5ce9 00       		.byte	0
 17221 5cea 3D       		.uleb128 0x3d
 17222 5ceb 281D0000 		.4byte	.LVL452
 17223 5cef F16A0000 		.4byte	0x6af1
 17224 5cf3 3D       		.uleb128 0x3d
 17225 5cf4 341D0000 		.4byte	.LVL453
 17226 5cf8 E66A0000 		.4byte	0x6ae6
 17227 5cfc 3D       		.uleb128 0x3d
 17228 5cfd 381D0000 		.4byte	.LVL454
 17229 5d01 F16A0000 		.4byte	0x6af1
 17230 5d05 3F       		.uleb128 0x3f
 17231 5d06 4A1D0000 		.4byte	.LVL455
 17232 5d0a A7690000 		.4byte	0x69a7
 17233 5d0e 225D0000 		.4byte	0x5d22
 17234 5d12 40       		.uleb128 0x40
 17235 5d13 01       		.uleb128 0x1
 17236 5d14 50       		.byte	0x50
 17237 5d15 02       		.uleb128 0x2
 17238 5d16 78       		.byte	0x78
 17239 5d17 00       		.sleb128 0
 17240 5d18 40       		.uleb128 0x40
 17241 5d19 01       		.uleb128 0x1
 17242 5d1a 51       		.byte	0x51
 17243 5d1b 05       		.uleb128 0x5
 17244 5d1c 03       		.byte	0x3
 17245 5d1d 88000000 		.4byte	.LC4
 17246 5d21 00       		.byte	0
ARM GAS  /var/folders/bw/wdbp2_bd0pn7gl5ybd33xbb80000gn/T//ccZ5cvgj.s 			page 309


 17247 5d22 3F       		.uleb128 0x3f
 17248 5d23 541D0000 		.4byte	.LVL456
 17249 5d27 E66A0000 		.4byte	0x6ae6
 17250 5d2b 3E5D0000 		.4byte	0x5d3e
 17251 5d2f 40       		.uleb128 0x40
 17252 5d30 01       		.uleb128 0x1
 17253 5d31 50       		.byte	0x50
 17254 5d32 05       		.uleb128 0x5
 17255 5d33 03       		.byte	0x3
 17256 5d34 A4090000 		.4byte	.LC79
 17257 5d38 40       		.uleb128 0x40
 17258 5d39 01       		.uleb128 0x1
 17259 5d3a 51       		.byte	0x51
 17260 5d3b 01       		.uleb128 0x1
 17261 5d3c 33       		.byte	0x33
 17262 5d3d 00       		.byte	0
 17263 5d3e 3D       		.uleb128 0x3d
 17264 5d3f 581D0000 		.4byte	.LVL457
 17265 5d43 F16A0000 		.4byte	0x6af1
 17266 5d47 3D       		.uleb128 0x3d
 17267 5d48 641D0000 		.4byte	.LVL458
 17268 5d4c E66A0000 		.4byte	0x6ae6
 17269 5d50 3D       		.uleb128 0x3d
 17270 5d51 681D0000 		.4byte	.LVL459
 17271 5d55 F16A0000 		.4byte	0x6af1
 17272 5d59 3F       		.uleb128 0x3f
 17273 5d5a 781D0000 		.4byte	.LVL460
 17274 5d5e E66A0000 		.4byte	0x6ae6
 17275 5d62 755D0000 		.4byte	0x5d75
 17276 5d66 40       		.uleb128 0x40
 17277 5d67 01       		.uleb128 0x1
 17278 5d68 50       		.byte	0x50
 17279 5d69 05       		.uleb128 0x5
 17280 5d6a 03       		.byte	0x3
 17281 5d6b 98000000 		.4byte	.LC6
 17282 5d6f 40       		.uleb128 0x40
 17283 5d70 01       		.uleb128 0x1
 17284 5d71 51       		.byte	0x51
 17285 5d72 01       		.uleb128 0x1
 17286 5d73 33       		.byte	0x33
 17287 5d74 00       		.byte	0
 17288 5d75 3D       		.uleb128 0x3d
 17289 5d76 7C1D0000 		.4byte	.LVL461
 17290 5d7a F16A0000 		.4byte	0x6af1
 17291 5d7e 3D       		.uleb128 0x3d
 17292 5d7f 881D0000 		.4byte	.LVL462
 17293 5d83 E66A0000 		.4byte	0x6ae6
 17294 5d87 3D       		.uleb128 0x3d
 17295 5d88 8C1D0000 		.4byte	.LVL463
 17296 5d8c F16A0000 		.4byte	0x6af1
 17297 5d90 3D       		.uleb128 0x3d
 17298 5d91 941D0000 		.4byte	.LVL464
 17299 5d95 5A690000 		.4byte	0x695a
 17300 5d99 3D       		.uleb128 0x3d
 17301 5d9a 9E1D0000 		.4byte	.LVL465
 17302 5d9e 5A690000 		.4byte	0x695a
 17303 5da2 3F       		.uleb128 0x3f
ARM GAS  /var/folders/bw/wdbp2_bd0pn7gl5ybd33xbb80000gn/T//ccZ5cvgj.s 			page 310


 17304 5da3 AC1D0000 		.4byte	.LVL466
 17305 5da7 E66A0000 		.4byte	0x6ae6
 17306 5dab BE5D0000 		.4byte	0x5dbe
 17307 5daf 40       		.uleb128 0x40
 17308 5db0 01       		.uleb128 0x1
 17309 5db1 50       		.byte	0x50
 17310 5db2 05       		.uleb128 0x5
 17311 5db3 03       		.byte	0x3
 17312 5db4 FC050000 		.4byte	.LC45
 17313 5db8 40       		.uleb128 0x40
 17314 5db9 01       		.uleb128 0x1
 17315 5dba 51       		.byte	0x51
 17316 5dbb 01       		.uleb128 0x1
 17317 5dbc 49       		.byte	0x49
 17318 5dbd 00       		.byte	0
 17319 5dbe 3D       		.uleb128 0x3d
 17320 5dbf B01D0000 		.4byte	.LVL467
 17321 5dc3 F16A0000 		.4byte	0x6af1
 17322 5dc7 3F       		.uleb128 0x3f
 17323 5dc8 BC1D0000 		.4byte	.LVL468
 17324 5dcc E66A0000 		.4byte	0x6ae6
 17325 5dd0 E35D0000 		.4byte	0x5de3
 17326 5dd4 40       		.uleb128 0x40
 17327 5dd5 01       		.uleb128 0x1
 17328 5dd6 50       		.byte	0x50
 17329 5dd7 05       		.uleb128 0x5
 17330 5dd8 03       		.byte	0x3
 17331 5dd9 40060000 		.4byte	.LC47
 17332 5ddd 40       		.uleb128 0x40
 17333 5dde 01       		.uleb128 0x1
 17334 5ddf 51       		.byte	0x51
 17335 5de0 01       		.uleb128 0x1
 17336 5de1 4D       		.byte	0x4d
 17337 5de2 00       		.byte	0
 17338 5de3 3D       		.uleb128 0x3d
 17339 5de4 C01D0000 		.4byte	.LVL469
 17340 5de8 F16A0000 		.4byte	0x6af1
 17341 5dec 3F       		.uleb128 0x3f
 17342 5ded CC1D0000 		.4byte	.LVL470
 17343 5df1 E66A0000 		.4byte	0x6ae6
 17344 5df5 095E0000 		.4byte	0x5e09
 17345 5df9 40       		.uleb128 0x40
 17346 5dfa 01       		.uleb128 0x1
 17347 5dfb 50       		.byte	0x50
 17348 5dfc 05       		.uleb128 0x5
 17349 5dfd 03       		.byte	0x3
 17350 5dfe 60060000 		.4byte	.LC48
 17351 5e02 40       		.uleb128 0x40
 17352 5e03 01       		.uleb128 0x1
 17353 5e04 51       		.byte	0x51
 17354 5e05 02       		.uleb128 0x2
 17355 5e06 08       		.byte	0x8
 17356 5e07 26       		.byte	0x26
 17357 5e08 00       		.byte	0
 17358 5e09 3D       		.uleb128 0x3d
 17359 5e0a D01D0000 		.4byte	.LVL471
 17360 5e0e F16A0000 		.4byte	0x6af1
ARM GAS  /var/folders/bw/wdbp2_bd0pn7gl5ybd33xbb80000gn/T//ccZ5cvgj.s 			page 311


 17361 5e12 3F       		.uleb128 0x3f
 17362 5e13 DC1D0000 		.4byte	.LVL472
 17363 5e17 E66A0000 		.4byte	0x6ae6
 17364 5e1b 2F5E0000 		.4byte	0x5e2f
 17365 5e1f 40       		.uleb128 0x40
 17366 5e20 01       		.uleb128 0x1
 17367 5e21 50       		.byte	0x50
 17368 5e22 05       		.uleb128 0x5
 17369 5e23 03       		.byte	0x3
 17370 5e24 88060000 		.4byte	.LC49
 17371 5e28 40       		.uleb128 0x40
 17372 5e29 01       		.uleb128 0x1
 17373 5e2a 51       		.byte	0x51
 17374 5e2b 02       		.uleb128 0x2
 17375 5e2c 08       		.byte	0x8
 17376 5e2d 26       		.byte	0x26
 17377 5e2e 00       		.byte	0
 17378 5e2f 3D       		.uleb128 0x3d
 17379 5e30 E01D0000 		.4byte	.LVL473
 17380 5e34 F16A0000 		.4byte	0x6af1
 17381 5e38 3F       		.uleb128 0x3f
 17382 5e39 EC1D0000 		.4byte	.LVL474
 17383 5e3d E66A0000 		.4byte	0x6ae6
 17384 5e41 545E0000 		.4byte	0x5e54
 17385 5e45 40       		.uleb128 0x40
 17386 5e46 01       		.uleb128 0x1
 17387 5e47 50       		.byte	0x50
 17388 5e48 05       		.uleb128 0x5
 17389 5e49 03       		.byte	0x3
 17390 5e4a B0060000 		.4byte	.LC50
 17391 5e4e 40       		.uleb128 0x40
 17392 5e4f 01       		.uleb128 0x1
 17393 5e50 51       		.byte	0x51
 17394 5e51 01       		.uleb128 0x1
 17395 5e52 47       		.byte	0x47
 17396 5e53 00       		.byte	0
 17397 5e54 3D       		.uleb128 0x3d
 17398 5e55 F01D0000 		.4byte	.LVL475
 17399 5e59 F16A0000 		.4byte	0x6af1
 17400 5e5d 3F       		.uleb128 0x3f
 17401 5e5e FC1D0000 		.4byte	.LVL476
 17402 5e62 E66A0000 		.4byte	0x6ae6
 17403 5e66 795E0000 		.4byte	0x5e79
 17404 5e6a 40       		.uleb128 0x40
 17405 5e6b 01       		.uleb128 0x1
 17406 5e6c 50       		.byte	0x50
 17407 5e6d 05       		.uleb128 0x5
 17408 5e6e 03       		.byte	0x3
 17409 5e6f C8060000 		.4byte	.LC51
 17410 5e73 40       		.uleb128 0x40
 17411 5e74 01       		.uleb128 0x1
 17412 5e75 51       		.byte	0x51
 17413 5e76 01       		.uleb128 0x1
 17414 5e77 40       		.byte	0x40
 17415 5e78 00       		.byte	0
 17416 5e79 3D       		.uleb128 0x3d
 17417 5e7a 001E0000 		.4byte	.LVL477
ARM GAS  /var/folders/bw/wdbp2_bd0pn7gl5ybd33xbb80000gn/T//ccZ5cvgj.s 			page 312


 17418 5e7e F16A0000 		.4byte	0x6af1
 17419 5e82 3F       		.uleb128 0x3f
 17420 5e83 0C1E0000 		.4byte	.LVL478
 17421 5e87 E66A0000 		.4byte	0x6ae6
 17422 5e8b 9F5E0000 		.4byte	0x5e9f
 17423 5e8f 40       		.uleb128 0x40
 17424 5e90 01       		.uleb128 0x1
 17425 5e91 50       		.byte	0x50
 17426 5e92 05       		.uleb128 0x5
 17427 5e93 03       		.byte	0x3
 17428 5e94 DC060000 		.4byte	.LC52
 17429 5e98 40       		.uleb128 0x40
 17430 5e99 01       		.uleb128 0x1
 17431 5e9a 51       		.byte	0x51
 17432 5e9b 02       		.uleb128 0x2
 17433 5e9c 08       		.byte	0x8
 17434 5e9d 27       		.byte	0x27
 17435 5e9e 00       		.byte	0
 17436 5e9f 3D       		.uleb128 0x3d
 17437 5ea0 101E0000 		.4byte	.LVL479
 17438 5ea4 F16A0000 		.4byte	0x6af1
 17439 5ea8 3F       		.uleb128 0x3f
 17440 5ea9 1C1E0000 		.4byte	.LVL480
 17441 5ead E66A0000 		.4byte	0x6ae6
 17442 5eb1 C55E0000 		.4byte	0x5ec5
 17443 5eb5 40       		.uleb128 0x40
 17444 5eb6 01       		.uleb128 0x1
 17445 5eb7 50       		.byte	0x50
 17446 5eb8 05       		.uleb128 0x5
 17447 5eb9 03       		.byte	0x3
 17448 5eba 04070000 		.4byte	.LC53
 17449 5ebe 40       		.uleb128 0x40
 17450 5ebf 01       		.uleb128 0x1
 17451 5ec0 51       		.byte	0x51
 17452 5ec1 02       		.uleb128 0x2
 17453 5ec2 08       		.byte	0x8
 17454 5ec3 2B       		.byte	0x2b
 17455 5ec4 00       		.byte	0
 17456 5ec5 3D       		.uleb128 0x3d
 17457 5ec6 201E0000 		.4byte	.LVL481
 17458 5eca F16A0000 		.4byte	0x6af1
 17459 5ece 3F       		.uleb128 0x3f
 17460 5ecf 2C1E0000 		.4byte	.LVL482
 17461 5ed3 E66A0000 		.4byte	0x6ae6
 17462 5ed7 EA5E0000 		.4byte	0x5eea
 17463 5edb 40       		.uleb128 0x40
 17464 5edc 01       		.uleb128 0x1
 17465 5edd 50       		.byte	0x50
 17466 5ede 05       		.uleb128 0x5
 17467 5edf 03       		.byte	0x3
 17468 5ee0 30070000 		.4byte	.LC54
 17469 5ee4 40       		.uleb128 0x40
 17470 5ee5 01       		.uleb128 0x1
 17471 5ee6 51       		.byte	0x51
 17472 5ee7 01       		.uleb128 0x1
 17473 5ee8 49       		.byte	0x49
 17474 5ee9 00       		.byte	0
ARM GAS  /var/folders/bw/wdbp2_bd0pn7gl5ybd33xbb80000gn/T//ccZ5cvgj.s 			page 313


 17475 5eea 3D       		.uleb128 0x3d
 17476 5eeb 301E0000 		.4byte	.LVL483
 17477 5eef F16A0000 		.4byte	0x6af1
 17478 5ef3 3F       		.uleb128 0x3f
 17479 5ef4 3C1E0000 		.4byte	.LVL484
 17480 5ef8 E66A0000 		.4byte	0x6ae6
 17481 5efc 0F5F0000 		.4byte	0x5f0f
 17482 5f00 40       		.uleb128 0x40
 17483 5f01 01       		.uleb128 0x1
 17484 5f02 50       		.byte	0x50
 17485 5f03 05       		.uleb128 0x5
 17486 5f04 03       		.byte	0x3
 17487 5f05 4C070000 		.4byte	.LC55
 17488 5f09 40       		.uleb128 0x40
 17489 5f0a 01       		.uleb128 0x1
 17490 5f0b 51       		.byte	0x51
 17491 5f0c 01       		.uleb128 0x1
 17492 5f0d 45       		.byte	0x45
 17493 5f0e 00       		.byte	0
 17494 5f0f 3D       		.uleb128 0x3d
 17495 5f10 401E0000 		.4byte	.LVL485
 17496 5f14 F16A0000 		.4byte	0x6af1
 17497 5f18 3F       		.uleb128 0x3f
 17498 5f19 4C1E0000 		.4byte	.LVL486
 17499 5f1d E66A0000 		.4byte	0x6ae6
 17500 5f21 345F0000 		.4byte	0x5f34
 17501 5f25 40       		.uleb128 0x40
 17502 5f26 01       		.uleb128 0x1
 17503 5f27 50       		.byte	0x50
 17504 5f28 05       		.uleb128 0x5
 17505 5f29 03       		.byte	0x3
 17506 5f2a 64070000 		.4byte	.LC56
 17507 5f2e 40       		.uleb128 0x40
 17508 5f2f 01       		.uleb128 0x1
 17509 5f30 51       		.byte	0x51
 17510 5f31 01       		.uleb128 0x1
 17511 5f32 49       		.byte	0x49
 17512 5f33 00       		.byte	0
 17513 5f34 3D       		.uleb128 0x3d
 17514 5f35 501E0000 		.4byte	.LVL487
 17515 5f39 F16A0000 		.4byte	0x6af1
 17516 5f3d 3F       		.uleb128 0x3f
 17517 5f3e 5C1E0000 		.4byte	.LVL488
 17518 5f42 E66A0000 		.4byte	0x6ae6
 17519 5f46 5A5F0000 		.4byte	0x5f5a
 17520 5f4a 40       		.uleb128 0x40
 17521 5f4b 01       		.uleb128 0x1
 17522 5f4c 50       		.byte	0x50
 17523 5f4d 05       		.uleb128 0x5
 17524 5f4e 03       		.byte	0x3
 17525 5f4f 80070000 		.4byte	.LC57
 17526 5f53 40       		.uleb128 0x40
 17527 5f54 01       		.uleb128 0x1
 17528 5f55 51       		.byte	0x51
 17529 5f56 02       		.uleb128 0x2
 17530 5f57 08       		.byte	0x8
 17531 5f58 29       		.byte	0x29
ARM GAS  /var/folders/bw/wdbp2_bd0pn7gl5ybd33xbb80000gn/T//ccZ5cvgj.s 			page 314


 17532 5f59 00       		.byte	0
 17533 5f5a 3D       		.uleb128 0x3d
 17534 5f5b 601E0000 		.4byte	.LVL489
 17535 5f5f F16A0000 		.4byte	0x6af1
 17536 5f63 3F       		.uleb128 0x3f
 17537 5f64 6C1E0000 		.4byte	.LVL490
 17538 5f68 E66A0000 		.4byte	0x6ae6
 17539 5f6c 805F0000 		.4byte	0x5f80
 17540 5f70 40       		.uleb128 0x40
 17541 5f71 01       		.uleb128 0x1
 17542 5f72 50       		.byte	0x50
 17543 5f73 05       		.uleb128 0x5
 17544 5f74 03       		.byte	0x3
 17545 5f75 AC070000 		.4byte	.LC58
 17546 5f79 40       		.uleb128 0x40
 17547 5f7a 01       		.uleb128 0x1
 17548 5f7b 51       		.byte	0x51
 17549 5f7c 02       		.uleb128 0x2
 17550 5f7d 08       		.byte	0x8
 17551 5f7e 29       		.byte	0x29
 17552 5f7f 00       		.byte	0
 17553 5f80 3D       		.uleb128 0x3d
 17554 5f81 701E0000 		.4byte	.LVL491
 17555 5f85 F16A0000 		.4byte	0x6af1
 17556 5f89 3F       		.uleb128 0x3f
 17557 5f8a 7C1E0000 		.4byte	.LVL492
 17558 5f8e E66A0000 		.4byte	0x6ae6
 17559 5f92 A55F0000 		.4byte	0x5fa5
 17560 5f96 40       		.uleb128 0x40
 17561 5f97 01       		.uleb128 0x1
 17562 5f98 50       		.byte	0x50
 17563 5f99 05       		.uleb128 0x5
 17564 5f9a 03       		.byte	0x3
 17565 5f9b D8070000 		.4byte	.LC59
 17566 5f9f 40       		.uleb128 0x40
 17567 5fa0 01       		.uleb128 0x1
 17568 5fa1 51       		.byte	0x51
 17569 5fa2 01       		.uleb128 0x1
 17570 5fa3 48       		.byte	0x48
 17571 5fa4 00       		.byte	0
 17572 5fa5 3D       		.uleb128 0x3d
 17573 5fa6 801E0000 		.4byte	.LVL493
 17574 5faa F16A0000 		.4byte	0x6af1
 17575 5fae 3F       		.uleb128 0x3f
 17576 5faf 8C1E0000 		.4byte	.LVL494
 17577 5fb3 E66A0000 		.4byte	0x6ae6
 17578 5fb7 CB5F0000 		.4byte	0x5fcb
 17579 5fbb 40       		.uleb128 0x40
 17580 5fbc 01       		.uleb128 0x1
 17581 5fbd 50       		.byte	0x50
 17582 5fbe 05       		.uleb128 0x5
 17583 5fbf 03       		.byte	0x3
 17584 5fc0 F4070000 		.4byte	.LC60
 17585 5fc4 40       		.uleb128 0x40
 17586 5fc5 01       		.uleb128 0x1
 17587 5fc6 51       		.byte	0x51
 17588 5fc7 02       		.uleb128 0x2
ARM GAS  /var/folders/bw/wdbp2_bd0pn7gl5ybd33xbb80000gn/T//ccZ5cvgj.s 			page 315


 17589 5fc8 08       		.byte	0x8
 17590 5fc9 29       		.byte	0x29
 17591 5fca 00       		.byte	0
 17592 5fcb 3D       		.uleb128 0x3d
 17593 5fcc 901E0000 		.4byte	.LVL495
 17594 5fd0 F16A0000 		.4byte	0x6af1
 17595 5fd4 3F       		.uleb128 0x3f
 17596 5fd5 9C1E0000 		.4byte	.LVL496
 17597 5fd9 E66A0000 		.4byte	0x6ae6
 17598 5fdd F15F0000 		.4byte	0x5ff1
 17599 5fe1 40       		.uleb128 0x40
 17600 5fe2 01       		.uleb128 0x1
 17601 5fe3 50       		.byte	0x50
 17602 5fe4 05       		.uleb128 0x5
 17603 5fe5 03       		.byte	0x3
 17604 5fe6 20080000 		.4byte	.LC61
 17605 5fea 40       		.uleb128 0x40
 17606 5feb 01       		.uleb128 0x1
 17607 5fec 51       		.byte	0x51
 17608 5fed 02       		.uleb128 0x2
 17609 5fee 08       		.byte	0x8
 17610 5fef 24       		.byte	0x24
 17611 5ff0 00       		.byte	0
 17612 5ff1 3D       		.uleb128 0x3d
 17613 5ff2 A01E0000 		.4byte	.LVL497
 17614 5ff6 F16A0000 		.4byte	0x6af1
 17615 5ffa 3F       		.uleb128 0x3f
 17616 5ffb AC1E0000 		.4byte	.LVL498
 17617 5fff E66A0000 		.4byte	0x6ae6
 17618 6003 16600000 		.4byte	0x6016
 17619 6007 40       		.uleb128 0x40
 17620 6008 01       		.uleb128 0x1
 17621 6009 50       		.byte	0x50
 17622 600a 05       		.uleb128 0x5
 17623 600b 03       		.byte	0x3
 17624 600c 48080000 		.4byte	.LC62
 17625 6010 40       		.uleb128 0x40
 17626 6011 01       		.uleb128 0x1
 17627 6012 51       		.byte	0x51
 17628 6013 01       		.uleb128 0x1
 17629 6014 4D       		.byte	0x4d
 17630 6015 00       		.byte	0
 17631 6016 3D       		.uleb128 0x3d
 17632 6017 B01E0000 		.4byte	.LVL499
 17633 601b F16A0000 		.4byte	0x6af1
 17634 601f 3D       		.uleb128 0x3d
 17635 6020 BC1E0000 		.4byte	.LVL500
 17636 6024 65690000 		.4byte	0x6965
 17637 6028 3F       		.uleb128 0x3f
 17638 6029 C41E0000 		.4byte	.LVL501
 17639 602d E66A0000 		.4byte	0x6ae6
 17640 6031 3C600000 		.4byte	0x603c
 17641 6035 40       		.uleb128 0x40
 17642 6036 01       		.uleb128 0x1
 17643 6037 50       		.byte	0x50
 17644 6038 02       		.uleb128 0x2
 17645 6039 78       		.byte	0x78
ARM GAS  /var/folders/bw/wdbp2_bd0pn7gl5ybd33xbb80000gn/T//ccZ5cvgj.s 			page 316


 17646 603a 00       		.sleb128 0
 17647 603b 00       		.byte	0
 17648 603c 3D       		.uleb128 0x3d
 17649 603d C81E0000 		.4byte	.LVL502
 17650 6041 F16A0000 		.4byte	0x6af1
 17651 6045 3F       		.uleb128 0x3f
 17652 6046 D81E0000 		.4byte	.LVL503
 17653 604a E66A0000 		.4byte	0x6ae6
 17654 604e 61600000 		.4byte	0x6061
 17655 6052 40       		.uleb128 0x40
 17656 6053 01       		.uleb128 0x1
 17657 6054 50       		.byte	0x50
 17658 6055 05       		.uleb128 0x5
 17659 6056 03       		.byte	0x3
 17660 6057 C8000000 		.4byte	.LC12
 17661 605b 40       		.uleb128 0x40
 17662 605c 01       		.uleb128 0x1
 17663 605d 51       		.byte	0x51
 17664 605e 01       		.uleb128 0x1
 17665 605f 33       		.byte	0x33
 17666 6060 00       		.byte	0
 17667 6061 3D       		.uleb128 0x3d
 17668 6062 DC1E0000 		.4byte	.LVL504
 17669 6066 F16A0000 		.4byte	0x6af1
 17670 606a 3F       		.uleb128 0x3f
 17671 606b EA1E0000 		.4byte	.LVL505
 17672 606f 366A0000 		.4byte	0x6a36
 17673 6073 7D600000 		.4byte	0x607d
 17674 6077 40       		.uleb128 0x40
 17675 6078 01       		.uleb128 0x1
 17676 6079 51       		.byte	0x51
 17677 607a 01       		.uleb128 0x1
 17678 607b 31       		.byte	0x31
 17679 607c 00       		.byte	0
 17680 607d 3F       		.uleb128 0x3f
 17681 607e F41E0000 		.4byte	.LVL506
 17682 6082 366A0000 		.4byte	0x6a36
 17683 6086 95600000 		.4byte	0x6095
 17684 608a 40       		.uleb128 0x40
 17685 608b 01       		.uleb128 0x1
 17686 608c 50       		.byte	0x50
 17687 608d 01       		.uleb128 0x1
 17688 608e 31       		.byte	0x31
 17689 608f 40       		.uleb128 0x40
 17690 6090 01       		.uleb128 0x1
 17691 6091 51       		.byte	0x51
 17692 6092 01       		.uleb128 0x1
 17693 6093 31       		.byte	0x31
 17694 6094 00       		.byte	0
 17695 6095 3F       		.uleb128 0x3f
 17696 6096 FE1E0000 		.4byte	.LVL507
 17697 609a 366A0000 		.4byte	0x6a36
 17698 609e AD600000 		.4byte	0x60ad
 17699 60a2 40       		.uleb128 0x40
 17700 60a3 01       		.uleb128 0x1
 17701 60a4 50       		.byte	0x50
 17702 60a5 01       		.uleb128 0x1
ARM GAS  /var/folders/bw/wdbp2_bd0pn7gl5ybd33xbb80000gn/T//ccZ5cvgj.s 			page 317


 17703 60a6 32       		.byte	0x32
 17704 60a7 40       		.uleb128 0x40
 17705 60a8 01       		.uleb128 0x1
 17706 60a9 51       		.byte	0x51
 17707 60aa 01       		.uleb128 0x1
 17708 60ab 31       		.byte	0x31
 17709 60ac 00       		.byte	0
 17710 60ad 3F       		.uleb128 0x3f
 17711 60ae 0C1F0000 		.4byte	.LVL508
 17712 60b2 A7690000 		.4byte	0x69a7
 17713 60b6 D6600000 		.4byte	0x60d6
 17714 60ba 40       		.uleb128 0x40
 17715 60bb 01       		.uleb128 0x1
 17716 60bc 50       		.byte	0x50
 17717 60bd 02       		.uleb128 0x2
 17718 60be 78       		.byte	0x78
 17719 60bf 00       		.sleb128 0
 17720 60c0 40       		.uleb128 0x40
 17721 60c1 01       		.uleb128 0x1
 17722 60c2 51       		.byte	0x51
 17723 60c3 05       		.uleb128 0x5
 17724 60c4 03       		.byte	0x3
 17725 60c5 5C000000 		.4byte	.LC1
 17726 60c9 40       		.uleb128 0x40
 17727 60ca 01       		.uleb128 0x1
 17728 60cb 52       		.byte	0x52
 17729 60cc 02       		.uleb128 0x2
 17730 60cd 74       		.byte	0x74
 17731 60ce 00       		.sleb128 0
 17732 60cf 40       		.uleb128 0x40
 17733 60d0 01       		.uleb128 0x1
 17734 60d1 53       		.byte	0x53
 17735 60d2 02       		.uleb128 0x2
 17736 60d3 75       		.byte	0x75
 17737 60d4 00       		.sleb128 0
 17738 60d5 00       		.byte	0
 17739 60d6 3F       		.uleb128 0x3f
 17740 60d7 161F0000 		.4byte	.LVL509
 17741 60db E66A0000 		.4byte	0x6ae6
 17742 60df F3600000 		.4byte	0x60f3
 17743 60e3 40       		.uleb128 0x40
 17744 60e4 01       		.uleb128 0x1
 17745 60e5 50       		.byte	0x50
 17746 60e6 05       		.uleb128 0x5
 17747 60e7 03       		.byte	0x3
 17748 60e8 18060000 		.4byte	.LC46
 17749 60ec 40       		.uleb128 0x40
 17750 60ed 01       		.uleb128 0x1
 17751 60ee 51       		.byte	0x51
 17752 60ef 02       		.uleb128 0x2
 17753 60f0 08       		.byte	0x8
 17754 60f1 27       		.byte	0x27
 17755 60f2 00       		.byte	0
 17756 60f3 3D       		.uleb128 0x3d
 17757 60f4 1A1F0000 		.4byte	.LVL510
 17758 60f8 F16A0000 		.4byte	0x6af1
 17759 60fc 3F       		.uleb128 0x3f
ARM GAS  /var/folders/bw/wdbp2_bd0pn7gl5ybd33xbb80000gn/T//ccZ5cvgj.s 			page 318


 17760 60fd 281F0000 		.4byte	.LVL511
 17761 6101 70690000 		.4byte	0x6970
 17762 6105 19610000 		.4byte	0x6119
 17763 6109 40       		.uleb128 0x40
 17764 610a 01       		.uleb128 0x1
 17765 610b 50       		.byte	0x50
 17766 610c 05       		.uleb128 0x5
 17767 610d 03       		.byte	0x3
 17768 610e 90010000 		.4byte	.LC19
 17769 6112 40       		.uleb128 0x40
 17770 6113 01       		.uleb128 0x1
 17771 6114 51       		.byte	0x51
 17772 6115 02       		.uleb128 0x2
 17773 6116 08       		.byte	0x8
 17774 6117 2F       		.byte	0x2f
 17775 6118 00       		.byte	0
 17776 6119 3D       		.uleb128 0x3d
 17777 611a 2C1F0000 		.4byte	.LVL512
 17778 611e 7B690000 		.4byte	0x697b
 17779 6122 3D       		.uleb128 0x3d
 17780 6123 381F0000 		.4byte	.LVL513
 17781 6127 FC6A0000 		.4byte	0x6afc
 17782 612b 3D       		.uleb128 0x3d
 17783 612c 461F0000 		.4byte	.LVL514
 17784 6130 076B0000 		.4byte	0x6b07
 17785 6134 3D       		.uleb128 0x3d
 17786 6135 4C1F0000 		.4byte	.LVL515
 17787 6139 126B0000 		.4byte	0x6b12
 17788 613d 3D       		.uleb128 0x3d
 17789 613e 521F0000 		.4byte	.LVL516
 17790 6142 1D6B0000 		.4byte	0x6b1d
 17791 6146 3F       		.uleb128 0x3f
 17792 6147 601F0000 		.4byte	.LVL517
 17793 614b A7690000 		.4byte	0x69a7
 17794 614f 6F610000 		.4byte	0x616f
 17795 6153 40       		.uleb128 0x40
 17796 6154 01       		.uleb128 0x1
 17797 6155 50       		.byte	0x50
 17798 6156 02       		.uleb128 0x2
 17799 6157 78       		.byte	0x78
 17800 6158 00       		.sleb128 0
 17801 6159 40       		.uleb128 0x40
 17802 615a 01       		.uleb128 0x1
 17803 615b 51       		.byte	0x51
 17804 615c 05       		.uleb128 0x5
 17805 615d 03       		.byte	0x3
 17806 615e 00010000 		.4byte	.LC14
 17807 6162 40       		.uleb128 0x40
 17808 6163 01       		.uleb128 0x1
 17809 6164 52       		.byte	0x52
 17810 6165 02       		.uleb128 0x2
 17811 6166 74       		.byte	0x74
 17812 6167 00       		.sleb128 0
 17813 6168 40       		.uleb128 0x40
 17814 6169 01       		.uleb128 0x1
 17815 616a 53       		.byte	0x53
 17816 616b 02       		.uleb128 0x2
ARM GAS  /var/folders/bw/wdbp2_bd0pn7gl5ybd33xbb80000gn/T//ccZ5cvgj.s 			page 319


 17817 616c 75       		.byte	0x75
 17818 616d 00       		.sleb128 0
 17819 616e 00       		.byte	0
 17820 616f 3D       		.uleb128 0x3d
 17821 6170 681F0000 		.4byte	.LVL518
 17822 6174 286B0000 		.4byte	0x6b28
 17823 6178 3F       		.uleb128 0x3f
 17824 6179 721F0000 		.4byte	.LVL519
 17825 617d A7690000 		.4byte	0x69a7
 17826 6181 95610000 		.4byte	0x6195
 17827 6185 40       		.uleb128 0x40
 17828 6186 01       		.uleb128 0x1
 17829 6187 50       		.byte	0x50
 17830 6188 02       		.uleb128 0x2
 17831 6189 78       		.byte	0x78
 17832 618a 00       		.sleb128 0
 17833 618b 40       		.uleb128 0x40
 17834 618c 01       		.uleb128 0x1
 17835 618d 51       		.byte	0x51
 17836 618e 05       		.uleb128 0x5
 17837 618f 03       		.byte	0x3
 17838 6190 A8090000 		.4byte	.LC80
 17839 6194 00       		.byte	0
 17840 6195 3F       		.uleb128 0x3f
 17841 6196 7E1F0000 		.4byte	.LVL520
 17842 619a E66A0000 		.4byte	0x6ae6
 17843 619e B1610000 		.4byte	0x61b1
 17844 61a2 40       		.uleb128 0x40
 17845 61a3 01       		.uleb128 0x1
 17846 61a4 50       		.byte	0x50
 17847 61a5 05       		.uleb128 0x5
 17848 61a6 03       		.byte	0x3
 17849 61a7 E0050000 		.4byte	.LC44
 17850 61ab 40       		.uleb128 0x40
 17851 61ac 01       		.uleb128 0x1
 17852 61ad 51       		.byte	0x51
 17853 61ae 01       		.uleb128 0x1
 17854 61af 49       		.byte	0x49
 17855 61b0 00       		.byte	0
 17856 61b1 3D       		.uleb128 0x3d
 17857 61b2 821F0000 		.4byte	.LVL521
 17858 61b6 F16A0000 		.4byte	0x6af1
 17859 61ba 3F       		.uleb128 0x3f
 17860 61bb A61F0000 		.4byte	.LVL522
 17861 61bf 70690000 		.4byte	0x6970
 17862 61c3 D6610000 		.4byte	0x61d6
 17863 61c7 40       		.uleb128 0x40
 17864 61c8 01       		.uleb128 0x1
 17865 61c9 50       		.byte	0x50
 17866 61ca 05       		.uleb128 0x5
 17867 61cb 03       		.byte	0x3
 17868 61cc 10050000 		.4byte	.LC39
 17869 61d0 40       		.uleb128 0x40
 17870 61d1 01       		.uleb128 0x1
 17871 61d2 51       		.byte	0x51
 17872 61d3 01       		.uleb128 0x1
 17873 61d4 4F       		.byte	0x4f
ARM GAS  /var/folders/bw/wdbp2_bd0pn7gl5ybd33xbb80000gn/T//ccZ5cvgj.s 			page 320


 17874 61d5 00       		.byte	0
 17875 61d6 3D       		.uleb128 0x3d
 17876 61d7 AA1F0000 		.4byte	.LVL523
 17877 61db 7B690000 		.4byte	0x697b
 17878 61df 3F       		.uleb128 0x3f
 17879 61e0 BA1F0000 		.4byte	.LVL524
 17880 61e4 70690000 		.4byte	0x6970
 17881 61e8 FB610000 		.4byte	0x61fb
 17882 61ec 40       		.uleb128 0x40
 17883 61ed 01       		.uleb128 0x1
 17884 61ee 50       		.byte	0x50
 17885 61ef 05       		.uleb128 0x5
 17886 61f0 03       		.byte	0x3
 17887 61f1 9C020000 		.4byte	.LC25
 17888 61f5 40       		.uleb128 0x40
 17889 61f6 01       		.uleb128 0x1
 17890 61f7 51       		.byte	0x51
 17891 61f8 01       		.uleb128 0x1
 17892 61f9 48       		.byte	0x48
 17893 61fa 00       		.byte	0
 17894 61fb 3D       		.uleb128 0x3d
 17895 61fc BE1F0000 		.4byte	.LVL525
 17896 6200 7B690000 		.4byte	0x697b
 17897 6204 3D       		.uleb128 0x3d
 17898 6205 CA1F0000 		.4byte	.LVL526
 17899 6209 336B0000 		.4byte	0x6b33
 17900 620d 3D       		.uleb128 0x3d
 17901 620e CE1F0000 		.4byte	.LVL527
 17902 6212 3E6B0000 		.4byte	0x6b3e
 17903 6216 00       		.byte	0
 17904 6217 3D       		.uleb128 0x3d
 17905 6218 14000000 		.4byte	.LVL1
 17906 621c 496B0000 		.4byte	0x6b49
 17907 6220 3D       		.uleb128 0x3d
 17908 6221 18000000 		.4byte	.LVL2
 17909 6225 546B0000 		.4byte	0x6b54
 17910 6229 3D       		.uleb128 0x3d
 17911 622a 24000000 		.4byte	.LVL4
 17912 622e 5F6B0000 		.4byte	0x6b5f
 17913 6232 3D       		.uleb128 0x3d
 17914 6233 3C000000 		.4byte	.LVL5
 17915 6237 6A6B0000 		.4byte	0x6b6a
 17916 623b 3F       		.uleb128 0x3f
 17917 623c 4C000000 		.4byte	.LVL6
 17918 6240 756B0000 		.4byte	0x6b75
 17919 6244 64620000 		.4byte	0x6264
 17920 6248 40       		.uleb128 0x40
 17921 6249 01       		.uleb128 0x1
 17922 624a 50       		.byte	0x50
 17923 624b 02       		.uleb128 0x2
 17924 624c 08       		.byte	0x8
 17925 624d 7F       		.byte	0x7f
 17926 624e 40       		.uleb128 0x40
 17927 624f 01       		.uleb128 0x1
 17928 6250 51       		.byte	0x51
 17929 6251 03       		.uleb128 0x3
 17930 6252 0A       		.byte	0xa
ARM GAS  /var/folders/bw/wdbp2_bd0pn7gl5ybd33xbb80000gn/T//ccZ5cvgj.s 			page 321


 17931 6253 FEFF     		.2byte	0xfffe
 17932 6255 40       		.uleb128 0x40
 17933 6256 01       		.uleb128 0x1
 17934 6257 52       		.byte	0x52
 17935 6258 05       		.uleb128 0x5
 17936 6259 03       		.byte	0x3
 17937 625a 00000000 		.4byte	.LANCHOR1
 17938 625e 40       		.uleb128 0x40
 17939 625f 01       		.uleb128 0x1
 17940 6260 53       		.byte	0x53
 17941 6261 01       		.uleb128 0x1
 17942 6262 31       		.byte	0x31
 17943 6263 00       		.byte	0
 17944 6264 3D       		.uleb128 0x3d
 17945 6265 66000000 		.4byte	.LVL7
 17946 6269 8E6A0000 		.4byte	0x6a8e
 17947 626d 3F       		.uleb128 0x3f
 17948 626e 94000000 		.4byte	.LVL8
 17949 6272 996A0000 		.4byte	0x6a99
 17950 6276 90620000 		.4byte	0x6290
 17951 627a 40       		.uleb128 0x40
 17952 627b 02       		.uleb128 0x2
 17953 627c 7D       		.byte	0x7d
 17954 627d 00       		.sleb128 0
 17955 627e 02       		.uleb128 0x2
 17956 627f 75       		.byte	0x75
 17957 6280 00       		.sleb128 0
 17958 6281 40       		.uleb128 0x40
 17959 6282 02       		.uleb128 0x2
 17960 6283 7D       		.byte	0x7d
 17961 6284 04       		.sleb128 4
 17962 6285 02       		.uleb128 0x2
 17963 6286 75       		.byte	0x75
 17964 6287 00       		.sleb128 0
 17965 6288 40       		.uleb128 0x40
 17966 6289 02       		.uleb128 0x2
 17967 628a 7D       		.byte	0x7d
 17968 628b 08       		.sleb128 8
 17969 628c 02       		.uleb128 0x2
 17970 628d 74       		.byte	0x74
 17971 628e 00       		.sleb128 0
 17972 628f 00       		.byte	0
 17973 6290 3D       		.uleb128 0x3d
 17974 6291 98000000 		.4byte	.LVL9
 17975 6295 A46A0000 		.4byte	0x6aa4
 17976 6299 3D       		.uleb128 0x3d
 17977 629a 9C000000 		.4byte	.LVL10
 17978 629e 806B0000 		.4byte	0x6b80
 17979 62a2 3F       		.uleb128 0x3f
 17980 62a3 A4000000 		.4byte	.LVL11
 17981 62a7 70690000 		.4byte	0x6970
 17982 62ab BF620000 		.4byte	0x62bf
 17983 62af 40       		.uleb128 0x40
 17984 62b0 01       		.uleb128 0x1
 17985 62b1 50       		.byte	0x50
 17986 62b2 05       		.uleb128 0x5
 17987 62b3 03       		.byte	0x3
ARM GAS  /var/folders/bw/wdbp2_bd0pn7gl5ybd33xbb80000gn/T//ccZ5cvgj.s 			page 322


 17988 62b4 00000000 		.4byte	.LC0
 17989 62b8 40       		.uleb128 0x40
 17990 62b9 01       		.uleb128 0x1
 17991 62ba 51       		.byte	0x51
 17992 62bb 02       		.uleb128 0x2
 17993 62bc 08       		.byte	0x8
 17994 62bd 58       		.byte	0x58
 17995 62be 00       		.byte	0
 17996 62bf 3D       		.uleb128 0x3d
 17997 62c0 A8000000 		.4byte	.LVL12
 17998 62c4 7B690000 		.4byte	0x697b
 17999 62c8 3F       		.uleb128 0x3f
 18000 62c9 D2000000 		.4byte	.LVL16
 18001 62cd 8B6B0000 		.4byte	0x6b8b
 18002 62d1 DC620000 		.4byte	0x62dc
 18003 62d5 40       		.uleb128 0x40
 18004 62d6 01       		.uleb128 0x1
 18005 62d7 50       		.byte	0x50
 18006 62d8 02       		.uleb128 0x2
 18007 62d9 75       		.byte	0x75
 18008 62da 00       		.sleb128 0
 18009 62db 00       		.byte	0
 18010 62dc 3D       		.uleb128 0x3d
 18011 62dd DC000000 		.4byte	.LVL17
 18012 62e1 836A0000 		.4byte	0x6a83
 18013 62e5 3D       		.uleb128 0x3d
 18014 62e6 E2000000 		.4byte	.LVL19
 18015 62ea 786A0000 		.4byte	0x6a78
 18016 62ee 3D       		.uleb128 0x3d
 18017 62ef 0E010000 		.4byte	.LVL21
 18018 62f3 6A6B0000 		.4byte	0x6b6a
 18019 62f7 3F       		.uleb128 0x3f
 18020 62f8 2C010000 		.4byte	.LVL22
 18021 62fc 756B0000 		.4byte	0x6b75
 18022 6300 20630000 		.4byte	0x6320
 18023 6304 40       		.uleb128 0x40
 18024 6305 01       		.uleb128 0x1
 18025 6306 50       		.byte	0x50
 18026 6307 02       		.uleb128 0x2
 18027 6308 08       		.byte	0x8
 18028 6309 7F       		.byte	0x7f
 18029 630a 40       		.uleb128 0x40
 18030 630b 01       		.uleb128 0x1
 18031 630c 51       		.byte	0x51
 18032 630d 03       		.uleb128 0x3
 18033 630e 0A       		.byte	0xa
 18034 630f FEFF     		.2byte	0xfffe
 18035 6311 40       		.uleb128 0x40
 18036 6312 01       		.uleb128 0x1
 18037 6313 52       		.byte	0x52
 18038 6314 05       		.uleb128 0x5
 18039 6315 03       		.byte	0x3
 18040 6316 00000000 		.4byte	.LANCHOR1
 18041 631a 40       		.uleb128 0x40
 18042 631b 01       		.uleb128 0x1
 18043 631c 53       		.byte	0x53
 18044 631d 01       		.uleb128 0x1
ARM GAS  /var/folders/bw/wdbp2_bd0pn7gl5ybd33xbb80000gn/T//ccZ5cvgj.s 			page 323


 18045 631e 31       		.byte	0x31
 18046 631f 00       		.byte	0
 18047 6320 3D       		.uleb128 0x3d
 18048 6321 48010000 		.4byte	.LVL23
 18049 6325 5A690000 		.4byte	0x695a
 18050 6329 3D       		.uleb128 0x3d
 18051 632a 4E010000 		.4byte	.LVL24
 18052 632e 806B0000 		.4byte	0x6b80
 18053 6332 3F       		.uleb128 0x3f
 18054 6333 56010000 		.4byte	.LVL25
 18055 6337 E66A0000 		.4byte	0x6ae6
 18056 633b 4F630000 		.4byte	0x634f
 18057 633f 40       		.uleb128 0x40
 18058 6340 01       		.uleb128 0x1
 18059 6341 50       		.byte	0x50
 18060 6342 05       		.uleb128 0x5
 18061 6343 03       		.byte	0x3
 18062 6344 00000000 		.4byte	.LC0
 18063 6348 40       		.uleb128 0x40
 18064 6349 01       		.uleb128 0x1
 18065 634a 51       		.byte	0x51
 18066 634b 02       		.uleb128 0x2
 18067 634c 08       		.byte	0x8
 18068 634d 58       		.byte	0x58
 18069 634e 00       		.byte	0
 18070 634f 3D       		.uleb128 0x3d
 18071 6350 5A010000 		.4byte	.LVL26
 18072 6354 F16A0000 		.4byte	0x6af1
 18073 6358 3F       		.uleb128 0x3f
 18074 6359 7E010000 		.4byte	.LVL28
 18075 635d 8B6B0000 		.4byte	0x6b8b
 18076 6361 6C630000 		.4byte	0x636c
 18077 6365 40       		.uleb128 0x40
 18078 6366 01       		.uleb128 0x1
 18079 6367 50       		.byte	0x50
 18080 6368 02       		.uleb128 0x2
 18081 6369 74       		.byte	0x74
 18082 636a 00       		.sleb128 0
 18083 636b 00       		.byte	0
 18084 636c 3F       		.uleb128 0x3f
 18085 636d A6010000 		.4byte	.LVL29
 18086 6371 8B6B0000 		.4byte	0x6b8b
 18087 6375 80630000 		.4byte	0x6380
 18088 6379 40       		.uleb128 0x40
 18089 637a 01       		.uleb128 0x1
 18090 637b 50       		.byte	0x50
 18091 637c 02       		.uleb128 0x2
 18092 637d 74       		.byte	0x74
 18093 637e 00       		.sleb128 0
 18094 637f 00       		.byte	0
 18095 6380 3F       		.uleb128 0x3f
 18096 6381 24020000 		.4byte	.LVL36
 18097 6385 966B0000 		.4byte	0x6b96
 18098 6389 94630000 		.4byte	0x6394
 18099 638d 40       		.uleb128 0x40
 18100 638e 01       		.uleb128 0x1
 18101 638f 50       		.byte	0x50
ARM GAS  /var/folders/bw/wdbp2_bd0pn7gl5ybd33xbb80000gn/T//ccZ5cvgj.s 			page 324


 18102 6390 02       		.uleb128 0x2
 18103 6391 75       		.byte	0x75
 18104 6392 00       		.sleb128 0
 18105 6393 00       		.byte	0
 18106 6394 3D       		.uleb128 0x3d
 18107 6395 2E020000 		.4byte	.LVL37
 18108 6399 836A0000 		.4byte	0x6a83
 18109 639d 3D       		.uleb128 0x3d
 18110 639e 34020000 		.4byte	.LVL39
 18111 63a2 786A0000 		.4byte	0x6a78
 18112 63a6 3F       		.uleb128 0x3f
 18113 63a7 62020000 		.4byte	.LVL41
 18114 63ab 966B0000 		.4byte	0x6b96
 18115 63af BA630000 		.4byte	0x63ba
 18116 63b3 40       		.uleb128 0x40
 18117 63b4 01       		.uleb128 0x1
 18118 63b5 50       		.byte	0x50
 18119 63b6 02       		.uleb128 0x2
 18120 63b7 74       		.byte	0x74
 18121 63b8 00       		.sleb128 0
 18122 63b9 00       		.byte	0
 18123 63ba 3F       		.uleb128 0x3f
 18124 63bb 8A020000 		.4byte	.LVL42
 18125 63bf 966B0000 		.4byte	0x6b96
 18126 63c3 CE630000 		.4byte	0x63ce
 18127 63c7 40       		.uleb128 0x40
 18128 63c8 01       		.uleb128 0x1
 18129 63c9 50       		.byte	0x50
 18130 63ca 02       		.uleb128 0x2
 18131 63cb 74       		.byte	0x74
 18132 63cc 00       		.sleb128 0
 18133 63cd 00       		.byte	0
 18134 63ce 3F       		.uleb128 0x3f
 18135 63cf B4020000 		.4byte	.LVL45
 18136 63d3 156A0000 		.4byte	0x6a15
 18137 63d7 E2630000 		.4byte	0x63e2
 18138 63db 40       		.uleb128 0x40
 18139 63dc 01       		.uleb128 0x1
 18140 63dd 50       		.byte	0x50
 18141 63de 02       		.uleb128 0x2
 18142 63df 74       		.byte	0x74
 18143 63e0 00       		.sleb128 0
 18144 63e1 00       		.byte	0
 18145 63e2 3D       		.uleb128 0x3d
 18146 63e3 BC020000 		.4byte	.LVL46
 18147 63e7 206A0000 		.4byte	0x6a20
 18148 63eb 3F       		.uleb128 0x3f
 18149 63ec 84030000 		.4byte	.LVL49
 18150 63f0 BA6A0000 		.4byte	0x6aba
 18151 63f4 07640000 		.4byte	0x6407
 18152 63f8 40       		.uleb128 0x40
 18153 63f9 01       		.uleb128 0x1
 18154 63fa 50       		.byte	0x50
 18155 63fb 03       		.uleb128 0x3
 18156 63fc 0A       		.byte	0xa
 18157 63fd 142B     		.2byte	0x2b14
 18158 63ff 40       		.uleb128 0x40
ARM GAS  /var/folders/bw/wdbp2_bd0pn7gl5ybd33xbb80000gn/T//ccZ5cvgj.s 			page 325


 18159 6400 01       		.uleb128 0x1
 18160 6401 51       		.byte	0x51
 18161 6402 03       		.uleb128 0x3
 18162 6403 0A       		.byte	0xa
 18163 6404 501F     		.2byte	0x1f50
 18164 6406 00       		.byte	0
 18165 6407 3F       		.uleb128 0x3f
 18166 6408 9E030000 		.4byte	.LVL52
 18167 640c 156A0000 		.4byte	0x6a15
 18168 6410 1B640000 		.4byte	0x641b
 18169 6414 40       		.uleb128 0x40
 18170 6415 01       		.uleb128 0x1
 18171 6416 50       		.byte	0x50
 18172 6417 02       		.uleb128 0x2
 18173 6418 74       		.byte	0x74
 18174 6419 00       		.sleb128 0
 18175 641a 00       		.byte	0
 18176 641b 3D       		.uleb128 0x3d
 18177 641c A6030000 		.4byte	.LVL53
 18178 6420 206A0000 		.4byte	0x6a20
 18179 6424 3F       		.uleb128 0x3f
 18180 6425 26040000 		.4byte	.LVL56
 18181 6429 BA6A0000 		.4byte	0x6aba
 18182 642d 40640000 		.4byte	0x6440
 18183 6431 40       		.uleb128 0x40
 18184 6432 01       		.uleb128 0x1
 18185 6433 50       		.byte	0x50
 18186 6434 03       		.uleb128 0x3
 18187 6435 0A       		.byte	0xa
 18188 6436 142B     		.2byte	0x2b14
 18189 6438 40       		.uleb128 0x40
 18190 6439 01       		.uleb128 0x1
 18191 643a 51       		.byte	0x51
 18192 643b 03       		.uleb128 0x3
 18193 643c 0A       		.byte	0xa
 18194 643d 501F     		.2byte	0x1f50
 18195 643f 00       		.byte	0
 18196 6440 3D       		.uleb128 0x3d
 18197 6441 CC040000 		.4byte	.LVL59
 18198 6445 366A0000 		.4byte	0x6a36
 18199 6449 3F       		.uleb128 0x3f
 18200 644a DA040000 		.4byte	.LVL60
 18201 644e 366A0000 		.4byte	0x6a36
 18202 6452 61640000 		.4byte	0x6461
 18203 6456 40       		.uleb128 0x40
 18204 6457 01       		.uleb128 0x1
 18205 6458 50       		.byte	0x50
 18206 6459 01       		.uleb128 0x1
 18207 645a 31       		.byte	0x31
 18208 645b 40       		.uleb128 0x40
 18209 645c 01       		.uleb128 0x1
 18210 645d 51       		.byte	0x51
 18211 645e 01       		.uleb128 0x1
 18212 645f 31       		.byte	0x31
 18213 6460 00       		.byte	0
 18214 6461 3F       		.uleb128 0x3f
 18215 6462 E4040000 		.4byte	.LVL61
ARM GAS  /var/folders/bw/wdbp2_bd0pn7gl5ybd33xbb80000gn/T//ccZ5cvgj.s 			page 326


 18216 6466 366A0000 		.4byte	0x6a36
 18217 646a 79640000 		.4byte	0x6479
 18218 646e 40       		.uleb128 0x40
 18219 646f 01       		.uleb128 0x1
 18220 6470 50       		.byte	0x50
 18221 6471 01       		.uleb128 0x1
 18222 6472 32       		.byte	0x32
 18223 6473 40       		.uleb128 0x40
 18224 6474 01       		.uleb128 0x1
 18225 6475 51       		.byte	0x51
 18226 6476 01       		.uleb128 0x1
 18227 6477 31       		.byte	0x31
 18228 6478 00       		.byte	0
 18229 6479 3F       		.uleb128 0x3f
 18230 647a 2C050000 		.4byte	.LVL62
 18231 647e 8B6B0000 		.4byte	0x6b8b
 18232 6482 8D640000 		.4byte	0x648d
 18233 6486 40       		.uleb128 0x40
 18234 6487 01       		.uleb128 0x1
 18235 6488 50       		.byte	0x50
 18236 6489 02       		.uleb128 0x2
 18237 648a 76       		.byte	0x76
 18238 648b 00       		.sleb128 0
 18239 648c 00       		.byte	0
 18240 648d 3F       		.uleb128 0x3f
 18241 648e 5C050000 		.4byte	.LVL63
 18242 6492 70690000 		.4byte	0x6970
 18243 6496 A1640000 		.4byte	0x64a1
 18244 649a 40       		.uleb128 0x40
 18245 649b 01       		.uleb128 0x1
 18246 649c 50       		.byte	0x50
 18247 649d 02       		.uleb128 0x2
 18248 649e 78       		.byte	0x78
 18249 649f 00       		.sleb128 0
 18250 64a0 00       		.byte	0
 18251 64a1 3D       		.uleb128 0x3d
 18252 64a2 60050000 		.4byte	.LVL64
 18253 64a6 7B690000 		.4byte	0x697b
 18254 64aa 3F       		.uleb128 0x3f
 18255 64ab 74050000 		.4byte	.LVL65
 18256 64af 966B0000 		.4byte	0x6b96
 18257 64b3 BE640000 		.4byte	0x64be
 18258 64b7 40       		.uleb128 0x40
 18259 64b8 01       		.uleb128 0x1
 18260 64b9 50       		.byte	0x50
 18261 64ba 02       		.uleb128 0x2
 18262 64bb 76       		.byte	0x76
 18263 64bc 00       		.sleb128 0
 18264 64bd 00       		.byte	0
 18265 64be 3F       		.uleb128 0x3f
 18266 64bf 7E050000 		.4byte	.LVL66
 18267 64c3 966B0000 		.4byte	0x6b96
 18268 64c7 D2640000 		.4byte	0x64d2
 18269 64cb 40       		.uleb128 0x40
 18270 64cc 01       		.uleb128 0x1
 18271 64cd 50       		.byte	0x50
 18272 64ce 02       		.uleb128 0x2
ARM GAS  /var/folders/bw/wdbp2_bd0pn7gl5ybd33xbb80000gn/T//ccZ5cvgj.s 			page 327


 18273 64cf 76       		.byte	0x76
 18274 64d0 00       		.sleb128 0
 18275 64d1 00       		.byte	0
 18276 64d2 3D       		.uleb128 0x3d
 18277 64d3 B8050000 		.4byte	.LVL67
 18278 64d7 C8690000 		.4byte	0x69c8
 18279 64db 3D       		.uleb128 0x3d
 18280 64dc D2050000 		.4byte	.LVL68
 18281 64e0 D3690000 		.4byte	0x69d3
 18282 64e4 3F       		.uleb128 0x3f
 18283 64e5 F8050000 		.4byte	.LVL69
 18284 64e9 8B6B0000 		.4byte	0x6b8b
 18285 64ed F8640000 		.4byte	0x64f8
 18286 64f1 40       		.uleb128 0x40
 18287 64f2 01       		.uleb128 0x1
 18288 64f3 50       		.byte	0x50
 18289 64f4 02       		.uleb128 0x2
 18290 64f5 74       		.byte	0x74
 18291 64f6 00       		.sleb128 0
 18292 64f7 00       		.byte	0
 18293 64f8 3F       		.uleb128 0x3f
 18294 64f9 04060000 		.4byte	.LVL70
 18295 64fd 8B6B0000 		.4byte	0x6b8b
 18296 6501 0C650000 		.4byte	0x650c
 18297 6505 40       		.uleb128 0x40
 18298 6506 01       		.uleb128 0x1
 18299 6507 50       		.byte	0x50
 18300 6508 02       		.uleb128 0x2
 18301 6509 74       		.byte	0x74
 18302 650a 00       		.sleb128 0
 18303 650b 00       		.byte	0
 18304 650c 3F       		.uleb128 0x3f
 18305 650d 20060000 		.4byte	.LVL71
 18306 6511 8B6B0000 		.4byte	0x6b8b
 18307 6515 20650000 		.4byte	0x6520
 18308 6519 40       		.uleb128 0x40
 18309 651a 01       		.uleb128 0x1
 18310 651b 50       		.byte	0x50
 18311 651c 02       		.uleb128 0x2
 18312 651d 74       		.byte	0x74
 18313 651e 00       		.sleb128 0
 18314 651f 00       		.byte	0
 18315 6520 3F       		.uleb128 0x3f
 18316 6521 2C060000 		.4byte	.LVL72
 18317 6525 8B6B0000 		.4byte	0x6b8b
 18318 6529 34650000 		.4byte	0x6534
 18319 652d 40       		.uleb128 0x40
 18320 652e 01       		.uleb128 0x1
 18321 652f 50       		.byte	0x50
 18322 6530 02       		.uleb128 0x2
 18323 6531 74       		.byte	0x74
 18324 6532 00       		.sleb128 0
 18325 6533 00       		.byte	0
 18326 6534 3D       		.uleb128 0x3d
 18327 6535 4A060000 		.4byte	.LVL73
 18328 6539 DE690000 		.4byte	0x69de
 18329 653d 3D       		.uleb128 0x3d
ARM GAS  /var/folders/bw/wdbp2_bd0pn7gl5ybd33xbb80000gn/T//ccZ5cvgj.s 			page 328


 18330 653e 50060000 		.4byte	.LVL74
 18331 6542 E9690000 		.4byte	0x69e9
 18332 6546 3F       		.uleb128 0x3f
 18333 6547 58060000 		.4byte	.LVL75
 18334 654b 966B0000 		.4byte	0x6b96
 18335 654f 5A650000 		.4byte	0x655a
 18336 6553 40       		.uleb128 0x40
 18337 6554 01       		.uleb128 0x1
 18338 6555 50       		.byte	0x50
 18339 6556 02       		.uleb128 0x2
 18340 6557 74       		.byte	0x74
 18341 6558 00       		.sleb128 0
 18342 6559 00       		.byte	0
 18343 655a 3F       		.uleb128 0x3f
 18344 655b 64060000 		.4byte	.LVL76
 18345 655f 966B0000 		.4byte	0x6b96
 18346 6563 6E650000 		.4byte	0x656e
 18347 6567 40       		.uleb128 0x40
 18348 6568 01       		.uleb128 0x1
 18349 6569 50       		.byte	0x50
 18350 656a 02       		.uleb128 0x2
 18351 656b 74       		.byte	0x74
 18352 656c 00       		.sleb128 0
 18353 656d 00       		.byte	0
 18354 656e 3F       		.uleb128 0x3f
 18355 656f 80060000 		.4byte	.LVL77
 18356 6573 966B0000 		.4byte	0x6b96
 18357 6577 82650000 		.4byte	0x6582
 18358 657b 40       		.uleb128 0x40
 18359 657c 01       		.uleb128 0x1
 18360 657d 50       		.byte	0x50
 18361 657e 02       		.uleb128 0x2
 18362 657f 74       		.byte	0x74
 18363 6580 00       		.sleb128 0
 18364 6581 00       		.byte	0
 18365 6582 3F       		.uleb128 0x3f
 18366 6583 8C060000 		.4byte	.LVL78
 18367 6587 966B0000 		.4byte	0x6b96
 18368 658b 96650000 		.4byte	0x6596
 18369 658f 40       		.uleb128 0x40
 18370 6590 01       		.uleb128 0x1
 18371 6591 50       		.byte	0x50
 18372 6592 02       		.uleb128 0x2
 18373 6593 74       		.byte	0x74
 18374 6594 00       		.sleb128 0
 18375 6595 00       		.byte	0
 18376 6596 3D       		.uleb128 0x3d
 18377 6597 A4060000 		.4byte	.LVL79
 18378 659b F4690000 		.4byte	0x69f4
 18379 659f 3D       		.uleb128 0x3d
 18380 65a0 DC060000 		.4byte	.LVL80
 18381 65a4 FF690000 		.4byte	0x69ff
 18382 65a8 3F       		.uleb128 0x3f
 18383 65a9 10070000 		.4byte	.LVL81
 18384 65ad 8B6B0000 		.4byte	0x6b8b
 18385 65b1 BC650000 		.4byte	0x65bc
 18386 65b5 40       		.uleb128 0x40
ARM GAS  /var/folders/bw/wdbp2_bd0pn7gl5ybd33xbb80000gn/T//ccZ5cvgj.s 			page 329


 18387 65b6 01       		.uleb128 0x1
 18388 65b7 50       		.byte	0x50
 18389 65b8 02       		.uleb128 0x2
 18390 65b9 74       		.byte	0x74
 18391 65ba 00       		.sleb128 0
 18392 65bb 00       		.byte	0
 18393 65bc 3F       		.uleb128 0x3f
 18394 65bd 1C070000 		.4byte	.LVL82
 18395 65c1 8B6B0000 		.4byte	0x6b8b
 18396 65c5 D0650000 		.4byte	0x65d0
 18397 65c9 40       		.uleb128 0x40
 18398 65ca 01       		.uleb128 0x1
 18399 65cb 50       		.byte	0x50
 18400 65cc 02       		.uleb128 0x2
 18401 65cd 74       		.byte	0x74
 18402 65ce 00       		.sleb128 0
 18403 65cf 00       		.byte	0
 18404 65d0 3D       		.uleb128 0x3d
 18405 65d1 38070000 		.4byte	.LVL83
 18406 65d5 2B6A0000 		.4byte	0x6a2b
 18407 65d9 3F       		.uleb128 0x3f
 18408 65da 40070000 		.4byte	.LVL84
 18409 65de 966B0000 		.4byte	0x6b96
 18410 65e2 ED650000 		.4byte	0x65ed
 18411 65e6 40       		.uleb128 0x40
 18412 65e7 01       		.uleb128 0x1
 18413 65e8 50       		.byte	0x50
 18414 65e9 02       		.uleb128 0x2
 18415 65ea 74       		.byte	0x74
 18416 65eb 00       		.sleb128 0
 18417 65ec 00       		.byte	0
 18418 65ed 3F       		.uleb128 0x3f
 18419 65ee 4C070000 		.4byte	.LVL85
 18420 65f2 966B0000 		.4byte	0x6b96
 18421 65f6 01660000 		.4byte	0x6601
 18422 65fa 40       		.uleb128 0x40
 18423 65fb 01       		.uleb128 0x1
 18424 65fc 50       		.byte	0x50
 18425 65fd 02       		.uleb128 0x2
 18426 65fe 74       		.byte	0x74
 18427 65ff 00       		.sleb128 0
 18428 6600 00       		.byte	0
 18429 6601 3F       		.uleb128 0x3f
 18430 6602 64070000 		.4byte	.LVL86
 18431 6606 966B0000 		.4byte	0x6b96
 18432 660a 15660000 		.4byte	0x6615
 18433 660e 40       		.uleb128 0x40
 18434 660f 01       		.uleb128 0x1
 18435 6610 50       		.byte	0x50
 18436 6611 02       		.uleb128 0x2
 18437 6612 76       		.byte	0x76
 18438 6613 00       		.sleb128 0
 18439 6614 00       		.byte	0
 18440 6615 3D       		.uleb128 0x3d
 18441 6616 78070000 		.4byte	.LVL87
 18442 661a 5F6B0000 		.4byte	0x6b5f
 18443 661e 3D       		.uleb128 0x3d
ARM GAS  /var/folders/bw/wdbp2_bd0pn7gl5ybd33xbb80000gn/T//ccZ5cvgj.s 			page 330


 18444 661f 7C070000 		.4byte	.LVL88
 18445 6623 86690000 		.4byte	0x6986
 18446 6627 3F       		.uleb128 0x3f
 18447 6628 84070000 		.4byte	.LVL89
 18448 662c 91690000 		.4byte	0x6991
 18449 6630 40660000 		.4byte	0x6640
 18450 6634 40       		.uleb128 0x40
 18451 6635 01       		.uleb128 0x1
 18452 6636 50       		.byte	0x50
 18453 6637 02       		.uleb128 0x2
 18454 6638 09       		.byte	0x9
 18455 6639 C0       		.byte	0xc0
 18456 663a 40       		.uleb128 0x40
 18457 663b 01       		.uleb128 0x1
 18458 663c 51       		.byte	0x51
 18459 663d 01       		.uleb128 0x1
 18460 663e 30       		.byte	0x30
 18461 663f 00       		.byte	0
 18462 6640 3D       		.uleb128 0x3d
 18463 6641 B0070000 		.4byte	.LVL90
 18464 6645 91690000 		.4byte	0x6991
 18465 6649 3D       		.uleb128 0x3d
 18466 664a EE070000 		.4byte	.LVL91
 18467 664e 91690000 		.4byte	0x6991
 18468 6652 3D       		.uleb128 0x3d
 18469 6653 3E080000 		.4byte	.LVL92
 18470 6657 A16B0000 		.4byte	0x6ba1
 18471 665b 3F       		.uleb128 0x3f
 18472 665c 7A080000 		.4byte	.LVL93
 18473 6660 8B6B0000 		.4byte	0x6b8b
 18474 6664 6F660000 		.4byte	0x666f
 18475 6668 40       		.uleb128 0x40
 18476 6669 01       		.uleb128 0x1
 18477 666a 50       		.byte	0x50
 18478 666b 02       		.uleb128 0x2
 18479 666c 74       		.byte	0x74
 18480 666d 00       		.sleb128 0
 18481 666e 00       		.byte	0
 18482 666f 3F       		.uleb128 0x3f
 18483 6670 86080000 		.4byte	.LVL94
 18484 6674 8B6B0000 		.4byte	0x6b8b
 18485 6678 83660000 		.4byte	0x6683
 18486 667c 40       		.uleb128 0x40
 18487 667d 01       		.uleb128 0x1
 18488 667e 50       		.byte	0x50
 18489 667f 02       		.uleb128 0x2
 18490 6680 74       		.byte	0x74
 18491 6681 00       		.sleb128 0
 18492 6682 00       		.byte	0
 18493 6683 3F       		.uleb128 0x3f
 18494 6684 A2080000 		.4byte	.LVL95
 18495 6688 8B6B0000 		.4byte	0x6b8b
 18496 668c 97660000 		.4byte	0x6697
 18497 6690 40       		.uleb128 0x40
 18498 6691 01       		.uleb128 0x1
 18499 6692 50       		.byte	0x50
 18500 6693 02       		.uleb128 0x2
ARM GAS  /var/folders/bw/wdbp2_bd0pn7gl5ybd33xbb80000gn/T//ccZ5cvgj.s 			page 331


 18501 6694 74       		.byte	0x74
 18502 6695 00       		.sleb128 0
 18503 6696 00       		.byte	0
 18504 6697 3F       		.uleb128 0x3f
 18505 6698 AE080000 		.4byte	.LVL96
 18506 669c 8B6B0000 		.4byte	0x6b8b
 18507 66a0 AB660000 		.4byte	0x66ab
 18508 66a4 40       		.uleb128 0x40
 18509 66a5 01       		.uleb128 0x1
 18510 66a6 50       		.byte	0x50
 18511 66a7 02       		.uleb128 0x2
 18512 66a8 74       		.byte	0x74
 18513 66a9 00       		.sleb128 0
 18514 66aa 00       		.byte	0
 18515 66ab 3D       		.uleb128 0x3d
 18516 66ac CC080000 		.4byte	.LVL97
 18517 66b0 156A0000 		.4byte	0x6a15
 18518 66b4 3D       		.uleb128 0x3d
 18519 66b5 D2080000 		.4byte	.LVL98
 18520 66b9 206A0000 		.4byte	0x6a20
 18521 66bd 3F       		.uleb128 0x3f
 18522 66be F6080000 		.4byte	.LVL99
 18523 66c2 966B0000 		.4byte	0x6b96
 18524 66c6 D1660000 		.4byte	0x66d1
 18525 66ca 40       		.uleb128 0x40
 18526 66cb 01       		.uleb128 0x1
 18527 66cc 50       		.byte	0x50
 18528 66cd 02       		.uleb128 0x2
 18529 66ce 74       		.byte	0x74
 18530 66cf 00       		.sleb128 0
 18531 66d0 00       		.byte	0
 18532 66d1 3F       		.uleb128 0x3f
 18533 66d2 02090000 		.4byte	.LVL100
 18534 66d6 966B0000 		.4byte	0x6b96
 18535 66da E5660000 		.4byte	0x66e5
 18536 66de 40       		.uleb128 0x40
 18537 66df 01       		.uleb128 0x1
 18538 66e0 50       		.byte	0x50
 18539 66e1 02       		.uleb128 0x2
 18540 66e2 74       		.byte	0x74
 18541 66e3 00       		.sleb128 0
 18542 66e4 00       		.byte	0
 18543 66e5 3F       		.uleb128 0x3f
 18544 66e6 1E090000 		.4byte	.LVL101
 18545 66ea 966B0000 		.4byte	0x6b96
 18546 66ee F9660000 		.4byte	0x66f9
 18547 66f2 40       		.uleb128 0x40
 18548 66f3 01       		.uleb128 0x1
 18549 66f4 50       		.byte	0x50
 18550 66f5 02       		.uleb128 0x2
 18551 66f6 74       		.byte	0x74
 18552 66f7 00       		.sleb128 0
 18553 66f8 00       		.byte	0
 18554 66f9 3F       		.uleb128 0x3f
 18555 66fa 2A090000 		.4byte	.LVL102
 18556 66fe 966B0000 		.4byte	0x6b96
 18557 6702 0D670000 		.4byte	0x670d
ARM GAS  /var/folders/bw/wdbp2_bd0pn7gl5ybd33xbb80000gn/T//ccZ5cvgj.s 			page 332


 18558 6706 40       		.uleb128 0x40
 18559 6707 01       		.uleb128 0x1
 18560 6708 50       		.byte	0x50
 18561 6709 02       		.uleb128 0x2
 18562 670a 74       		.byte	0x74
 18563 670b 00       		.sleb128 0
 18564 670c 00       		.byte	0
 18565 670d 3D       		.uleb128 0x3d
 18566 670e 3C090000 		.4byte	.LVL103
 18567 6712 5A690000 		.4byte	0x695a
 18568 6716 3F       		.uleb128 0x3f
 18569 6717 DC090000 		.4byte	.LVL112
 18570 671b 0A6A0000 		.4byte	0x6a0a
 18571 671f 29670000 		.4byte	0x6729
 18572 6723 40       		.uleb128 0x40
 18573 6724 01       		.uleb128 0x1
 18574 6725 50       		.byte	0x50
 18575 6726 01       		.uleb128 0x1
 18576 6727 30       		.byte	0x30
 18577 6728 00       		.byte	0
 18578 6729 3F       		.uleb128 0x3f
 18579 672a F8090000 		.4byte	.LVL113
 18580 672e 0A6A0000 		.4byte	0x6a0a
 18581 6732 3C670000 		.4byte	0x673c
 18582 6736 40       		.uleb128 0x40
 18583 6737 01       		.uleb128 0x1
 18584 6738 50       		.byte	0x50
 18585 6739 01       		.uleb128 0x1
 18586 673a 31       		.byte	0x31
 18587 673b 00       		.byte	0
 18588 673c 3F       		.uleb128 0x3f
 18589 673d 140A0000 		.4byte	.LVL114
 18590 6741 0A6A0000 		.4byte	0x6a0a
 18591 6745 4F670000 		.4byte	0x674f
 18592 6749 40       		.uleb128 0x40
 18593 674a 01       		.uleb128 0x1
 18594 674b 50       		.byte	0x50
 18595 674c 01       		.uleb128 0x1
 18596 674d 32       		.byte	0x32
 18597 674e 00       		.byte	0
 18598 674f 3F       		.uleb128 0x3f
 18599 6750 240A0000 		.4byte	.LVL115
 18600 6754 8B6B0000 		.4byte	0x6b8b
 18601 6758 66670000 		.4byte	0x6766
 18602 675c 40       		.uleb128 0x40
 18603 675d 01       		.uleb128 0x1
 18604 675e 50       		.byte	0x50
 18605 675f 05       		.uleb128 0x5
 18606 6760 03       		.byte	0x3
 18607 6761 00000000 		.4byte	.LANCHOR25
 18608 6765 00       		.byte	0
 18609 6766 3F       		.uleb128 0x3f
 18610 6767 300A0000 		.4byte	.LVL116
 18611 676b 8B6B0000 		.4byte	0x6b8b
 18612 676f 7A670000 		.4byte	0x677a
 18613 6773 40       		.uleb128 0x40
 18614 6774 01       		.uleb128 0x1
ARM GAS  /var/folders/bw/wdbp2_bd0pn7gl5ybd33xbb80000gn/T//ccZ5cvgj.s 			page 333


 18615 6775 50       		.byte	0x50
 18616 6776 02       		.uleb128 0x2
 18617 6777 74       		.byte	0x74
 18618 6778 00       		.sleb128 0
 18619 6779 00       		.byte	0
 18620 677a 3F       		.uleb128 0x3f
 18621 677b 3C0A0000 		.4byte	.LVL117
 18622 677f 8B6B0000 		.4byte	0x6b8b
 18623 6783 8E670000 		.4byte	0x678e
 18624 6787 40       		.uleb128 0x40
 18625 6788 01       		.uleb128 0x1
 18626 6789 50       		.byte	0x50
 18627 678a 02       		.uleb128 0x2
 18628 678b 74       		.byte	0x74
 18629 678c 00       		.sleb128 0
 18630 678d 00       		.byte	0
 18631 678e 3D       		.uleb128 0x3d
 18632 678f 440A0000 		.4byte	.LVL118
 18633 6793 86690000 		.4byte	0x6986
 18634 6797 3D       		.uleb128 0x3d
 18635 6798 540A0000 		.4byte	.LVL119
 18636 679c BD690000 		.4byte	0x69bd
 18637 67a0 3D       		.uleb128 0x3d
 18638 67a1 580A0000 		.4byte	.LVL120
 18639 67a5 9C690000 		.4byte	0x699c
 18640 67a9 3D       		.uleb128 0x3d
 18641 67aa 780A0000 		.4byte	.LVL121
 18642 67ae 5A690000 		.4byte	0x695a
 18643 67b2 3D       		.uleb128 0x3d
 18644 67b3 980A0000 		.4byte	.LVL122
 18645 67b7 86690000 		.4byte	0x6986
 18646 67bb 3D       		.uleb128 0x3d
 18647 67bc AA0A0000 		.4byte	.LVL123
 18648 67c0 8B6B0000 		.4byte	0x6b8b
 18649 67c4 3D       		.uleb128 0x3d
 18650 67c5 D00A0000 		.4byte	.LVL124
 18651 67c9 8B6B0000 		.4byte	0x6b8b
 18652 67cd 3D       		.uleb128 0x3d
 18653 67ce F60A0000 		.4byte	.LVL125
 18654 67d2 8B6B0000 		.4byte	0x6b8b
 18655 67d6 3F       		.uleb128 0x3f
 18656 67d7 1A0B0000 		.4byte	.LVL126
 18657 67db BD690000 		.4byte	0x69bd
 18658 67df EA670000 		.4byte	0x67ea
 18659 67e3 40       		.uleb128 0x40
 18660 67e4 01       		.uleb128 0x1
 18661 67e5 50       		.byte	0x50
 18662 67e6 02       		.uleb128 0x2
 18663 67e7 09       		.byte	0x9
 18664 67e8 B0       		.byte	0xb0
 18665 67e9 00       		.byte	0
 18666 67ea 3F       		.uleb128 0x3f
 18667 67eb 3E0B0000 		.4byte	.LVL127
 18668 67ef BD690000 		.4byte	0x69bd
 18669 67f3 FE670000 		.4byte	0x67fe
 18670 67f7 40       		.uleb128 0x40
 18671 67f8 01       		.uleb128 0x1
ARM GAS  /var/folders/bw/wdbp2_bd0pn7gl5ybd33xbb80000gn/T//ccZ5cvgj.s 			page 334


 18672 67f9 50       		.byte	0x50
 18673 67fa 02       		.uleb128 0x2
 18674 67fb 09       		.byte	0x9
 18675 67fc B0       		.byte	0xb0
 18676 67fd 00       		.byte	0
 18677 67fe 3F       		.uleb128 0x3f
 18678 67ff 620B0000 		.4byte	.LVL128
 18679 6803 BD690000 		.4byte	0x69bd
 18680 6807 12680000 		.4byte	0x6812
 18681 680b 40       		.uleb128 0x40
 18682 680c 01       		.uleb128 0x1
 18683 680d 50       		.byte	0x50
 18684 680e 02       		.uleb128 0x2
 18685 680f 09       		.byte	0x9
 18686 6810 B0       		.byte	0xb0
 18687 6811 00       		.byte	0
 18688 6812 3F       		.uleb128 0x3f
 18689 6813 7A0B0000 		.4byte	.LVL129
 18690 6817 BD690000 		.4byte	0x69bd
 18691 681b 31680000 		.4byte	0x6831
 18692 681f 40       		.uleb128 0x40
 18693 6820 01       		.uleb128 0x1
 18694 6821 50       		.byte	0x50
 18695 6822 02       		.uleb128 0x2
 18696 6823 09       		.byte	0x9
 18697 6824 B0       		.byte	0xb0
 18698 6825 40       		.uleb128 0x40
 18699 6826 01       		.uleb128 0x1
 18700 6827 51       		.byte	0x51
 18701 6828 02       		.uleb128 0x2
 18702 6829 09       		.byte	0x9
 18703 682a 91       		.byte	0x91
 18704 682b 40       		.uleb128 0x40
 18705 682c 01       		.uleb128 0x1
 18706 682d 52       		.byte	0x52
 18707 682e 01       		.uleb128 0x1
 18708 682f 31       		.byte	0x31
 18709 6830 00       		.byte	0
 18710 6831 3D       		.uleb128 0x3d
 18711 6832 7E0B0000 		.4byte	.LVL130
 18712 6836 9C690000 		.4byte	0x699c
 18713 683a 3F       		.uleb128 0x3f
 18714 683b F2170000 		.4byte	.LVL350
 18715 683f E66A0000 		.4byte	0x6ae6
 18716 6843 4E680000 		.4byte	0x684e
 18717 6847 40       		.uleb128 0x40
 18718 6848 01       		.uleb128 0x1
 18719 6849 50       		.byte	0x50
 18720 684a 02       		.uleb128 0x2
 18721 684b 78       		.byte	0x78
 18722 684c 00       		.sleb128 0
 18723 684d 00       		.byte	0
 18724 684e 3D       		.uleb128 0x3d
 18725 684f F6170000 		.4byte	.LVL351
 18726 6853 F16A0000 		.4byte	0x6af1
 18727 6857 3D       		.uleb128 0x3d
 18728 6858 02180000 		.4byte	.LVL352
ARM GAS  /var/folders/bw/wdbp2_bd0pn7gl5ybd33xbb80000gn/T//ccZ5cvgj.s 			page 335


 18729 685c AC6B0000 		.4byte	0x6bac
 18730 6860 3D       		.uleb128 0x3d
 18731 6861 42180000 		.4byte	.LVL353
 18732 6865 5A690000 		.4byte	0x695a
 18733 6869 3D       		.uleb128 0x3d
 18734 686a 74180000 		.4byte	.LVL354
 18735 686e FF690000 		.4byte	0x69ff
 18736 6872 3F       		.uleb128 0x3f
 18737 6873 9E180000 		.4byte	.LVL355
 18738 6877 966B0000 		.4byte	0x6b96
 18739 687b 86680000 		.4byte	0x6886
 18740 687f 40       		.uleb128 0x40
 18741 6880 01       		.uleb128 0x1
 18742 6881 50       		.byte	0x50
 18743 6882 02       		.uleb128 0x2
 18744 6883 76       		.byte	0x76
 18745 6884 00       		.sleb128 0
 18746 6885 00       		.byte	0
 18747 6886 3D       		.uleb128 0x3d
 18748 6887 B2180000 		.4byte	.LVL356
 18749 688b F4690000 		.4byte	0x69f4
 18750 688f 3F       		.uleb128 0x3f
 18751 6890 DC180000 		.4byte	.LVL357
 18752 6894 966B0000 		.4byte	0x6b96
 18753 6898 A3680000 		.4byte	0x68a3
 18754 689c 40       		.uleb128 0x40
 18755 689d 01       		.uleb128 0x1
 18756 689e 50       		.byte	0x50
 18757 689f 02       		.uleb128 0x2
 18758 68a0 76       		.byte	0x76
 18759 68a1 00       		.sleb128 0
 18760 68a2 00       		.byte	0
 18761 68a3 3D       		.uleb128 0x3d
 18762 68a4 EA180000 		.4byte	.LVL359
 18763 68a8 FC6A0000 		.4byte	0x6afc
 18764 68ac 3D       		.uleb128 0x3d
 18765 68ad F8180000 		.4byte	.LVL361
 18766 68b1 FC6A0000 		.4byte	0x6afc
 18767 68b5 3D       		.uleb128 0x3d
 18768 68b6 12190000 		.4byte	.LVL363
 18769 68ba 626A0000 		.4byte	0x6a62
 18770 68be 3D       		.uleb128 0x3d
 18771 68bf 1A190000 		.4byte	.LVL364
 18772 68c3 D06A0000 		.4byte	0x6ad0
 18773 68c7 3D       		.uleb128 0x3d
 18774 68c8 88190000 		.4byte	.LVL366
 18775 68cc 5A690000 		.4byte	0x695a
 18776 68d0 3F       		.uleb128 0x3f
 18777 68d1 98190000 		.4byte	.LVL367
 18778 68d5 B76B0000 		.4byte	0x6bb7
 18779 68d9 F9680000 		.4byte	0x68f9
 18780 68dd 40       		.uleb128 0x40
 18781 68de 01       		.uleb128 0x1
 18782 68df 50       		.byte	0x50
 18783 68e0 05       		.uleb128 0x5
 18784 68e1 03       		.byte	0x3
 18785 68e2 00000000 		.4byte	.LANCHOR20
ARM GAS  /var/folders/bw/wdbp2_bd0pn7gl5ybd33xbb80000gn/T//ccZ5cvgj.s 			page 336


 18786 68e6 40       		.uleb128 0x40
 18787 68e7 01       		.uleb128 0x1
 18788 68e8 51       		.byte	0x51
 18789 68e9 05       		.uleb128 0x5
 18790 68ea 03       		.byte	0x3
 18791 68eb 00000000 		.4byte	.LANCHOR19
 18792 68ef 40       		.uleb128 0x40
 18793 68f0 01       		.uleb128 0x1
 18794 68f1 52       		.byte	0x52
 18795 68f2 05       		.uleb128 0x5
 18796 68f3 03       		.byte	0x3
 18797 68f4 00000000 		.4byte	.LANCHOR18
 18798 68f8 00       		.byte	0
 18799 68f9 3D       		.uleb128 0x3d
 18800 68fa CE190000 		.4byte	.LVL368
 18801 68fe 5A690000 		.4byte	0x695a
 18802 6902 3D       		.uleb128 0x3d
 18803 6903 D8190000 		.4byte	.LVL369
 18804 6907 286B0000 		.4byte	0x6b28
 18805 690b 3D       		.uleb128 0x3d
 18806 690c F2190000 		.4byte	.LVL370
 18807 6910 C26B0000 		.4byte	0x6bc2
 18808 6914 3D       		.uleb128 0x3d
 18809 6915 081A0000 		.4byte	.LVL371
 18810 6919 CD6B0000 		.4byte	0x6bcd
 18811 691d 3F       		.uleb128 0x3f
 18812 691e 121A0000 		.4byte	.LVL372
 18813 6922 D86B0000 		.4byte	0x6bd8
 18814 6926 31690000 		.4byte	0x6931
 18815 692a 40       		.uleb128 0x40
 18816 692b 01       		.uleb128 0x1
 18817 692c 50       		.byte	0x50
 18818 692d 02       		.uleb128 0x2
 18819 692e 74       		.byte	0x74
 18820 692f 00       		.sleb128 0
 18821 6930 00       		.byte	0
 18822 6931 3F       		.uleb128 0x3f
 18823 6932 461A0000 		.4byte	.LVL378
 18824 6936 65690000 		.4byte	0x6965
 18825 693a 45690000 		.4byte	0x6945
 18826 693e 40       		.uleb128 0x40
 18827 693f 01       		.uleb128 0x1
 18828 6940 50       		.byte	0x50
 18829 6941 02       		.uleb128 0x2
 18830 6942 78       		.byte	0x78
 18831 6943 00       		.sleb128 0
 18832 6944 00       		.byte	0
 18833 6945 3D       		.uleb128 0x3d
 18834 6946 6A1A0000 		.4byte	.LVL382
 18835 694a AF6A0000 		.4byte	0x6aaf
 18836 694e 00       		.byte	0
 18837 694f 41       		.uleb128 0x41
 18838 6950 5C1D0000 		.4byte	.LASF956
 18839 6954 5C1D0000 		.4byte	.LASF956
 18840 6958 3D       		.byte	0x3d
 18841 6959 45       		.byte	0x45
 18842 695a 41       		.uleb128 0x41
ARM GAS  /var/folders/bw/wdbp2_bd0pn7gl5ybd33xbb80000gn/T//ccZ5cvgj.s 			page 337


 18843 695b 76150000 		.4byte	.LASF957
 18844 695f 76150000 		.4byte	.LASF957
 18845 6963 3F       		.byte	0x3f
 18846 6964 23       		.byte	0x23
 18847 6965 41       		.uleb128 0x41
 18848 6966 911E0000 		.4byte	.LASF958
 18849 696a 911E0000 		.4byte	.LASF958
 18850 696e 40       		.byte	0x40
 18851 696f 29       		.byte	0x29
 18852 6970 41       		.uleb128 0x41
 18853 6971 2E210000 		.4byte	.LASF959
 18854 6975 2E210000 		.4byte	.LASF959
 18855 6979 41       		.byte	0x41
 18856 697a 71       		.byte	0x71
 18857 697b 41       		.uleb128 0x41
 18858 697c 69140000 		.4byte	.LASF960
 18859 6980 69140000 		.4byte	.LASF960
 18860 6984 41       		.byte	0x41
 18861 6985 76       		.byte	0x76
 18862 6986 41       		.uleb128 0x41
 18863 6987 8F150000 		.4byte	.LASF961
 18864 698b 8F150000 		.4byte	.LASF961
 18865 698f 42       		.byte	0x42
 18866 6990 29       		.byte	0x29
 18867 6991 41       		.uleb128 0x41
 18868 6992 8D1C0000 		.4byte	.LASF962
 18869 6996 8D1C0000 		.4byte	.LASF962
 18870 699a 42       		.byte	0x42
 18871 699b 28       		.byte	0x28
 18872 699c 41       		.uleb128 0x41
 18873 699d 3D080000 		.4byte	.LASF963
 18874 69a1 3D080000 		.4byte	.LASF963
 18875 69a5 42       		.byte	0x42
 18876 69a6 2A       		.byte	0x2a
 18877 69a7 41       		.uleb128 0x41
 18878 69a8 F2080000 		.4byte	.LASF964
 18879 69ac F2080000 		.4byte	.LASF964
 18880 69b0 43       		.byte	0x43
 18881 69b1 F4       		.byte	0xf4
 18882 69b2 41       		.uleb128 0x41
 18883 69b3 B10A0000 		.4byte	.LASF965
 18884 69b7 B10A0000 		.4byte	.LASF965
 18885 69bb 43       		.byte	0x43
 18886 69bc CC       		.byte	0xcc
 18887 69bd 41       		.uleb128 0x41
 18888 69be 48050000 		.4byte	.LASF966
 18889 69c2 48050000 		.4byte	.LASF966
 18890 69c6 42       		.byte	0x42
 18891 69c7 27       		.byte	0x27
 18892 69c8 41       		.uleb128 0x41
 18893 69c9 C7000000 		.4byte	.LASF967
 18894 69cd C7000000 		.4byte	.LASF967
 18895 69d1 44       		.byte	0x44
 18896 69d2 40       		.byte	0x40
 18897 69d3 41       		.uleb128 0x41
 18898 69d4 5F160000 		.4byte	.LASF968
 18899 69d8 5F160000 		.4byte	.LASF968
ARM GAS  /var/folders/bw/wdbp2_bd0pn7gl5ybd33xbb80000gn/T//ccZ5cvgj.s 			page 338


 18900 69dc 44       		.byte	0x44
 18901 69dd 41       		.byte	0x41
 18902 69de 41       		.uleb128 0x41
 18903 69df 702A0000 		.4byte	.LASF969
 18904 69e3 702A0000 		.4byte	.LASF969
 18905 69e7 44       		.byte	0x44
 18906 69e8 3D       		.byte	0x3d
 18907 69e9 41       		.uleb128 0x41
 18908 69ea 001F0000 		.4byte	.LASF970
 18909 69ee 001F0000 		.4byte	.LASF970
 18910 69f2 44       		.byte	0x44
 18911 69f3 3E       		.byte	0x3e
 18912 69f4 41       		.uleb128 0x41
 18913 69f5 95010000 		.4byte	.LASF971
 18914 69f9 95010000 		.4byte	.LASF971
 18915 69fd 45       		.byte	0x45
 18916 69fe 30       		.byte	0x30
 18917 69ff 41       		.uleb128 0x41
 18918 6a00 43190000 		.4byte	.LASF972
 18919 6a04 43190000 		.4byte	.LASF972
 18920 6a08 45       		.byte	0x45
 18921 6a09 27       		.byte	0x27
 18922 6a0a 41       		.uleb128 0x41
 18923 6a0b 22270000 		.4byte	.LASF973
 18924 6a0f 22270000 		.4byte	.LASF973
 18925 6a13 46       		.byte	0x46
 18926 6a14 26       		.byte	0x26
 18927 6a15 41       		.uleb128 0x41
 18928 6a16 631C0000 		.4byte	.LASF974
 18929 6a1a 631C0000 		.4byte	.LASF974
 18930 6a1e 44       		.byte	0x44
 18931 6a1f 39       		.byte	0x39
 18932 6a20 41       		.uleb128 0x41
 18933 6a21 871D0000 		.4byte	.LASF975
 18934 6a25 871D0000 		.4byte	.LASF975
 18935 6a29 44       		.byte	0x44
 18936 6a2a 3A       		.byte	0x3a
 18937 6a2b 41       		.uleb128 0x41
 18938 6a2c 7A040000 		.4byte	.LASF976
 18939 6a30 7A040000 		.4byte	.LASF976
 18940 6a34 47       		.byte	0x47
 18941 6a35 3A       		.byte	0x3a
 18942 6a36 41       		.uleb128 0x41
 18943 6a37 64130000 		.4byte	.LASF977
 18944 6a3b 64130000 		.4byte	.LASF977
 18945 6a3f 3E       		.byte	0x3e
 18946 6a40 42       		.byte	0x42
 18947 6a41 41       		.uleb128 0x41
 18948 6a42 2B240000 		.4byte	.LASF978
 18949 6a46 2B240000 		.4byte	.LASF978
 18950 6a4a 48       		.byte	0x48
 18951 6a4b 96       		.byte	0x96
 18952 6a4c 41       		.uleb128 0x41
 18953 6a4d CA1B0000 		.4byte	.LASF979
 18954 6a51 CA1B0000 		.4byte	.LASF979
 18955 6a55 47       		.byte	0x47
 18956 6a56 3B       		.byte	0x3b
ARM GAS  /var/folders/bw/wdbp2_bd0pn7gl5ybd33xbb80000gn/T//ccZ5cvgj.s 			page 339


 18957 6a57 41       		.uleb128 0x41
 18958 6a58 F3030000 		.4byte	.LASF980
 18959 6a5c F3030000 		.4byte	.LASF980
 18960 6a60 45       		.byte	0x45
 18961 6a61 0B       		.byte	0xb
 18962 6a62 41       		.uleb128 0x41
 18963 6a63 462A0000 		.4byte	.LASF981
 18964 6a67 462A0000 		.4byte	.LASF981
 18965 6a6b 47       		.byte	0x47
 18966 6a6c 46       		.byte	0x46
 18967 6a6d 41       		.uleb128 0x41
 18968 6a6e 20190000 		.4byte	.LASF982
 18969 6a72 20190000 		.4byte	.LASF982
 18970 6a76 49       		.byte	0x49
 18971 6a77 72       		.byte	0x72
 18972 6a78 41       		.uleb128 0x41
 18973 6a79 0B0D0000 		.4byte	.LASF983
 18974 6a7d 0B0D0000 		.4byte	.LASF983
 18975 6a81 49       		.byte	0x49
 18976 6a82 73       		.byte	0x73
 18977 6a83 41       		.uleb128 0x41
 18978 6a84 BF040000 		.4byte	.LASF984
 18979 6a88 BF040000 		.4byte	.LASF984
 18980 6a8c 49       		.byte	0x49
 18981 6a8d 74       		.byte	0x74
 18982 6a8e 41       		.uleb128 0x41
 18983 6a8f 3A230000 		.4byte	.LASF985
 18984 6a93 3A230000 		.4byte	.LASF985
 18985 6a97 4A       		.byte	0x4a
 18986 6a98 22       		.byte	0x22
 18987 6a99 41       		.uleb128 0x41
 18988 6a9a BF070000 		.4byte	.LASF986
 18989 6a9e BF070000 		.4byte	.LASF986
 18990 6aa2 4A       		.byte	0x4a
 18991 6aa3 1D       		.byte	0x1d
 18992 6aa4 41       		.uleb128 0x41
 18993 6aa5 A11D0000 		.4byte	.LASF987
 18994 6aa9 A11D0000 		.4byte	.LASF987
 18995 6aad 4A       		.byte	0x4a
 18996 6aae 25       		.byte	0x25
 18997 6aaf 41       		.uleb128 0x41
 18998 6ab0 0A150000 		.4byte	.LASF988
 18999 6ab4 0A150000 		.4byte	.LASF988
 19000 6ab8 47       		.byte	0x47
 19001 6ab9 47       		.byte	0x47
 19002 6aba 41       		.uleb128 0x41
 19003 6abb B7150000 		.4byte	.LASF989
 19004 6abf B7150000 		.4byte	.LASF989
 19005 6ac3 4B       		.byte	0x4b
 19006 6ac4 68       		.byte	0x68
 19007 6ac5 41       		.uleb128 0x41
 19008 6ac6 61120000 		.4byte	.LASF990
 19009 6aca 61120000 		.4byte	.LASF990
 19010 6ace 3C       		.byte	0x3c
 19011 6acf A2       		.byte	0xa2
 19012 6ad0 41       		.uleb128 0x41
 19013 6ad1 6E0C0000 		.4byte	.LASF991
ARM GAS  /var/folders/bw/wdbp2_bd0pn7gl5ybd33xbb80000gn/T//ccZ5cvgj.s 			page 340


 19014 6ad5 6E0C0000 		.4byte	.LASF991
 19015 6ad9 4C       		.byte	0x4c
 19016 6ada 0B       		.byte	0xb
 19017 6adb 41       		.uleb128 0x41
 19018 6adc 22250000 		.4byte	.LASF992
 19019 6ae0 22250000 		.4byte	.LASF992
 19020 6ae4 4C       		.byte	0x4c
 19021 6ae5 0D       		.byte	0xd
 19022 6ae6 41       		.uleb128 0x41
 19023 6ae7 61200000 		.4byte	.LASF993
 19024 6aeb 61200000 		.4byte	.LASF993
 19025 6aef 41       		.byte	0x41
 19026 6af0 8A       		.byte	0x8a
 19027 6af1 41       		.uleb128 0x41
 19028 6af2 72010000 		.4byte	.LASF994
 19029 6af6 72010000 		.4byte	.LASF994
 19030 6afa 41       		.byte	0x41
 19031 6afb 8F       		.byte	0x8f
 19032 6afc 41       		.uleb128 0x41
 19033 6afd 43030000 		.4byte	.LASF995
 19034 6b01 43030000 		.4byte	.LASF995
 19035 6b05 4B       		.byte	0x4b
 19036 6b06 67       		.byte	0x67
 19037 6b07 41       		.uleb128 0x41
 19038 6b08 AA0C0000 		.4byte	.LASF996
 19039 6b0c AA0C0000 		.4byte	.LASF996
 19040 6b10 4D       		.byte	0x4d
 19041 6b11 17       		.byte	0x17
 19042 6b12 41       		.uleb128 0x41
 19043 6b13 06200000 		.4byte	.LASF997
 19044 6b17 06200000 		.4byte	.LASF997
 19045 6b1b 4D       		.byte	0x4d
 19046 6b1c 19       		.byte	0x19
 19047 6b1d 41       		.uleb128 0x41
 19048 6b1e 7C000000 		.4byte	.LASF998
 19049 6b22 7C000000 		.4byte	.LASF998
 19050 6b26 4D       		.byte	0x4d
 19051 6b27 1B       		.byte	0x1b
 19052 6b28 41       		.uleb128 0x41
 19053 6b29 E1260000 		.4byte	.LASF999
 19054 6b2d E1260000 		.4byte	.LASF999
 19055 6b31 4D       		.byte	0x4d
 19056 6b32 15       		.byte	0x15
 19057 6b33 41       		.uleb128 0x41
 19058 6b34 A0130000 		.4byte	.LASF1000
 19059 6b38 A0130000 		.4byte	.LASF1000
 19060 6b3c 4B       		.byte	0x4b
 19061 6b3d 69       		.byte	0x69
 19062 6b3e 41       		.uleb128 0x41
 19063 6b3f 10130000 		.4byte	.LASF1001
 19064 6b43 10130000 		.4byte	.LASF1001
 19065 6b47 3C       		.byte	0x3c
 19066 6b48 AF       		.byte	0xaf
 19067 6b49 41       		.uleb128 0x41
 19068 6b4a D10A0000 		.4byte	.LASF1002
 19069 6b4e D10A0000 		.4byte	.LASF1002
 19070 6b52 44       		.byte	0x44
ARM GAS  /var/folders/bw/wdbp2_bd0pn7gl5ybd33xbb80000gn/T//ccZ5cvgj.s 			page 341


 19071 6b53 37       		.byte	0x37
 19072 6b54 41       		.uleb128 0x41
 19073 6b55 DB170000 		.4byte	.LASF1003
 19074 6b59 DB170000 		.4byte	.LASF1003
 19075 6b5d 4C       		.byte	0x4c
 19076 6b5e 0A       		.byte	0xa
 19077 6b5f 41       		.uleb128 0x41
 19078 6b60 B30D0000 		.4byte	.LASF1004
 19079 6b64 B30D0000 		.4byte	.LASF1004
 19080 6b68 42       		.byte	0x42
 19081 6b69 25       		.byte	0x25
 19082 6b6a 41       		.uleb128 0x41
 19083 6b6b 161E0000 		.4byte	.LASF1005
 19084 6b6f 161E0000 		.4byte	.LASF1005
 19085 6b73 49       		.byte	0x49
 19086 6b74 6F       		.byte	0x6f
 19087 6b75 41       		.uleb128 0x41
 19088 6b76 C81A0000 		.4byte	.LASF1006
 19089 6b7a C81A0000 		.4byte	.LASF1006
 19090 6b7e 4E       		.byte	0x4e
 19091 6b7f 12       		.byte	0x12
 19092 6b80 41       		.uleb128 0x41
 19093 6b81 B6020000 		.4byte	.LASF1007
 19094 6b85 B6020000 		.4byte	.LASF1007
 19095 6b89 3E       		.byte	0x3e
 19096 6b8a 49       		.byte	0x49
 19097 6b8b 41       		.uleb128 0x41
 19098 6b8c F7150000 		.4byte	.LASF1008
 19099 6b90 F7150000 		.4byte	.LASF1008
 19100 6b94 41       		.byte	0x41
 19101 6b95 6B       		.byte	0x6b
 19102 6b96 41       		.uleb128 0x41
 19103 6b97 5B240000 		.4byte	.LASF1009
 19104 6b9b 5B240000 		.4byte	.LASF1009
 19105 6b9f 41       		.byte	0x41
 19106 6ba0 84       		.byte	0x84
 19107 6ba1 41       		.uleb128 0x41
 19108 6ba2 AB1E0000 		.4byte	.LASF1010
 19109 6ba6 AB1E0000 		.4byte	.LASF1010
 19110 6baa 4A       		.byte	0x4a
 19111 6bab 27       		.byte	0x27
 19112 6bac 41       		.uleb128 0x41
 19113 6bad 82010000 		.4byte	.LASF1011
 19114 6bb1 82010000 		.4byte	.LASF1011
 19115 6bb5 3E       		.byte	0x3e
 19116 6bb6 4F       		.byte	0x4f
 19117 6bb7 41       		.uleb128 0x41
 19118 6bb8 18230000 		.4byte	.LASF1012
 19119 6bbc 18230000 		.4byte	.LASF1012
 19120 6bc0 4D       		.byte	0x4d
 19121 6bc1 12       		.byte	0x12
 19122 6bc2 41       		.uleb128 0x41
 19123 6bc3 E0220000 		.4byte	.LASF1013
 19124 6bc7 E0220000 		.4byte	.LASF1013
 19125 6bcb 4A       		.byte	0x4a
 19126 6bcc 28       		.byte	0x28
 19127 6bcd 41       		.uleb128 0x41
ARM GAS  /var/folders/bw/wdbp2_bd0pn7gl5ybd33xbb80000gn/T//ccZ5cvgj.s 			page 342


 19128 6bce 03180000 		.4byte	.LASF1014
 19129 6bd2 03180000 		.4byte	.LASF1014
 19130 6bd6 4F       		.byte	0x4f
 19131 6bd7 6E       		.byte	0x6e
 19132 6bd8 42       		.uleb128 0x42
 19133 6bd9 E8040000 		.4byte	.LASF1020
 19134 6bdd 6D210000 		.4byte	.LASF1021
 19135 6be1 50       		.byte	0x50
 19136 6be2 00       		.byte	0
 19137 6be3 E8040000 		.4byte	.LASF1020
 19138 6be7 00       		.byte	0
 19139              		.section	.debug_abbrev,"",%progbits
 19140              	.Ldebug_abbrev0:
 19141 0000 01       		.uleb128 0x1
 19142 0001 11       		.uleb128 0x11
 19143 0002 01       		.byte	0x1
 19144 0003 25       		.uleb128 0x25
 19145 0004 0E       		.uleb128 0xe
 19146 0005 13       		.uleb128 0x13
 19147 0006 0B       		.uleb128 0xb
 19148 0007 03       		.uleb128 0x3
 19149 0008 0E       		.uleb128 0xe
 19150 0009 1B       		.uleb128 0x1b
 19151 000a 0E       		.uleb128 0xe
 19152 000b 55       		.uleb128 0x55
 19153 000c 17       		.uleb128 0x17
 19154 000d 11       		.uleb128 0x11
 19155 000e 01       		.uleb128 0x1
 19156 000f 10       		.uleb128 0x10
 19157 0010 17       		.uleb128 0x17
 19158 0011 00       		.byte	0
 19159 0012 00       		.byte	0
 19160 0013 02       		.uleb128 0x2
 19161 0014 16       		.uleb128 0x16
 19162 0015 00       		.byte	0
 19163 0016 03       		.uleb128 0x3
 19164 0017 0E       		.uleb128 0xe
 19165 0018 3A       		.uleb128 0x3a
 19166 0019 0B       		.uleb128 0xb
 19167 001a 3B       		.uleb128 0x3b
 19168 001b 0B       		.uleb128 0xb
 19169 001c 49       		.uleb128 0x49
 19170 001d 13       		.uleb128 0x13
 19171 001e 00       		.byte	0
 19172 001f 00       		.byte	0
 19173 0020 03       		.uleb128 0x3
 19174 0021 24       		.uleb128 0x24
 19175 0022 00       		.byte	0
 19176 0023 0B       		.uleb128 0xb
 19177 0024 0B       		.uleb128 0xb
 19178 0025 3E       		.uleb128 0x3e
 19179 0026 0B       		.uleb128 0xb
 19180 0027 03       		.uleb128 0x3
 19181 0028 0E       		.uleb128 0xe
 19182 0029 00       		.byte	0
 19183 002a 00       		.byte	0
 19184 002b 04       		.uleb128 0x4
ARM GAS  /var/folders/bw/wdbp2_bd0pn7gl5ybd33xbb80000gn/T//ccZ5cvgj.s 			page 343


 19185 002c 24       		.uleb128 0x24
 19186 002d 00       		.byte	0
 19187 002e 0B       		.uleb128 0xb
 19188 002f 0B       		.uleb128 0xb
 19189 0030 3E       		.uleb128 0x3e
 19190 0031 0B       		.uleb128 0xb
 19191 0032 03       		.uleb128 0x3
 19192 0033 08       		.uleb128 0x8
 19193 0034 00       		.byte	0
 19194 0035 00       		.byte	0
 19195 0036 05       		.uleb128 0x5
 19196 0037 26       		.uleb128 0x26
 19197 0038 00       		.byte	0
 19198 0039 49       		.uleb128 0x49
 19199 003a 13       		.uleb128 0x13
 19200 003b 00       		.byte	0
 19201 003c 00       		.byte	0
 19202 003d 06       		.uleb128 0x6
 19203 003e 35       		.uleb128 0x35
 19204 003f 00       		.byte	0
 19205 0040 49       		.uleb128 0x49
 19206 0041 13       		.uleb128 0x13
 19207 0042 00       		.byte	0
 19208 0043 00       		.byte	0
 19209 0044 07       		.uleb128 0x7
 19210 0045 13       		.uleb128 0x13
 19211 0046 01       		.byte	0x1
 19212 0047 03       		.uleb128 0x3
 19213 0048 0E       		.uleb128 0xe
 19214 0049 0B       		.uleb128 0xb
 19215 004a 0B       		.uleb128 0xb
 19216 004b 3A       		.uleb128 0x3a
 19217 004c 0B       		.uleb128 0xb
 19218 004d 3B       		.uleb128 0x3b
 19219 004e 0B       		.uleb128 0xb
 19220 004f 01       		.uleb128 0x1
 19221 0050 13       		.uleb128 0x13
 19222 0051 00       		.byte	0
 19223 0052 00       		.byte	0
 19224 0053 08       		.uleb128 0x8
 19225 0054 0D       		.uleb128 0xd
 19226 0055 00       		.byte	0
 19227 0056 03       		.uleb128 0x3
 19228 0057 0E       		.uleb128 0xe
 19229 0058 3A       		.uleb128 0x3a
 19230 0059 0B       		.uleb128 0xb
 19231 005a 3B       		.uleb128 0x3b
 19232 005b 0B       		.uleb128 0xb
 19233 005c 49       		.uleb128 0x49
 19234 005d 13       		.uleb128 0x13
 19235 005e 38       		.uleb128 0x38
 19236 005f 0B       		.uleb128 0xb
 19237 0060 00       		.byte	0
 19238 0061 00       		.byte	0
 19239 0062 09       		.uleb128 0x9
 19240 0063 0D       		.uleb128 0xd
 19241 0064 00       		.byte	0
ARM GAS  /var/folders/bw/wdbp2_bd0pn7gl5ybd33xbb80000gn/T//ccZ5cvgj.s 			page 344


 19242 0065 03       		.uleb128 0x3
 19243 0066 08       		.uleb128 0x8
 19244 0067 3A       		.uleb128 0x3a
 19245 0068 0B       		.uleb128 0xb
 19246 0069 3B       		.uleb128 0x3b
 19247 006a 05       		.uleb128 0x5
 19248 006b 49       		.uleb128 0x49
 19249 006c 13       		.uleb128 0x13
 19250 006d 38       		.uleb128 0x38
 19251 006e 0B       		.uleb128 0xb
 19252 006f 00       		.byte	0
 19253 0070 00       		.byte	0
 19254 0071 0A       		.uleb128 0xa
 19255 0072 0D       		.uleb128 0xd
 19256 0073 00       		.byte	0
 19257 0074 03       		.uleb128 0x3
 19258 0075 0E       		.uleb128 0xe
 19259 0076 3A       		.uleb128 0x3a
 19260 0077 0B       		.uleb128 0xb
 19261 0078 3B       		.uleb128 0x3b
 19262 0079 05       		.uleb128 0x5
 19263 007a 49       		.uleb128 0x49
 19264 007b 13       		.uleb128 0x13
 19265 007c 38       		.uleb128 0x38
 19266 007d 0B       		.uleb128 0xb
 19267 007e 00       		.byte	0
 19268 007f 00       		.byte	0
 19269 0080 0B       		.uleb128 0xb
 19270 0081 0F       		.uleb128 0xf
 19271 0082 00       		.byte	0
 19272 0083 0B       		.uleb128 0xb
 19273 0084 0B       		.uleb128 0xb
 19274 0085 49       		.uleb128 0x49
 19275 0086 13       		.uleb128 0x13
 19276 0087 00       		.byte	0
 19277 0088 00       		.byte	0
 19278 0089 0C       		.uleb128 0xc
 19279 008a 13       		.uleb128 0x13
 19280 008b 01       		.byte	0x1
 19281 008c 03       		.uleb128 0x3
 19282 008d 0E       		.uleb128 0xe
 19283 008e 0B       		.uleb128 0xb
 19284 008f 0B       		.uleb128 0xb
 19285 0090 3A       		.uleb128 0x3a
 19286 0091 0B       		.uleb128 0xb
 19287 0092 3B       		.uleb128 0x3b
 19288 0093 05       		.uleb128 0x5
 19289 0094 01       		.uleb128 0x1
 19290 0095 13       		.uleb128 0x13
 19291 0096 00       		.byte	0
 19292 0097 00       		.byte	0
 19293 0098 0D       		.uleb128 0xd
 19294 0099 15       		.uleb128 0x15
 19295 009a 01       		.byte	0x1
 19296 009b 27       		.uleb128 0x27
 19297 009c 19       		.uleb128 0x19
 19298 009d 01       		.uleb128 0x1
ARM GAS  /var/folders/bw/wdbp2_bd0pn7gl5ybd33xbb80000gn/T//ccZ5cvgj.s 			page 345


 19299 009e 13       		.uleb128 0x13
 19300 009f 00       		.byte	0
 19301 00a0 00       		.byte	0
 19302 00a1 0E       		.uleb128 0xe
 19303 00a2 05       		.uleb128 0x5
 19304 00a3 00       		.byte	0
 19305 00a4 49       		.uleb128 0x49
 19306 00a5 13       		.uleb128 0x13
 19307 00a6 00       		.byte	0
 19308 00a7 00       		.byte	0
 19309 00a8 0F       		.uleb128 0xf
 19310 00a9 0F       		.uleb128 0xf
 19311 00aa 00       		.byte	0
 19312 00ab 0B       		.uleb128 0xb
 19313 00ac 0B       		.uleb128 0xb
 19314 00ad 00       		.byte	0
 19315 00ae 00       		.byte	0
 19316 00af 10       		.uleb128 0x10
 19317 00b0 13       		.uleb128 0x13
 19318 00b1 01       		.byte	0x1
 19319 00b2 03       		.uleb128 0x3
 19320 00b3 0E       		.uleb128 0xe
 19321 00b4 0B       		.uleb128 0xb
 19322 00b5 05       		.uleb128 0x5
 19323 00b6 3A       		.uleb128 0x3a
 19324 00b7 0B       		.uleb128 0xb
 19325 00b8 3B       		.uleb128 0x3b
 19326 00b9 05       		.uleb128 0x5
 19327 00ba 01       		.uleb128 0x1
 19328 00bb 13       		.uleb128 0x13
 19329 00bc 00       		.byte	0
 19330 00bd 00       		.byte	0
 19331 00be 11       		.uleb128 0x11
 19332 00bf 0D       		.uleb128 0xd
 19333 00c0 00       		.byte	0
 19334 00c1 03       		.uleb128 0x3
 19335 00c2 0E       		.uleb128 0xe
 19336 00c3 3A       		.uleb128 0x3a
 19337 00c4 0B       		.uleb128 0xb
 19338 00c5 3B       		.uleb128 0x3b
 19339 00c6 05       		.uleb128 0x5
 19340 00c7 49       		.uleb128 0x49
 19341 00c8 13       		.uleb128 0x13
 19342 00c9 38       		.uleb128 0x38
 19343 00ca 05       		.uleb128 0x5
 19344 00cb 00       		.byte	0
 19345 00cc 00       		.byte	0
 19346 00cd 12       		.uleb128 0x12
 19347 00ce 0D       		.uleb128 0xd
 19348 00cf 00       		.byte	0
 19349 00d0 03       		.uleb128 0x3
 19350 00d1 08       		.uleb128 0x8
 19351 00d2 3A       		.uleb128 0x3a
 19352 00d3 0B       		.uleb128 0xb
 19353 00d4 3B       		.uleb128 0x3b
 19354 00d5 05       		.uleb128 0x5
 19355 00d6 49       		.uleb128 0x49
ARM GAS  /var/folders/bw/wdbp2_bd0pn7gl5ybd33xbb80000gn/T//ccZ5cvgj.s 			page 346


 19356 00d7 13       		.uleb128 0x13
 19357 00d8 38       		.uleb128 0x38
 19358 00d9 05       		.uleb128 0x5
 19359 00da 00       		.byte	0
 19360 00db 00       		.byte	0
 19361 00dc 13       		.uleb128 0x13
 19362 00dd 01       		.uleb128 0x1
 19363 00de 01       		.byte	0x1
 19364 00df 49       		.uleb128 0x49
 19365 00e0 13       		.uleb128 0x13
 19366 00e1 01       		.uleb128 0x1
 19367 00e2 13       		.uleb128 0x13
 19368 00e3 00       		.byte	0
 19369 00e4 00       		.byte	0
 19370 00e5 14       		.uleb128 0x14
 19371 00e6 21       		.uleb128 0x21
 19372 00e7 00       		.byte	0
 19373 00e8 49       		.uleb128 0x49
 19374 00e9 13       		.uleb128 0x13
 19375 00ea 2F       		.uleb128 0x2f
 19376 00eb 0B       		.uleb128 0xb
 19377 00ec 00       		.byte	0
 19378 00ed 00       		.byte	0
 19379 00ee 15       		.uleb128 0x15
 19380 00ef 34       		.uleb128 0x34
 19381 00f0 00       		.byte	0
 19382 00f1 03       		.uleb128 0x3
 19383 00f2 0E       		.uleb128 0xe
 19384 00f3 3A       		.uleb128 0x3a
 19385 00f4 0B       		.uleb128 0xb
 19386 00f5 3B       		.uleb128 0x3b
 19387 00f6 05       		.uleb128 0x5
 19388 00f7 49       		.uleb128 0x49
 19389 00f8 13       		.uleb128 0x13
 19390 00f9 3F       		.uleb128 0x3f
 19391 00fa 19       		.uleb128 0x19
 19392 00fb 3C       		.uleb128 0x3c
 19393 00fc 19       		.uleb128 0x19
 19394 00fd 00       		.byte	0
 19395 00fe 00       		.byte	0
 19396 00ff 16       		.uleb128 0x16
 19397 0100 34       		.uleb128 0x34
 19398 0101 00       		.byte	0
 19399 0102 03       		.uleb128 0x3
 19400 0103 0E       		.uleb128 0xe
 19401 0104 3A       		.uleb128 0x3a
 19402 0105 0B       		.uleb128 0xb
 19403 0106 3B       		.uleb128 0x3b
 19404 0107 0B       		.uleb128 0xb
 19405 0108 49       		.uleb128 0x49
 19406 0109 13       		.uleb128 0x13
 19407 010a 3F       		.uleb128 0x3f
 19408 010b 19       		.uleb128 0x19
 19409 010c 3C       		.uleb128 0x3c
 19410 010d 19       		.uleb128 0x19
 19411 010e 00       		.byte	0
 19412 010f 00       		.byte	0
ARM GAS  /var/folders/bw/wdbp2_bd0pn7gl5ybd33xbb80000gn/T//ccZ5cvgj.s 			page 347


 19413 0110 17       		.uleb128 0x17
 19414 0111 13       		.uleb128 0x13
 19415 0112 01       		.byte	0x1
 19416 0113 0B       		.uleb128 0xb
 19417 0114 0B       		.uleb128 0xb
 19418 0115 3A       		.uleb128 0x3a
 19419 0116 0B       		.uleb128 0xb
 19420 0117 3B       		.uleb128 0x3b
 19421 0118 0B       		.uleb128 0xb
 19422 0119 01       		.uleb128 0x1
 19423 011a 13       		.uleb128 0x13
 19424 011b 00       		.byte	0
 19425 011c 00       		.byte	0
 19426 011d 18       		.uleb128 0x18
 19427 011e 0D       		.uleb128 0xd
 19428 011f 00       		.byte	0
 19429 0120 03       		.uleb128 0x3
 19430 0121 08       		.uleb128 0x8
 19431 0122 3A       		.uleb128 0x3a
 19432 0123 0B       		.uleb128 0xb
 19433 0124 3B       		.uleb128 0x3b
 19434 0125 0B       		.uleb128 0xb
 19435 0126 49       		.uleb128 0x49
 19436 0127 13       		.uleb128 0x13
 19437 0128 38       		.uleb128 0x38
 19438 0129 0B       		.uleb128 0xb
 19439 012a 00       		.byte	0
 19440 012b 00       		.byte	0
 19441 012c 19       		.uleb128 0x19
 19442 012d 13       		.uleb128 0x13
 19443 012e 01       		.byte	0x1
 19444 012f 0B       		.uleb128 0xb
 19445 0130 0B       		.uleb128 0xb
 19446 0131 3A       		.uleb128 0x3a
 19447 0132 0B       		.uleb128 0xb
 19448 0133 3B       		.uleb128 0x3b
 19449 0134 05       		.uleb128 0x5
 19450 0135 01       		.uleb128 0x1
 19451 0136 13       		.uleb128 0x13
 19452 0137 00       		.byte	0
 19453 0138 00       		.byte	0
 19454 0139 1A       		.uleb128 0x1a
 19455 013a 16       		.uleb128 0x16
 19456 013b 00       		.byte	0
 19457 013c 03       		.uleb128 0x3
 19458 013d 0E       		.uleb128 0xe
 19459 013e 3A       		.uleb128 0x3a
 19460 013f 0B       		.uleb128 0xb
 19461 0140 3B       		.uleb128 0x3b
 19462 0141 05       		.uleb128 0x5
 19463 0142 49       		.uleb128 0x49
 19464 0143 13       		.uleb128 0x13
 19465 0144 00       		.byte	0
 19466 0145 00       		.byte	0
 19467 0146 1B       		.uleb128 0x1b
 19468 0147 13       		.uleb128 0x13
 19469 0148 01       		.byte	0x1
ARM GAS  /var/folders/bw/wdbp2_bd0pn7gl5ybd33xbb80000gn/T//ccZ5cvgj.s 			page 348


 19470 0149 0B       		.uleb128 0xb
 19471 014a 05       		.uleb128 0x5
 19472 014b 3A       		.uleb128 0x3a
 19473 014c 0B       		.uleb128 0xb
 19474 014d 3B       		.uleb128 0x3b
 19475 014e 05       		.uleb128 0x5
 19476 014f 01       		.uleb128 0x1
 19477 0150 13       		.uleb128 0x13
 19478 0151 00       		.byte	0
 19479 0152 00       		.byte	0
 19480 0153 1C       		.uleb128 0x1c
 19481 0154 13       		.uleb128 0x13
 19482 0155 01       		.byte	0x1
 19483 0156 0B       		.uleb128 0xb
 19484 0157 05       		.uleb128 0x5
 19485 0158 3A       		.uleb128 0x3a
 19486 0159 0B       		.uleb128 0xb
 19487 015a 3B       		.uleb128 0x3b
 19488 015b 0B       		.uleb128 0xb
 19489 015c 01       		.uleb128 0x1
 19490 015d 13       		.uleb128 0x13
 19491 015e 00       		.byte	0
 19492 015f 00       		.byte	0
 19493 0160 1D       		.uleb128 0x1d
 19494 0161 17       		.uleb128 0x17
 19495 0162 01       		.byte	0x1
 19496 0163 0B       		.uleb128 0xb
 19497 0164 0B       		.uleb128 0xb
 19498 0165 3A       		.uleb128 0x3a
 19499 0166 0B       		.uleb128 0xb
 19500 0167 3B       		.uleb128 0x3b
 19501 0168 0B       		.uleb128 0xb
 19502 0169 01       		.uleb128 0x1
 19503 016a 13       		.uleb128 0x13
 19504 016b 00       		.byte	0
 19505 016c 00       		.byte	0
 19506 016d 1E       		.uleb128 0x1e
 19507 016e 0D       		.uleb128 0xd
 19508 016f 00       		.byte	0
 19509 0170 03       		.uleb128 0x3
 19510 0171 0E       		.uleb128 0xe
 19511 0172 3A       		.uleb128 0x3a
 19512 0173 0B       		.uleb128 0xb
 19513 0174 3B       		.uleb128 0x3b
 19514 0175 05       		.uleb128 0x5
 19515 0176 49       		.uleb128 0x49
 19516 0177 13       		.uleb128 0x13
 19517 0178 00       		.byte	0
 19518 0179 00       		.byte	0
 19519 017a 1F       		.uleb128 0x1f
 19520 017b 34       		.uleb128 0x34
 19521 017c 00       		.byte	0
 19522 017d 03       		.uleb128 0x3
 19523 017e 08       		.uleb128 0x8
 19524 017f 3A       		.uleb128 0x3a
 19525 0180 0B       		.uleb128 0xb
 19526 0181 3B       		.uleb128 0x3b
ARM GAS  /var/folders/bw/wdbp2_bd0pn7gl5ybd33xbb80000gn/T//ccZ5cvgj.s 			page 349


 19527 0182 05       		.uleb128 0x5
 19528 0183 49       		.uleb128 0x49
 19529 0184 13       		.uleb128 0x13
 19530 0185 3F       		.uleb128 0x3f
 19531 0186 19       		.uleb128 0x19
 19532 0187 3C       		.uleb128 0x3c
 19533 0188 19       		.uleb128 0x19
 19534 0189 00       		.byte	0
 19535 018a 00       		.byte	0
 19536 018b 20       		.uleb128 0x20
 19537 018c 15       		.uleb128 0x15
 19538 018d 01       		.byte	0x1
 19539 018e 27       		.uleb128 0x27
 19540 018f 19       		.uleb128 0x19
 19541 0190 49       		.uleb128 0x49
 19542 0191 13       		.uleb128 0x13
 19543 0192 01       		.uleb128 0x1
 19544 0193 13       		.uleb128 0x13
 19545 0194 00       		.byte	0
 19546 0195 00       		.byte	0
 19547 0196 21       		.uleb128 0x21
 19548 0197 04       		.uleb128 0x4
 19549 0198 01       		.byte	0x1
 19550 0199 3E       		.uleb128 0x3e
 19551 019a 0B       		.uleb128 0xb
 19552 019b 0B       		.uleb128 0xb
 19553 019c 0B       		.uleb128 0xb
 19554 019d 49       		.uleb128 0x49
 19555 019e 13       		.uleb128 0x13
 19556 019f 3A       		.uleb128 0x3a
 19557 01a0 0B       		.uleb128 0xb
 19558 01a1 3B       		.uleb128 0x3b
 19559 01a2 0B       		.uleb128 0xb
 19560 01a3 01       		.uleb128 0x1
 19561 01a4 13       		.uleb128 0x13
 19562 01a5 00       		.byte	0
 19563 01a6 00       		.byte	0
 19564 01a7 22       		.uleb128 0x22
 19565 01a8 28       		.uleb128 0x28
 19566 01a9 00       		.byte	0
 19567 01aa 03       		.uleb128 0x3
 19568 01ab 0E       		.uleb128 0xe
 19569 01ac 1C       		.uleb128 0x1c
 19570 01ad 0B       		.uleb128 0xb
 19571 01ae 00       		.byte	0
 19572 01af 00       		.byte	0
 19573 01b0 23       		.uleb128 0x23
 19574 01b1 0D       		.uleb128 0xd
 19575 01b2 00       		.byte	0
 19576 01b3 03       		.uleb128 0x3
 19577 01b4 08       		.uleb128 0x8
 19578 01b5 3A       		.uleb128 0x3a
 19579 01b6 0B       		.uleb128 0xb
 19580 01b7 3B       		.uleb128 0x3b
 19581 01b8 0B       		.uleb128 0xb
 19582 01b9 49       		.uleb128 0x49
 19583 01ba 13       		.uleb128 0x13
ARM GAS  /var/folders/bw/wdbp2_bd0pn7gl5ybd33xbb80000gn/T//ccZ5cvgj.s 			page 350


 19584 01bb 00       		.byte	0
 19585 01bc 00       		.byte	0
 19586 01bd 24       		.uleb128 0x24
 19587 01be 04       		.uleb128 0x4
 19588 01bf 01       		.byte	0x1
 19589 01c0 3E       		.uleb128 0x3e
 19590 01c1 0B       		.uleb128 0xb
 19591 01c2 0B       		.uleb128 0xb
 19592 01c3 0B       		.uleb128 0xb
 19593 01c4 49       		.uleb128 0x49
 19594 01c5 13       		.uleb128 0x13
 19595 01c6 3A       		.uleb128 0x3a
 19596 01c7 0B       		.uleb128 0xb
 19597 01c8 3B       		.uleb128 0x3b
 19598 01c9 05       		.uleb128 0x5
 19599 01ca 01       		.uleb128 0x1
 19600 01cb 13       		.uleb128 0x13
 19601 01cc 00       		.byte	0
 19602 01cd 00       		.byte	0
 19603 01ce 25       		.uleb128 0x25
 19604 01cf 26       		.uleb128 0x26
 19605 01d0 00       		.byte	0
 19606 01d1 00       		.byte	0
 19607 01d2 00       		.byte	0
 19608 01d3 26       		.uleb128 0x26
 19609 01d4 13       		.uleb128 0x13
 19610 01d5 01       		.byte	0x1
 19611 01d6 0B       		.uleb128 0xb
 19612 01d7 06       		.uleb128 0x6
 19613 01d8 3A       		.uleb128 0x3a
 19614 01d9 0B       		.uleb128 0xb
 19615 01da 3B       		.uleb128 0x3b
 19616 01db 0B       		.uleb128 0xb
 19617 01dc 01       		.uleb128 0x1
 19618 01dd 13       		.uleb128 0x13
 19619 01de 00       		.byte	0
 19620 01df 00       		.byte	0
 19621 01e0 27       		.uleb128 0x27
 19622 01e1 0D       		.uleb128 0xd
 19623 01e2 00       		.byte	0
 19624 01e3 03       		.uleb128 0x3
 19625 01e4 0E       		.uleb128 0xe
 19626 01e5 3A       		.uleb128 0x3a
 19627 01e6 0B       		.uleb128 0xb
 19628 01e7 3B       		.uleb128 0x3b
 19629 01e8 0B       		.uleb128 0xb
 19630 01e9 49       		.uleb128 0x49
 19631 01ea 13       		.uleb128 0x13
 19632 01eb 38       		.uleb128 0x38
 19633 01ec 05       		.uleb128 0x5
 19634 01ed 00       		.byte	0
 19635 01ee 00       		.byte	0
 19636 01ef 28       		.uleb128 0x28
 19637 01f0 0D       		.uleb128 0xd
 19638 01f1 00       		.byte	0
 19639 01f2 03       		.uleb128 0x3
 19640 01f3 08       		.uleb128 0x8
ARM GAS  /var/folders/bw/wdbp2_bd0pn7gl5ybd33xbb80000gn/T//ccZ5cvgj.s 			page 351


 19641 01f4 3A       		.uleb128 0x3a
 19642 01f5 0B       		.uleb128 0xb
 19643 01f6 3B       		.uleb128 0x3b
 19644 01f7 0B       		.uleb128 0xb
 19645 01f8 49       		.uleb128 0x49
 19646 01f9 13       		.uleb128 0x13
 19647 01fa 38       		.uleb128 0x38
 19648 01fb 05       		.uleb128 0x5
 19649 01fc 00       		.byte	0
 19650 01fd 00       		.byte	0
 19651 01fe 29       		.uleb128 0x29
 19652 01ff 21       		.uleb128 0x21
 19653 0200 00       		.byte	0
 19654 0201 49       		.uleb128 0x49
 19655 0202 13       		.uleb128 0x13
 19656 0203 2F       		.uleb128 0x2f
 19657 0204 05       		.uleb128 0x5
 19658 0205 00       		.byte	0
 19659 0206 00       		.byte	0
 19660 0207 2A       		.uleb128 0x2a
 19661 0208 0D       		.uleb128 0xd
 19662 0209 00       		.byte	0
 19663 020a 03       		.uleb128 0x3
 19664 020b 0E       		.uleb128 0xe
 19665 020c 3A       		.uleb128 0x3a
 19666 020d 0B       		.uleb128 0xb
 19667 020e 3B       		.uleb128 0x3b
 19668 020f 0B       		.uleb128 0xb
 19669 0210 49       		.uleb128 0x49
 19670 0211 13       		.uleb128 0x13
 19671 0212 00       		.byte	0
 19672 0213 00       		.byte	0
 19673 0214 2B       		.uleb128 0x2b
 19674 0215 17       		.uleb128 0x17
 19675 0216 01       		.byte	0x1
 19676 0217 0B       		.uleb128 0xb
 19677 0218 0B       		.uleb128 0xb
 19678 0219 3A       		.uleb128 0x3a
 19679 021a 0B       		.uleb128 0xb
 19680 021b 3B       		.uleb128 0x3b
 19681 021c 05       		.uleb128 0x5
 19682 021d 01       		.uleb128 0x1
 19683 021e 13       		.uleb128 0x13
 19684 021f 00       		.byte	0
 19685 0220 00       		.byte	0
 19686 0221 2C       		.uleb128 0x2c
 19687 0222 13       		.uleb128 0x13
 19688 0223 00       		.byte	0
 19689 0224 03       		.uleb128 0x3
 19690 0225 0E       		.uleb128 0xe
 19691 0226 3C       		.uleb128 0x3c
 19692 0227 19       		.uleb128 0x19
 19693 0228 00       		.byte	0
 19694 0229 00       		.byte	0
 19695 022a 2D       		.uleb128 0x2d
 19696 022b 13       		.uleb128 0x13
 19697 022c 01       		.byte	0x1
ARM GAS  /var/folders/bw/wdbp2_bd0pn7gl5ybd33xbb80000gn/T//ccZ5cvgj.s 			page 352


 19698 022d 03       		.uleb128 0x3
 19699 022e 0E       		.uleb128 0xe
 19700 022f 0B       		.uleb128 0xb
 19701 0230 05       		.uleb128 0x5
 19702 0231 3A       		.uleb128 0x3a
 19703 0232 0B       		.uleb128 0xb
 19704 0233 3B       		.uleb128 0x3b
 19705 0234 0B       		.uleb128 0xb
 19706 0235 01       		.uleb128 0x1
 19707 0236 13       		.uleb128 0x13
 19708 0237 00       		.byte	0
 19709 0238 00       		.byte	0
 19710 0239 2E       		.uleb128 0x2e
 19711 023a 15       		.uleb128 0x15
 19712 023b 00       		.byte	0
 19713 023c 27       		.uleb128 0x27
 19714 023d 19       		.uleb128 0x19
 19715 023e 00       		.byte	0
 19716 023f 00       		.byte	0
 19717 0240 2F       		.uleb128 0x2f
 19718 0241 04       		.uleb128 0x4
 19719 0242 01       		.byte	0x1
 19720 0243 03       		.uleb128 0x3
 19721 0244 0E       		.uleb128 0xe
 19722 0245 3E       		.uleb128 0x3e
 19723 0246 0B       		.uleb128 0xb
 19724 0247 0B       		.uleb128 0xb
 19725 0248 0B       		.uleb128 0xb
 19726 0249 49       		.uleb128 0x49
 19727 024a 13       		.uleb128 0x13
 19728 024b 3A       		.uleb128 0x3a
 19729 024c 0B       		.uleb128 0xb
 19730 024d 3B       		.uleb128 0x3b
 19731 024e 05       		.uleb128 0x5
 19732 024f 01       		.uleb128 0x1
 19733 0250 13       		.uleb128 0x13
 19734 0251 00       		.byte	0
 19735 0252 00       		.byte	0
 19736 0253 30       		.uleb128 0x30
 19737 0254 28       		.uleb128 0x28
 19738 0255 00       		.byte	0
 19739 0256 03       		.uleb128 0x3
 19740 0257 0E       		.uleb128 0xe
 19741 0258 1C       		.uleb128 0x1c
 19742 0259 0D       		.uleb128 0xd
 19743 025a 00       		.byte	0
 19744 025b 00       		.byte	0
 19745 025c 31       		.uleb128 0x31
 19746 025d 34       		.uleb128 0x34
 19747 025e 00       		.byte	0
 19748 025f 03       		.uleb128 0x3
 19749 0260 08       		.uleb128 0x8
 19750 0261 3A       		.uleb128 0x3a
 19751 0262 0B       		.uleb128 0xb
 19752 0263 3B       		.uleb128 0x3b
 19753 0264 0B       		.uleb128 0xb
 19754 0265 49       		.uleb128 0x49
ARM GAS  /var/folders/bw/wdbp2_bd0pn7gl5ybd33xbb80000gn/T//ccZ5cvgj.s 			page 353


 19755 0266 13       		.uleb128 0x13
 19756 0267 3F       		.uleb128 0x3f
 19757 0268 19       		.uleb128 0x19
 19758 0269 3C       		.uleb128 0x3c
 19759 026a 19       		.uleb128 0x19
 19760 026b 00       		.byte	0
 19761 026c 00       		.byte	0
 19762 026d 32       		.uleb128 0x32
 19763 026e 21       		.uleb128 0x21
 19764 026f 00       		.byte	0
 19765 0270 00       		.byte	0
 19766 0271 00       		.byte	0
 19767 0272 33       		.uleb128 0x33
 19768 0273 34       		.uleb128 0x34
 19769 0274 00       		.byte	0
 19770 0275 03       		.uleb128 0x3
 19771 0276 0E       		.uleb128 0xe
 19772 0277 3A       		.uleb128 0x3a
 19773 0278 0B       		.uleb128 0xb
 19774 0279 3B       		.uleb128 0x3b
 19775 027a 0B       		.uleb128 0xb
 19776 027b 49       		.uleb128 0x49
 19777 027c 13       		.uleb128 0x13
 19778 027d 3F       		.uleb128 0x3f
 19779 027e 19       		.uleb128 0x19
 19780 027f 02       		.uleb128 0x2
 19781 0280 18       		.uleb128 0x18
 19782 0281 00       		.byte	0
 19783 0282 00       		.byte	0
 19784 0283 34       		.uleb128 0x34
 19785 0284 34       		.uleb128 0x34
 19786 0285 00       		.byte	0
 19787 0286 03       		.uleb128 0x3
 19788 0287 08       		.uleb128 0x8
 19789 0288 3A       		.uleb128 0x3a
 19790 0289 0B       		.uleb128 0xb
 19791 028a 3B       		.uleb128 0x3b
 19792 028b 0B       		.uleb128 0xb
 19793 028c 49       		.uleb128 0x49
 19794 028d 13       		.uleb128 0x13
 19795 028e 3F       		.uleb128 0x3f
 19796 028f 19       		.uleb128 0x19
 19797 0290 02       		.uleb128 0x2
 19798 0291 18       		.uleb128 0x18
 19799 0292 00       		.byte	0
 19800 0293 00       		.byte	0
 19801 0294 35       		.uleb128 0x35
 19802 0295 2E       		.uleb128 0x2e
 19803 0296 01       		.byte	0x1
 19804 0297 3F       		.uleb128 0x3f
 19805 0298 19       		.uleb128 0x19
 19806 0299 03       		.uleb128 0x3
 19807 029a 0E       		.uleb128 0xe
 19808 029b 3A       		.uleb128 0x3a
 19809 029c 0B       		.uleb128 0xb
 19810 029d 3B       		.uleb128 0x3b
 19811 029e 0B       		.uleb128 0xb
ARM GAS  /var/folders/bw/wdbp2_bd0pn7gl5ybd33xbb80000gn/T//ccZ5cvgj.s 			page 354


 19812 029f 27       		.uleb128 0x27
 19813 02a0 19       		.uleb128 0x19
 19814 02a1 49       		.uleb128 0x49
 19815 02a2 13       		.uleb128 0x13
 19816 02a3 11       		.uleb128 0x11
 19817 02a4 01       		.uleb128 0x1
 19818 02a5 12       		.uleb128 0x12
 19819 02a6 06       		.uleb128 0x6
 19820 02a7 40       		.uleb128 0x40
 19821 02a8 18       		.uleb128 0x18
 19822 02a9 9742     		.uleb128 0x2117
 19823 02ab 19       		.uleb128 0x19
 19824 02ac 01       		.uleb128 0x1
 19825 02ad 13       		.uleb128 0x13
 19826 02ae 00       		.byte	0
 19827 02af 00       		.byte	0
 19828 02b0 36       		.uleb128 0x36
 19829 02b1 34       		.uleb128 0x34
 19830 02b2 00       		.byte	0
 19831 02b3 03       		.uleb128 0x3
 19832 02b4 08       		.uleb128 0x8
 19833 02b5 3A       		.uleb128 0x3a
 19834 02b6 0B       		.uleb128 0xb
 19835 02b7 3B       		.uleb128 0x3b
 19836 02b8 0B       		.uleb128 0xb
 19837 02b9 49       		.uleb128 0x49
 19838 02ba 13       		.uleb128 0x13
 19839 02bb 02       		.uleb128 0x2
 19840 02bc 18       		.uleb128 0x18
 19841 02bd 00       		.byte	0
 19842 02be 00       		.byte	0
 19843 02bf 37       		.uleb128 0x37
 19844 02c0 34       		.uleb128 0x34
 19845 02c1 00       		.byte	0
 19846 02c2 03       		.uleb128 0x3
 19847 02c3 0E       		.uleb128 0xe
 19848 02c4 3A       		.uleb128 0x3a
 19849 02c5 0B       		.uleb128 0xb
 19850 02c6 3B       		.uleb128 0x3b
 19851 02c7 0B       		.uleb128 0xb
 19852 02c8 49       		.uleb128 0x49
 19853 02c9 13       		.uleb128 0x13
 19854 02ca 02       		.uleb128 0x2
 19855 02cb 18       		.uleb128 0x18
 19856 02cc 00       		.byte	0
 19857 02cd 00       		.byte	0
 19858 02ce 38       		.uleb128 0x38
 19859 02cf 34       		.uleb128 0x34
 19860 02d0 00       		.byte	0
 19861 02d1 03       		.uleb128 0x3
 19862 02d2 08       		.uleb128 0x8
 19863 02d3 3A       		.uleb128 0x3a
 19864 02d4 0B       		.uleb128 0xb
 19865 02d5 3B       		.uleb128 0x3b
 19866 02d6 0B       		.uleb128 0xb
 19867 02d7 49       		.uleb128 0x49
 19868 02d8 13       		.uleb128 0x13
ARM GAS  /var/folders/bw/wdbp2_bd0pn7gl5ybd33xbb80000gn/T//ccZ5cvgj.s 			page 355


 19869 02d9 00       		.byte	0
 19870 02da 00       		.byte	0
 19871 02db 39       		.uleb128 0x39
 19872 02dc 34       		.uleb128 0x34
 19873 02dd 00       		.byte	0
 19874 02de 03       		.uleb128 0x3
 19875 02df 08       		.uleb128 0x8
 19876 02e0 3A       		.uleb128 0x3a
 19877 02e1 0B       		.uleb128 0xb
 19878 02e2 3B       		.uleb128 0x3b
 19879 02e3 0B       		.uleb128 0xb
 19880 02e4 49       		.uleb128 0x49
 19881 02e5 13       		.uleb128 0x13
 19882 02e6 02       		.uleb128 0x2
 19883 02e7 17       		.uleb128 0x17
 19884 02e8 00       		.byte	0
 19885 02e9 00       		.byte	0
 19886 02ea 3A       		.uleb128 0x3a
 19887 02eb 34       		.uleb128 0x34
 19888 02ec 00       		.byte	0
 19889 02ed 03       		.uleb128 0x3
 19890 02ee 0E       		.uleb128 0xe
 19891 02ef 3A       		.uleb128 0x3a
 19892 02f0 0B       		.uleb128 0xb
 19893 02f1 3B       		.uleb128 0x3b
 19894 02f2 0B       		.uleb128 0xb
 19895 02f3 49       		.uleb128 0x49
 19896 02f4 13       		.uleb128 0x13
 19897 02f5 02       		.uleb128 0x2
 19898 02f6 17       		.uleb128 0x17
 19899 02f7 00       		.byte	0
 19900 02f8 00       		.byte	0
 19901 02f9 3B       		.uleb128 0x3b
 19902 02fa 0B       		.uleb128 0xb
 19903 02fb 01       		.byte	0x1
 19904 02fc 11       		.uleb128 0x11
 19905 02fd 01       		.uleb128 0x1
 19906 02fe 12       		.uleb128 0x12
 19907 02ff 06       		.uleb128 0x6
 19908 0300 01       		.uleb128 0x1
 19909 0301 13       		.uleb128 0x13
 19910 0302 00       		.byte	0
 19911 0303 00       		.byte	0
 19912 0304 3C       		.uleb128 0x3c
 19913 0305 34       		.uleb128 0x34
 19914 0306 00       		.byte	0
 19915 0307 03       		.uleb128 0x3
 19916 0308 08       		.uleb128 0x8
 19917 0309 3A       		.uleb128 0x3a
 19918 030a 0B       		.uleb128 0xb
 19919 030b 3B       		.uleb128 0x3b
 19920 030c 05       		.uleb128 0x5
 19921 030d 49       		.uleb128 0x49
 19922 030e 13       		.uleb128 0x13
 19923 030f 02       		.uleb128 0x2
 19924 0310 17       		.uleb128 0x17
 19925 0311 00       		.byte	0
ARM GAS  /var/folders/bw/wdbp2_bd0pn7gl5ybd33xbb80000gn/T//ccZ5cvgj.s 			page 356


 19926 0312 00       		.byte	0
 19927 0313 3D       		.uleb128 0x3d
 19928 0314 898201   		.uleb128 0x4109
 19929 0317 00       		.byte	0
 19930 0318 11       		.uleb128 0x11
 19931 0319 01       		.uleb128 0x1
 19932 031a 31       		.uleb128 0x31
 19933 031b 13       		.uleb128 0x13
 19934 031c 00       		.byte	0
 19935 031d 00       		.byte	0
 19936 031e 3E       		.uleb128 0x3e
 19937 031f 0B       		.uleb128 0xb
 19938 0320 01       		.byte	0x1
 19939 0321 55       		.uleb128 0x55
 19940 0322 17       		.uleb128 0x17
 19941 0323 01       		.uleb128 0x1
 19942 0324 13       		.uleb128 0x13
 19943 0325 00       		.byte	0
 19944 0326 00       		.byte	0
 19945 0327 3F       		.uleb128 0x3f
 19946 0328 898201   		.uleb128 0x4109
 19947 032b 01       		.byte	0x1
 19948 032c 11       		.uleb128 0x11
 19949 032d 01       		.uleb128 0x1
 19950 032e 31       		.uleb128 0x31
 19951 032f 13       		.uleb128 0x13
 19952 0330 01       		.uleb128 0x1
 19953 0331 13       		.uleb128 0x13
 19954 0332 00       		.byte	0
 19955 0333 00       		.byte	0
 19956 0334 40       		.uleb128 0x40
 19957 0335 8A8201   		.uleb128 0x410a
 19958 0338 00       		.byte	0
 19959 0339 02       		.uleb128 0x2
 19960 033a 18       		.uleb128 0x18
 19961 033b 9142     		.uleb128 0x2111
 19962 033d 18       		.uleb128 0x18
 19963 033e 00       		.byte	0
 19964 033f 00       		.byte	0
 19965 0340 41       		.uleb128 0x41
 19966 0341 2E       		.uleb128 0x2e
 19967 0342 00       		.byte	0
 19968 0343 3F       		.uleb128 0x3f
 19969 0344 19       		.uleb128 0x19
 19970 0345 3C       		.uleb128 0x3c
 19971 0346 19       		.uleb128 0x19
 19972 0347 6E       		.uleb128 0x6e
 19973 0348 0E       		.uleb128 0xe
 19974 0349 03       		.uleb128 0x3
 19975 034a 0E       		.uleb128 0xe
 19976 034b 3A       		.uleb128 0x3a
 19977 034c 0B       		.uleb128 0xb
 19978 034d 3B       		.uleb128 0x3b
 19979 034e 0B       		.uleb128 0xb
 19980 034f 00       		.byte	0
 19981 0350 00       		.byte	0
 19982 0351 42       		.uleb128 0x42
ARM GAS  /var/folders/bw/wdbp2_bd0pn7gl5ybd33xbb80000gn/T//ccZ5cvgj.s 			page 357


 19983 0352 2E       		.uleb128 0x2e
 19984 0353 00       		.byte	0
 19985 0354 3F       		.uleb128 0x3f
 19986 0355 19       		.uleb128 0x19
 19987 0356 3C       		.uleb128 0x3c
 19988 0357 19       		.uleb128 0x19
 19989 0358 6E       		.uleb128 0x6e
 19990 0359 0E       		.uleb128 0xe
 19991 035a 03       		.uleb128 0x3
 19992 035b 0E       		.uleb128 0xe
 19993 035c 3A       		.uleb128 0x3a
 19994 035d 0B       		.uleb128 0xb
 19995 035e 3B       		.uleb128 0x3b
 19996 035f 0B       		.uleb128 0xb
 19997 0360 6E       		.uleb128 0x6e
 19998 0361 0E       		.uleb128 0xe
 19999 0362 00       		.byte	0
 20000 0363 00       		.byte	0
 20001 0364 00       		.byte	0
 20002              		.section	.debug_loc,"",%progbits
 20003              	.Ldebug_loc0:
 20004              	.LLST0:
 20005 0000 68090000 		.4byte	.LVL104
 20006 0004 74090000 		.4byte	.LVL105
 20007 0008 0600     		.2byte	0x6
 20008 000a 03       		.byte	0x3
 20009 000b 00000000 		.4byte	accelero.13198
 20010 000f 9F       		.byte	0x9f
 20011 0010 74090000 		.4byte	.LVL105
 20012 0014 9C090000 		.4byte	.LVL106
 20013 0018 0600     		.2byte	0x6
 20014 001a 03       		.byte	0x3
 20015 001b 01000000 		.4byte	accelero.13198+1
 20016 001f 9F       		.byte	0x9f
 20017 0020 9C090000 		.4byte	.LVL106
 20018 0024 A0090000 		.4byte	.LVL107
 20019 0028 0600     		.2byte	0x6
 20020 002a 03       		.byte	0x3
 20021 002b 02000000 		.4byte	accelero.13198+2
 20022 002f 9F       		.byte	0x9f
 20023 0030 A0090000 		.4byte	.LVL107
 20024 0034 A2090000 		.4byte	.LVL108
 20025 0038 0600     		.2byte	0x6
 20026 003a 03       		.byte	0x3
 20027 003b 03000000 		.4byte	accelero.13198+3
 20028 003f 9F       		.byte	0x9f
 20029 0040 A2090000 		.4byte	.LVL108
 20030 0044 A4090000 		.4byte	.LVL109
 20031 0048 0600     		.2byte	0x6
 20032 004a 03       		.byte	0x3
 20033 004b 04000000 		.4byte	accelero.13198+4
 20034 004f 9F       		.byte	0x9f
 20035 0050 A4090000 		.4byte	.LVL109
 20036 0054 A6090000 		.4byte	.LVL110
 20037 0058 0600     		.2byte	0x6
 20038 005a 03       		.byte	0x3
 20039 005b 05000000 		.4byte	accelero.13198+5
ARM GAS  /var/folders/bw/wdbp2_bd0pn7gl5ybd33xbb80000gn/T//ccZ5cvgj.s 			page 358


 20040 005f 9F       		.byte	0x9f
 20041 0060 A6090000 		.4byte	.LVL110
 20042 0064 AE090000 		.4byte	.LVL111
 20043 0068 0600     		.2byte	0x6
 20044 006a 03       		.byte	0x3
 20045 006b 0B000000 		.4byte	accelero.13198+11
 20046 006f 9F       		.byte	0x9f
 20047 0070 00000000 		.4byte	0
 20048 0074 00000000 		.4byte	0
 20049              	.LLST1:
 20050 0078 10000000 		.4byte	.LVL0
 20051 007c C2000000 		.4byte	.LVL14
 20052 0080 0200     		.2byte	0x2
 20053 0082 30       		.byte	0x30
 20054 0083 9F       		.byte	0x9f
 20055 0084 DE000000 		.4byte	.LVL18
 20056 0088 0A010000 		.4byte	.LVL20
 20057 008c 0100     		.2byte	0x1
 20058 008e 56       		.byte	0x56
 20059 008f 0A010000 		.4byte	.LVL20
 20060 0093 62010000 		.4byte	.LVL27
 20061 0097 0200     		.2byte	0x2
 20062 0099 30       		.byte	0x30
 20063 009a 9F       		.byte	0x9f
 20064 009b 30020000 		.4byte	.LVL38
 20065 009f 5C020000 		.4byte	.LVL40
 20066 00a3 0100     		.2byte	0x1
 20067 00a5 56       		.byte	0x56
 20068 00a6 A0020000 		.4byte	.LVL43
 20069 00aa 2C040000 		.4byte	.LVL57
 20070 00ae 0100     		.2byte	0x1
 20071 00b0 56       		.byte	0x56
 20072 00b1 D0170000 		.4byte	.LVL348
 20073 00b5 EC170000 		.4byte	.LVL349
 20074 00b9 0100     		.2byte	0x1
 20075 00bb 56       		.byte	0x56
 20076 00bc E6180000 		.4byte	.LVL358
 20077 00c0 02190000 		.4byte	.LVL362
 20078 00c4 0100     		.2byte	0x1
 20079 00c6 56       		.byte	0x56
 20080 00c7 00000000 		.4byte	0
 20081 00cb 00000000 		.4byte	0
 20082              	.LLST2:
 20083 00cf 10000000 		.4byte	.LVL0
 20084 00d3 C2000000 		.4byte	.LVL14
 20085 00d7 0200     		.2byte	0x2
 20086 00d9 30       		.byte	0x30
 20087 00da 9F       		.byte	0x9f
 20088 00db E2000000 		.4byte	.LVL19
 20089 00df 0A010000 		.4byte	.LVL20
 20090 00e3 0100     		.2byte	0x1
 20091 00e5 50       		.byte	0x50
 20092 00e6 0A010000 		.4byte	.LVL20
 20093 00ea 62010000 		.4byte	.LVL27
 20094 00ee 0200     		.2byte	0x2
 20095 00f0 30       		.byte	0x30
 20096 00f1 9F       		.byte	0x9f
ARM GAS  /var/folders/bw/wdbp2_bd0pn7gl5ybd33xbb80000gn/T//ccZ5cvgj.s 			page 359


 20097 00f2 34020000 		.4byte	.LVL39
 20098 00f6 5C020000 		.4byte	.LVL40
 20099 00fa 0100     		.2byte	0x1
 20100 00fc 50       		.byte	0x50
 20101 00fd A0020000 		.4byte	.LVL43
 20102 0101 AE020000 		.4byte	.LVL44
 20103 0105 0100     		.2byte	0x1
 20104 0107 50       		.byte	0x50
 20105 0108 08030000 		.4byte	.LVL47
 20106 010c 78030000 		.4byte	.LVL48
 20107 0110 0100     		.2byte	0x1
 20108 0112 50       		.byte	0x50
 20109 0113 8A030000 		.4byte	.LVL50
 20110 0117 98030000 		.4byte	.LVL51
 20111 011b 0100     		.2byte	0x1
 20112 011d 50       		.byte	0x50
 20113 011e AA030000 		.4byte	.LVL54
 20114 0122 1A040000 		.4byte	.LVL55
 20115 0126 0100     		.2byte	0x1
 20116 0128 50       		.byte	0x50
 20117 0129 D0170000 		.4byte	.LVL348
 20118 012d EC170000 		.4byte	.LVL349
 20119 0131 0100     		.2byte	0x1
 20120 0133 50       		.byte	0x50
 20121 0134 E6180000 		.4byte	.LVL358
 20122 0138 E9180000 		.4byte	.LVL359-1
 20123 013c 0100     		.2byte	0x1
 20124 013e 50       		.byte	0x50
 20125 013f F4180000 		.4byte	.LVL360
 20126 0143 F7180000 		.4byte	.LVL361-1
 20127 0147 0100     		.2byte	0x1
 20128 0149 50       		.byte	0x50
 20129 014a 00000000 		.4byte	0
 20130 014e 00000000 		.4byte	0
 20131              	.LLST3:
 20132 0152 10000000 		.4byte	.LVL0
 20133 0156 C2000000 		.4byte	.LVL14
 20134 015a 0200     		.2byte	0x2
 20135 015c 30       		.byte	0x30
 20136 015d 9F       		.byte	0x9f
 20137 015e C2000000 		.4byte	.LVL14
 20138 0162 0A010000 		.4byte	.LVL20
 20139 0166 0100     		.2byte	0x1
 20140 0168 5B       		.byte	0x5b
 20141 0169 0A010000 		.4byte	.LVL20
 20142 016d 62010000 		.4byte	.LVL27
 20143 0171 0200     		.2byte	0x2
 20144 0173 30       		.byte	0x30
 20145 0174 9F       		.byte	0x9f
 20146 0175 62010000 		.4byte	.LVL27
 20147 0179 1C020000 		.4byte	.LVL34
 20148 017d 0100     		.2byte	0x1
 20149 017f 5B       		.byte	0x5b
 20150 0180 1E020000 		.4byte	.LVL35
 20151 0184 AE020000 		.4byte	.LVL44
 20152 0188 0100     		.2byte	0x1
 20153 018a 5B       		.byte	0x5b
ARM GAS  /var/folders/bw/wdbp2_bd0pn7gl5ybd33xbb80000gn/T//ccZ5cvgj.s 			page 360


 20154 018b AE020000 		.4byte	.LVL44
 20155 018f 08030000 		.4byte	.LVL47
 20156 0193 0100     		.2byte	0x1
 20157 0195 56       		.byte	0x56
 20158 0196 08030000 		.4byte	.LVL47
 20159 019a 98030000 		.4byte	.LVL51
 20160 019e 0100     		.2byte	0x1
 20161 01a0 5B       		.byte	0x5b
 20162 01a1 98030000 		.4byte	.LVL51
 20163 01a5 AA030000 		.4byte	.LVL54
 20164 01a9 0100     		.2byte	0x1
 20165 01ab 56       		.byte	0x56
 20166 01ac AA030000 		.4byte	.LVL54
 20167 01b0 3C040000 		.4byte	.LVL58
 20168 01b4 0100     		.2byte	0x1
 20169 01b6 5B       		.byte	0x5b
 20170 01b7 9C0B0000 		.4byte	.LVL131
 20171 01bb EC170000 		.4byte	.LVL349
 20172 01bf 0100     		.2byte	0x1
 20173 01c1 5B       		.byte	0x5b
 20174 01c2 E6180000 		.4byte	.LVL358
 20175 01c6 02190000 		.4byte	.LVL362
 20176 01ca 0100     		.2byte	0x1
 20177 01cc 5B       		.byte	0x5b
 20178 01cd 201A0000 		.4byte	.LVL373
 20179 01d1 621A0000 		.4byte	.LVL381
 20180 01d5 0100     		.2byte	0x1
 20181 01d7 5B       		.byte	0x5b
 20182 01d8 6E1A0000 		.4byte	.LVL383
 20183 01dc 58200000 		.4byte	.LFE259
 20184 01e0 0100     		.2byte	0x1
 20185 01e2 5B       		.byte	0x5b
 20186 01e3 00000000 		.4byte	0
 20187 01e7 00000000 		.4byte	0
 20188              	.LLST4:
 20189 01eb 10000000 		.4byte	.LVL0
 20190 01ef 20000000 		.4byte	.LVL3
 20191 01f3 0200     		.2byte	0x2
 20192 01f5 30       		.byte	0x30
 20193 01f6 9F       		.byte	0x9f
 20194 01f7 20000000 		.4byte	.LVL3
 20195 01fb B0000000 		.4byte	.LVL13
 20196 01ff 0200     		.2byte	0x2
 20197 0201 31       		.byte	0x31
 20198 0202 9F       		.byte	0x9f
 20199 0203 0A010000 		.4byte	.LVL20
 20200 0207 62010000 		.4byte	.LVL27
 20201 020b 0200     		.2byte	0x2
 20202 020d 30       		.byte	0x30
 20203 020e 9F       		.byte	0x9f
 20204 020f 00000000 		.4byte	0
 20205 0213 00000000 		.4byte	0
 20206              	.LLST5:
 20207 0217 10000000 		.4byte	.LVL0
 20208 021b C2000000 		.4byte	.LVL14
 20209 021f 0200     		.2byte	0x2
 20210 0221 30       		.byte	0x30
ARM GAS  /var/folders/bw/wdbp2_bd0pn7gl5ybd33xbb80000gn/T//ccZ5cvgj.s 			page 361


 20211 0222 9F       		.byte	0x9f
 20212 0223 0A010000 		.4byte	.LVL20
 20213 0227 62010000 		.4byte	.LVL27
 20214 022b 0200     		.2byte	0x2
 20215 022d 30       		.byte	0x30
 20216 022e 9F       		.byte	0x9f
 20217 022f 1A190000 		.4byte	.LVL364
 20218 0233 84190000 		.4byte	.LVL365
 20219 0237 0100     		.2byte	0x1
 20220 0239 50       		.byte	0x50
 20221 023a 00000000 		.4byte	0
 20222 023e 00000000 		.4byte	0
 20223              	.LLST7:
 20224 0242 9C0B0000 		.4byte	.LVL131
 20225 0246 AE0B0000 		.4byte	.LVL133
 20226 024a 0100     		.2byte	0x1
 20227 024c 54       		.byte	0x54
 20228 024d 00000000 		.4byte	0
 20229 0251 00000000 		.4byte	0
 20230              	.LLST6:
 20231 0255 60120000 		.4byte	.LVL242
 20232 0259 8A120000 		.4byte	.LVL249
 20233 025d 0200     		.2byte	0x2
 20234 025f 30       		.byte	0x30
 20235 0260 9F       		.byte	0x9f
 20236 0261 C61A0000 		.4byte	.LVL390
 20237 0265 F01A0000 		.4byte	.LVL397
 20238 0269 0200     		.2byte	0x2
 20239 026b 30       		.byte	0x30
 20240 026c 9F       		.byte	0x9f
 20241 026d 00000000 		.4byte	0
 20242 0271 00000000 		.4byte	0
 20243              		.section	.debug_aranges,"",%progbits
 20244 0000 1C000000 		.4byte	0x1c
 20245 0004 0200     		.2byte	0x2
 20246 0006 00000000 		.4byte	.Ldebug_info0
 20247 000a 04       		.byte	0x4
 20248 000b 00       		.byte	0
 20249 000c 0000     		.2byte	0
 20250 000e 0000     		.2byte	0
 20251 0010 00000000 		.4byte	.LFB259
 20252 0014 58200000 		.4byte	.LFE259-.LFB259
 20253 0018 00000000 		.4byte	0
 20254 001c 00000000 		.4byte	0
 20255              		.section	.debug_ranges,"",%progbits
 20256              	.Ldebug_ranges0:
 20257 0000 E0010000 		.4byte	.LBB2
 20258 0004 14020000 		.4byte	.LBE2
 20259 0008 940C0000 		.4byte	.LBB4
 20260 000c D0170000 		.4byte	.LBE4
 20261 0010 201A0000 		.4byte	.LBB5
 20262 0014 621A0000 		.4byte	.LBE5
 20263 0018 6E1A0000 		.4byte	.LBB6
 20264 001c 58200000 		.4byte	.LBE6
 20265 0020 00000000 		.4byte	0
 20266 0024 00000000 		.4byte	0
 20267 0028 00000000 		.4byte	.LFB259
ARM GAS  /var/folders/bw/wdbp2_bd0pn7gl5ybd33xbb80000gn/T//ccZ5cvgj.s 			page 362


 20268 002c 58200000 		.4byte	.LFE259
 20269 0030 00000000 		.4byte	0
 20270 0034 00000000 		.4byte	0
 20271              		.section	.debug_line,"",%progbits
 20272              	.Ldebug_line0:
 20273 0000 C9160000 		.section	.debug_str,"MS",%progbits,1
 20273      0200550D 
 20273      00000201 
 20273      FB0E0D00 
 20273      01010101 
 20274              	.LASF582:
 20275 0000 5553425F 		.ascii	"USB_STOP\000"
 20275      53544F50 
 20275      00
 20276              	.LASF195:
 20277 0009 706F7274 		.ascii	"port_intctx\000"
 20277      5F696E74 
 20277      63747800 
 20278              	.LASF204:
 20279 0015 63685F74 		.ascii	"ch_trace_buffer_t\000"
 20279      72616365 
 20279      5F627566 
 20279      6665725F 
 20279      7400
 20280              	.LASF237:
 20281 0027 63685F70 		.ascii	"ch_ptrsize\000"
 20281      74727369 
 20281      7A6500
 20282              	.LASF763:
 20283 0032 6D657373 		.ascii	"messagebus_watcher_s\000"
 20283      61676562 
 20283      75735F77 
 20283      61746368 
 20283      65725F73 
 20284              	.LASF518:
 20285 0047 6576656E 		.ascii	"event\000"
 20285      7400
 20286              	.LASF860:
 20287 004d 5F6D6272 		.ascii	"_mbrtowc_state\000"
 20287      746F7763 
 20287      5F737461 
 20287      746500
 20288              	.LASF911:
 20289 005c 53414E44 		.ascii	"SANDSTORMS\000"
 20289      53544F52 
 20289      4D5300
 20290              	.LASF368:
 20291 0067 43414E5F 		.ascii	"CAN_STARTING\000"
 20291      53544152 
 20291      54494E47 
 20291      00
 20292              	.LASF932:
 20293 0074 4C45445F 		.ascii	"LED_nbr\000"
 20293      6E627200 
 20294              	.LASF998:
 20295 007c 6765745A 		.ascii	"getZAxisGyro\000"
 20295      41786973 
ARM GAS  /var/folders/bw/wdbp2_bd0pn7gl5ybd33xbb80000gn/T//ccZ5cvgj.s 			page 363


 20295      4779726F 
 20295      00
 20296              	.LASF725:
 20297 0089 44434D49 		.ascii	"DCMI_ACTIVE_ONESHOT\000"
 20297      5F414354 
 20297      4956455F 
 20297      4F4E4553 
 20297      484F5400 
 20298              	.LASF32:
 20299 009d 6D73675F 		.ascii	"msg_t\000"
 20299      7400
 20300              	.LASF313:
 20301 00a3 61667268 		.ascii	"afrh\000"
 20301      00
 20302              	.LASF461:
 20303 00a8 4F504D4F 		.ascii	"OPMODE_SMBUS_DEVICE\000"
 20303      44455F53 
 20303      4D425553 
 20303      5F444556 
 20303      49434500 
 20304              	.LASF215:
 20305 00bc 6D5F6372 		.ascii	"m_crit_isr\000"
 20305      69745F69 
 20305      737200
 20306              	.LASF967:
 20307 00c7 655F6765 		.ascii	"e_get_steps_left\000"
 20307      745F7374 
 20307      6570735F 
 20307      6C656674 
 20307      00
 20308              	.LASF931:
 20309 00d8 706F7369 		.ascii	"positionl\000"
 20309      74696F6E 
 20309      6C00
 20310              	.LASF930:
 20311 00e2 706F7369 		.ascii	"positionr\000"
 20311      74696F6E 
 20311      7200
 20312              	.LASF954:
 20313 00ec 62617474 		.ascii	"battValue\000"
 20313      56616C75 
 20313      6500
 20314              	.LASF891:
 20315 00f6 76656374 		.ascii	"vect\000"
 20315      00
 20316              	.LASF641:
 20317 00fb 44494550 		.ascii	"DIEPTXF0\000"
 20317      54584630 
 20317      00
 20318              	.LASF717:
 20319 0104 55534244 		.ascii	"USBD1\000"
 20319      3100
 20320              	.LASF367:
 20321 010a 43414E5F 		.ascii	"CAN_STOP\000"
 20321      53544F50 
 20321      00
 20322              	.LASF250:
ARM GAS  /var/folders/bw/wdbp2_bd0pn7gl5ybd33xbb80000gn/T//ccZ5cvgj.s 			page 364


 20323 0113 63665F6F 		.ascii	"cf_off_time\000"
 20323      66665F74 
 20323      696D6500 
 20324              	.LASF91:
 20325 011f 63685F73 		.ascii	"ch_system_t\000"
 20325      79737465 
 20325      6D5F7400 
 20326              	.LASF1:
 20327 012b 5F5F7569 		.ascii	"__uint8_t\000"
 20327      6E74385F 
 20327      7400
 20328              	.LASF221:
 20329 0135 77747365 		.ascii	"wtsemp\000"
 20329      6D7000
 20330              	.LASF915:
 20331 013c 4D4C5F53 		.ascii	"ML_SIMPLE_PLAY\000"
 20331      494D504C 
 20331      455F504C 
 20331      415900
 20332              	.LASF297:
 20333 014b 5F426F6F 		.ascii	"_Bool\000"
 20333      6C00
 20334              	.LASF409:
 20335 0151 64617461 		.ascii	"datamode\000"
 20335      6D6F6465 
 20335      00
 20336              	.LASF477:
 20337 015a 646D6172 		.ascii	"dmarx\000"
 20337      7800
 20338              	.LASF482:
 20339 0160 4932535F 		.ascii	"I2S_READY\000"
 20339      52454144 
 20339      5900
 20340              	.LASF793:
 20341 016a 5F617465 		.ascii	"_atexit\000"
 20341      78697400 
 20342              	.LASF994:
 20343 0172 655F7561 		.ascii	"e_uart2_sending\000"
 20343      7274325F 
 20343      73656E64 
 20343      696E6700 
 20344              	.LASF1011:
 20345 0182 655F7265 		.ascii	"e_read_acc_spheric\000"
 20345      61645F61 
 20345      63635F73 
 20345      70686572 
 20345      696300
 20346              	.LASF971:
 20347 0195 655F6765 		.ascii	"e_get_ambient_light\000"
 20347      745F616D 
 20347      6269656E 
 20347      745F6C69 
 20347      67687400 
 20348              	.LASF875:
 20349 01a9 6368616E 		.ascii	"changed_cnt\000"
 20349      6765645F 
 20349      636E7400 
ARM GAS  /var/folders/bw/wdbp2_bd0pn7gl5ybd33xbb80000gn/T//ccZ5cvgj.s 			page 365


 20350              	.LASF872:
 20351 01b5 7375626F 		.ascii	"suboptarg\000"
 20351      70746172 
 20351      6700
 20352              	.LASF357:
 20353 01bf 73717231 		.ascii	"sqr1\000"
 20353      00
 20354              	.LASF760:
 20355 01c4 7075626C 		.ascii	"published\000"
 20355      69736865 
 20355      6400
 20356              	.LASF284:
 20357 01ce 424C4B5F 		.ascii	"BLK_UNINIT\000"
 20357      554E494E 
 20357      495400
 20358              	.LASF489:
 20359 01d9 72785F62 		.ascii	"rx_buffer\000"
 20359      75666665 
 20359      7200
 20360              	.LASF473:
 20361 01e3 6572726F 		.ascii	"errors\000"
 20361      727300
 20362              	.LASF208:
 20363 01ea 776F7273 		.ascii	"worst\000"
 20363      7400
 20364              	.LASF84:
 20365 01f0 76745F73 		.ascii	"vt_systime\000"
 20365      79737469 
 20365      6D6500
 20366              	.LASF150:
 20367 01fb 444F5231 		.ascii	"DOR1\000"
 20367      00
 20368              	.LASF151:
 20369 0200 444F5232 		.ascii	"DOR2\000"
 20369      00
 20370              	.LASF488:
 20371 0205 74785F62 		.ascii	"tx_buffer\000"
 20371      75666665 
 20371      7200
 20372              	.LASF783:
 20373 020f 5F5F746D 		.ascii	"__tm_mon\000"
 20373      5F6D6F6E 
 20373      00
 20374              	.LASF791:
 20375 0218 5F666E74 		.ascii	"_fntypes\000"
 20375      79706573 
 20375      00
 20376              	.LASF230:
 20377 0221 6D5F6E65 		.ascii	"m_next\000"
 20377      787400
 20378              	.LASF317:
 20379 0228 50434461 		.ascii	"PCData\000"
 20379      746100
 20380              	.LASF821:
 20381 022f 5F696E63 		.ascii	"_inc\000"
 20381      00
 20382              	.LASF794:
ARM GAS  /var/folders/bw/wdbp2_bd0pn7gl5ybd33xbb80000gn/T//ccZ5cvgj.s 			page 366


 20383 0234 5F696E64 		.ascii	"_ind\000"
 20383      00
 20384              	.LASF180:
 20385 0239 4D41534B 		.ascii	"MASK\000"
 20385      00
 20386              	.LASF342:
 20387 023e 73616D70 		.ascii	"samples\000"
 20387      6C657300 
 20388              	.LASF645:
 20389 0246 47434346 		.ascii	"GCCFG\000"
 20389      4700
 20390              	.LASF900:
 20391 024c 57455F41 		.ascii	"WE_ARE_THE_CHAMPIONS\000"
 20391      52455F54 
 20391      48455F43 
 20391      48414D50 
 20391      494F4E53 
 20392              	.LASF438:
 20393 0261 42445452 		.ascii	"BDTR\000"
 20393      00
 20394              	.LASF391:
 20395 0266 7265676D 		.ascii	"regmask\000"
 20395      61736B00 
 20396              	.LASF944:
 20397 026e 63616D5F 		.ascii	"cam_zoom\000"
 20397      7A6F6F6D 
 20397      00
 20398              	.LASF471:
 20399 0277 49324343 		.ascii	"I2CConfig\000"
 20399      6F6E6669 
 20399      6700
 20400              	.LASF19:
 20401 0281 75696E74 		.ascii	"uint16_t\000"
 20401      31365F74 
 20401      00
 20402              	.LASF478:
 20403 028a 646D6174 		.ascii	"dmatx\000"
 20403      7800
 20404              	.LASF715:
 20405 0290 736F665F 		.ascii	"sof_cb\000"
 20405      636200
 20406              	.LASF414:
 20407 0297 4558545F 		.ascii	"EXT_ACTIVE\000"
 20407      41435449 
 20407      564500
 20408              	.LASF800:
 20409 02a2 5F666C61 		.ascii	"_flags\000"
 20409      677300
 20410              	.LASF762:
 20411 02a9 6E657874 		.ascii	"next\000"
 20411      00
 20412              	.LASF310:
 20413 02ae 6F737065 		.ascii	"ospeedr\000"
 20413      65647200 
 20414              	.LASF1007:
 20415 02b6 655F6163 		.ascii	"e_acc_calibr\000"
 20415      635F6361 
ARM GAS  /var/folders/bw/wdbp2_bd0pn7gl5ybd33xbb80000gn/T//ccZ5cvgj.s 			page 367


 20415      6C696272 
 20415      00
 20416              	.LASF648:
 20417 02c3 44494550 		.ascii	"DIEPTXF\000"
 20417      54584600 
 20418              	.LASF256:
 20419 02cb 656C5F6E 		.ascii	"el_next\000"
 20419      65787400 
 20420              	.LASF921:
 20421 02d3 696E636C 		.ascii	"inclination\000"
 20421      696E6174 
 20421      696F6E00 
 20422              	.LASF337:
 20423 02df 4144435F 		.ascii	"ADC_ERR_OVERFLOW\000"
 20423      4552525F 
 20423      4F564552 
 20423      464C4F57 
 20423      00
 20424              	.LASF831:
 20425 02f0 5F637674 		.ascii	"_cvtlen\000"
 20425      6C656E00 
 20426              	.LASF920:
 20427 02f8 6F726965 		.ascii	"orientation\000"
 20427      6E746174 
 20427      696F6E00 
 20428              	.LASF89:
 20429 0304 6C6F636B 		.ascii	"lock_cnt\000"
 20429      5F636E74 
 20429      00
 20430              	.LASF65:
 20431 030d 63685F74 		.ascii	"ch_threads_queue\000"
 20431      68726561 
 20431      64735F71 
 20431      75657565 
 20431      00
 20432              	.LASF894:
 20433 031e 5F5F6664 		.ascii	"__fdlibm_svid\000"
 20433      6C69626D 
 20433      5F737669 
 20433      6400
 20434              	.LASF835:
 20435 032c 5F736967 		.ascii	"_sig_func\000"
 20435      5F66756E 
 20435      6300
 20436              	.LASF43:
 20437 0336 705F6E65 		.ascii	"p_newer\000"
 20437      77657200 
 20438              	.LASF658:
 20439 033e 48505254 		.ascii	"HPRT\000"
 20439      00
 20440              	.LASF995:
 20441 0343 655F696E 		.ascii	"e_init_sound\000"
 20441      69745F73 
 20441      6F756E64 
 20441      00
 20442              	.LASF612:
 20443 0350 4843494E 		.ascii	"HCINT\000"
ARM GAS  /var/folders/bw/wdbp2_bd0pn7gl5ybd33xbb80000gn/T//ccZ5cvgj.s 			page 368


 20443      5400
 20444              	.LASF100:
 20445 0356 534D5052 		.ascii	"SMPR1\000"
 20445      3100
 20446              	.LASF101:
 20447 035c 534D5052 		.ascii	"SMPR2\000"
 20447      3200
 20448              	.LASF247:
 20449 0362 63665F6F 		.ascii	"cf_off_flags\000"
 20449      66665F66 
 20449      6C616773 
 20449      00
 20450              	.LASF813:
 20451 036f 5F6C6F63 		.ascii	"_lock\000"
 20451      6B00
 20452              	.LASF809:
 20453 0375 5F6E6275 		.ascii	"_nbuf\000"
 20453      6600
 20454              	.LASF551:
 20455 037b 5350495F 		.ascii	"SPI_STOP\000"
 20455      53544F50 
 20455      00
 20456              	.LASF505:
 20457 0384 70776D63 		.ascii	"pwmchnmsk_t\000"
 20457      686E6D73 
 20457      6B5F7400 
 20458              	.LASF899:
 20459 0390 494D504F 		.ascii	"IMPOSSIBLE_MISSION\000"
 20459      53534942 
 20459      4C455F4D 
 20459      49535349 
 20459      4F4E00
 20460              	.LASF316:
 20461 03a3 50424461 		.ascii	"PBData\000"
 20461      746100
 20462              	.LASF235:
 20463 03aa 63685F73 		.ascii	"ch_size\000"
 20463      697A6500 
 20464              	.LASF722:
 20465 03b2 44434D49 		.ascii	"DCMI_STOP\000"
 20465      5F53544F 
 20465      5000
 20466              	.LASF654:
 20467 03bc 48505458 		.ascii	"HPTXSTS\000"
 20467      53545300 
 20468              	.LASF309:
 20469 03c4 6F747970 		.ascii	"otyper\000"
 20469      657200
 20470              	.LASF300:
 20471 03cb 4F545950 		.ascii	"OTYPER\000"
 20471      455200
 20472              	.LASF393:
 20473 03d2 64616370 		.ascii	"dacparams_t\000"
 20473      6172616D 
 20473      735F7400 
 20474              	.LASF529:
 20475 03de 5344435F 		.ascii	"SDC_MODE_1BIT\000"
ARM GAS  /var/folders/bw/wdbp2_bd0pn7gl5ybd33xbb80000gn/T//ccZ5cvgj.s 			page 369


 20475      4D4F4445 
 20475      5F314249 
 20475      5400
 20476              	.LASF610:
 20477 03ec 48434348 		.ascii	"HCCHAR\000"
 20477      415200
 20478              	.LASF980:
 20479 03f3 655F6361 		.ascii	"e_calibrate_ir\000"
 20479      6C696272 
 20479      6174655F 
 20479      697200
 20480              	.LASF790:
 20481 0402 5F64736F 		.ascii	"_dso_handle\000"
 20481      5F68616E 
 20481      646C6500 
 20482              	.LASF455:
 20483 040e 4932435F 		.ascii	"I2C_ACTIVE_RX\000"
 20483      41435449 
 20483      56455F52 
 20483      5800
 20484              	.LASF38:
 20485 041c 74687265 		.ascii	"thread_t\000"
 20485      61645F74 
 20485      00
 20486              	.LASF258:
 20487 0425 656C5F65 		.ascii	"el_events\000"
 20487      76656E74 
 20487      7300
 20488              	.LASF498:
 20489 042f 70776D73 		.ascii	"pwmstate_t\000"
 20489      74617465 
 20489      5F7400
 20490              	.LASF378:
 20491 043a 736C6565 		.ascii	"sleep_event\000"
 20491      705F6576 
 20491      656E7400 
 20492              	.LASF83:
 20493 0446 63685F76 		.ascii	"ch_virtual_timers_list\000"
 20493      69727475 
 20493      616C5F74 
 20493      696D6572 
 20493      735F6C69 
 20494              	.LASF281:
 20495 045d 76656374 		.ascii	"vector\000"
 20495      6F7200
 20496              	.LASF20:
 20497 0464 696E7433 		.ascii	"int32_t\000"
 20497      325F7400 
 20498              	.LASF855:
 20499 046c 5F776374 		.ascii	"_wctomb_state\000"
 20499      6F6D625F 
 20499      73746174 
 20499      6500
 20500              	.LASF976:
 20501 047a 655F7365 		.ascii	"e_set_led\000"
 20501      745F6C65 
 20501      6400
ARM GAS  /var/folders/bw/wdbp2_bd0pn7gl5ybd33xbb80000gn/T//ccZ5cvgj.s 			page 370


 20502              	.LASF469:
 20503 0484 636C6F63 		.ascii	"clock_speed\000"
 20503      6B5F7370 
 20503      65656400 
 20504              	.LASF37:
 20505 0490 73797374 		.ascii	"systime_t\000"
 20505      696D655F 
 20505      7400
 20506              	.LASF411:
 20507 049a 44414344 		.ascii	"DACD2\000"
 20507      3200
 20508              	.LASF380:
 20509 04a0 43414E44 		.ascii	"CANDriver\000"
 20509      72697665 
 20509      7200
 20510              	.LASF245:
 20511 04aa 63665F6F 		.ascii	"cf_off_stklimit\000"
 20511      66665F73 
 20511      746B6C69 
 20511      6D697400 
 20512              	.LASF161:
 20513 04ba 4D304152 		.ascii	"M0AR\000"
 20513      00
 20514              	.LASF984:
 20515 04bf 655F6765 		.ascii	"e_get_data\000"
 20515      745F6461 
 20515      746100
 20516              	.LASF617:
 20517 04ca 72657376 		.ascii	"resvd1c\000"
 20517      64316300 
 20518              	.LASF459:
 20519 04d2 69326366 		.ascii	"i2cflags_t\000"
 20519      6C616773 
 20519      5F7400
 20520              	.LASF655:
 20521 04dd 4841494E 		.ascii	"HAINT\000"
 20521      5400
 20522              	.LASF136:
 20523 04e3 46413152 		.ascii	"FA1R\000"
 20523      00
 20524              	.LASF1020:
 20525 04e8 6D656D63 		.ascii	"memcpy\000"
 20525      707900
 20526              	.LASF159:
 20527 04ef 44434D49 		.ascii	"DCMI_TypeDef\000"
 20527      5F547970 
 20527      65446566 
 20527      00
 20528              	.LASF652:
 20529 04fc 48464E55 		.ascii	"HFNUM\000"
 20529      4D00
 20530              	.LASF925:
 20531 0502 655F616D 		.ascii	"e_ambient_ir\000"
 20531      6269656E 
 20531      745F6972 
 20531      00
 20532              	.LASF876:
ARM GAS  /var/folders/bw/wdbp2_bd0pn7gl5ybd33xbb80000gn/T//ccZ5cvgj.s 			page 371


 20533 050f 70617265 		.ascii	"parent\000"
 20533      6E7400
 20534              	.LASF274:
 20535 0516 716E6F74 		.ascii	"qnotify_t\000"
 20535      6966795F 
 20535      7400
 20536              	.LASF333:
 20537 0520 61646373 		.ascii	"adcstate_t\000"
 20537      74617465 
 20537      5F7400
 20538              	.LASF770:
 20539 052b 7075626C 		.ascii	"published_topic\000"
 20539      69736865 
 20539      645F746F 
 20539      70696300 
 20540              	.LASF737:
 20541 053b 44434D49 		.ascii	"DCMID\000"
 20541      4400
 20542              	.LASF279:
 20543 0541 69736869 		.ascii	"ishift\000"
 20543      667400
 20544              	.LASF966:
 20545 0548 655F6932 		.ascii	"e_i2cp_write\000"
 20545      63705F77 
 20545      72697465 
 20545      00
 20546              	.LASF428:
 20547 0555 4750545F 		.ascii	"GPT_ONESHOT\000"
 20547      4F4E4553 
 20547      484F5400 
 20548              	.LASF269:
 20549 0561 715F746F 		.ascii	"q_top\000"
 20549      7000
 20550              	.LASF802:
 20551 0567 5F6C6266 		.ascii	"_lbfsize\000"
 20551      73697A65 
 20551      00
 20552              	.LASF603:
 20553 0570 75645F73 		.ascii	"ud_string\000"
 20553      7472696E 
 20553      6700
 20554              	.LASF472:
 20555 057a 49324344 		.ascii	"I2CDriver\000"
 20555      72697665 
 20555      7200
 20556              	.LASF454:
 20557 0584 4932435F 		.ascii	"I2C_ACTIVE_TX\000"
 20557      41435449 
 20557      56455F54 
 20557      5800
 20558              	.LASF524:
 20559 0592 72656164 		.ascii	"read\000"
 20559      00
 20560              	.LASF460:
 20561 0597 4F504D4F 		.ascii	"OPMODE_I2C\000"
 20561      44455F49 
 20561      324300
ARM GAS  /var/folders/bw/wdbp2_bd0pn7gl5ybd33xbb80000gn/T//ccZ5cvgj.s 			page 372


 20562              	.LASF664:
 20563 05a2 72657376 		.ascii	"resvd80C\000"
 20563      64383043 
 20563      00
 20564              	.LASF712:
 20565 05ab 6576656E 		.ascii	"event_cb\000"
 20565      745F6362 
 20565      00
 20566              	.LASF833:
 20567 05b4 5F6E6577 		.ascii	"_new\000"
 20567      00
 20568              	.LASF631:
 20569 05b9 474F5447 		.ascii	"GOTGCTL\000"
 20569      43544C00 
 20570              	.LASF606:
 20571 05c1 75736265 		.ascii	"usbepcallback_t\000"
 20571      7063616C 
 20571      6C626163 
 20571      6B5F7400 
 20572              	.LASF458:
 20573 05d1 69326361 		.ascii	"i2caddr_t\000"
 20573      6464725F 
 20573      7400
 20574              	.LASF94:
 20575 05db 76746C69 		.ascii	"vtlist\000"
 20575      737400
 20576              	.LASF166:
 20577 05e2 54524953 		.ascii	"TRISE\000"
 20577      4500
 20578              	.LASF670:
 20579 05e8 72657376 		.ascii	"resvd824\000"
 20579      64383234 
 20579      00
 20580              	.LASF52:
 20581 05f1 705F7761 		.ascii	"p_waiting\000"
 20581      6974696E 
 20581      6700
 20582              	.LASF216:
 20583 05fb 6B65726E 		.ascii	"kernel_stats_t\000"
 20583      656C5F73 
 20583      74617473 
 20583      5F7400
 20584              	.LASF950:
 20585 060a 69725F61 		.ascii	"ir_address\000"
 20585      64647265 
 20585      737300
 20586              	.LASF266:
 20587 0615 715F7761 		.ascii	"q_waiting\000"
 20587      6974696E 
 20587      6700
 20588              	.LASF118:
 20589 061f 43414E5F 		.ascii	"CAN_TxMailBox_TypeDef\000"
 20589      54784D61 
 20589      696C426F 
 20589      785F5479 
 20589      70654465 
 20590              	.LASF93:
ARM GAS  /var/folders/bw/wdbp2_bd0pn7gl5ybd33xbb80000gn/T//ccZ5cvgj.s 			page 373


 20591 0635 726C6973 		.ascii	"rlist\000"
 20591      7400
 20592              	.LASF61:
 20593 063b 74687265 		.ascii	"threads_list_t\000"
 20593      6164735F 
 20593      6C697374 
 20593      5F7400
 20594              	.LASF241:
 20595 064a 63665F6F 		.ascii	"cf_off_ctx\000"
 20595      66665F63 
 20595      747800
 20596              	.LASF275:
 20597 0655 696E7075 		.ascii	"input_queue_t\000"
 20597      745F7175 
 20597      6575655F 
 20597      7400
 20598              	.LASF360:
 20599 0663 41444343 		.ascii	"ADCConversionGroup\000"
 20599      6F6E7665 
 20599      7273696F 
 20599      6E47726F 
 20599      757000
 20600              	.LASF949:
 20601 0676 69725F6D 		.ascii	"ir_move\000"
 20601      6F766500 
 20602              	.LASF663:
 20603 067e 44535453 		.ascii	"DSTS\000"
 20603      00
 20604              	.LASF868:
 20605 0683 5F5F6C6F 		.ascii	"__lock\000"
 20605      636B00
 20606              	.LASF464:
 20607 068a 5354445F 		.ascii	"STD_DUTY_CYCLE\000"
 20607      44555459 
 20607      5F435943 
 20607      4C4500
 20608              	.LASF369:
 20609 0699 43414E5F 		.ascii	"CAN_READY\000"
 20609      52454144 
 20609      5900
 20610              	.LASF243:
 20611 06a3 63665F6F 		.ascii	"cf_off_older\000"
 20611      66665F6F 
 20611      6C646572 
 20611      00
 20612              	.LASF26:
 20613 06b0 72747469 		.ascii	"rttime_t\000"
 20613      6D655F74 
 20613      00
 20614              	.LASF423:
 20615 06b9 45585444 		.ascii	"EXTD1\000"
 20615      3100
 20616              	.LASF697:
 20617 06bf 72787175 		.ascii	"rxqueued\000"
 20617      65756564 
 20617      00
 20618              	.LASF371:
ARM GAS  /var/folders/bw/wdbp2_bd0pn7gl5ybd33xbb80000gn/T//ccZ5cvgj.s 			page 374


 20619 06c8 63616E73 		.ascii	"canstate_t\000"
 20619      74617465 
 20619      5F7400
 20620              	.LASF138:
 20621 06d3 7346696C 		.ascii	"sFilterRegister\000"
 20621      74657252 
 20621      65676973 
 20621      74657200 
 20622              	.LASF837:
 20623 06e3 5F5F7366 		.ascii	"__sf\000"
 20623      00
 20624              	.LASF927:
 20625 06e8 77616974 		.ascii	"wait_cam\000"
 20625      5F63616D 
 20625      00
 20626              	.LASF669:
 20627 06f1 72657376 		.ascii	"resvd820\000"
 20627      64383230 
 20627      00
 20628              	.LASF172:
 20629 06fa 52455350 		.ascii	"RESP1\000"
 20629      3100
 20630              	.LASF173:
 20631 0700 52455350 		.ascii	"RESP2\000"
 20631      3200
 20632              	.LASF174:
 20633 0706 52455350 		.ascii	"RESP3\000"
 20633      3300
 20634              	.LASF175:
 20635 070c 52455350 		.ascii	"RESP4\000"
 20635      3400
 20636              	.LASF854:
 20637 0712 5F6D6274 		.ascii	"_mbtowc_state\000"
 20637      6F77635F 
 20637      73746174 
 20637      6500
 20638              	.LASF451:
 20639 0720 4932435F 		.ascii	"I2C_UNINIT\000"
 20639      554E494E 
 20639      495400
 20640              	.LASF608:
 20641 072b 75736272 		.ascii	"usbreqhandler_t\000"
 20641      65716861 
 20641      6E646C65 
 20641      725F7400 
 20642              	.LASF331:
 20643 073b 4144435F 		.ascii	"ADC_COMPLETE\000"
 20643      434F4D50 
 20643      4C455445 
 20643      00
 20644              	.LASF447:
 20645 0748 47505443 		.ascii	"GPTConfig\000"
 20645      6F6E6669 
 20645      6700
 20646              	.LASF513:
 20647 0752 53445F55 		.ascii	"SD_UNINIT\000"
 20647      4E494E49 
ARM GAS  /var/folders/bw/wdbp2_bd0pn7gl5ybd33xbb80000gn/T//ccZ5cvgj.s 			page 375


 20647      5400
 20648              	.LASF721:
 20649 075c 44434D49 		.ascii	"DCMI_UNINIT\000"
 20649      5F554E49 
 20649      4E495400 
 20650              	.LASF31:
 20651 0768 74707269 		.ascii	"tprio_t\000"
 20651      6F5F7400 
 20652              	.LASF212:
 20653 0770 6E5F6972 		.ascii	"n_irq\000"
 20653      7100
 20654              	.LASF758:
 20655 0776 636F6E64 		.ascii	"condvar\000"
 20655      76617200 
 20656              	.LASF492:
 20657 077e 69327370 		.ascii	"i2spr\000"
 20657      7200
 20658              	.LASF673:
 20659 0784 72657376 		.ascii	"resvd830\000"
 20659      64383330 
 20659      00
 20660              	.LASF453:
 20661 078d 4932435F 		.ascii	"I2C_READY\000"
 20661      52454144 
 20661      5900
 20662              	.LASF675:
 20663 0797 72657376 		.ascii	"resvd838\000"
 20663      64383338 
 20663      00
 20664              	.LASF467:
 20665 07a0 69326364 		.ascii	"i2cdutycycle_t\000"
 20665      75747963 
 20665      79636C65 
 20665      5F7400
 20666              	.LASF749:
 20667 07af 6F707461 		.ascii	"optarg\000"
 20667      726700
 20668              	.LASF676:
 20669 07b6 72657376 		.ascii	"resvd83C\000"
 20669      64383343 
 20669      00
 20670              	.LASF986:
 20671 07bf 655F706F 		.ascii	"e_poxxxx_config_cam\000"
 20671      78787878 
 20671      5F636F6E 
 20671      6669675F 
 20671      63616D00 
 20672              	.LASF345:
 20673 07d3 74687265 		.ascii	"thread\000"
 20673      616400
 20674              	.LASF390:
 20675 07da 72656773 		.ascii	"regshift\000"
 20675      68696674 
 20675      00
 20676              	.LASF571:
 20677 07e3 73657475 		.ascii	"setup\000"
 20677      7000
ARM GAS  /var/folders/bw/wdbp2_bd0pn7gl5ybd33xbb80000gn/T//ccZ5cvgj.s 			page 376


 20678              	.LASF550:
 20679 07e9 5350495F 		.ascii	"SPI_UNINIT\000"
 20679      554E494E 
 20679      495400
 20680              	.LASF624:
 20681 07f4 44545846 		.ascii	"DTXFSTS\000"
 20681      53545300 
 20682              	.LASF294:
 20683 07fc 626C6B5F 		.ascii	"blk_size\000"
 20683      73697A65 
 20683      00
 20684              	.LASF726:
 20685 0805 44434D49 		.ascii	"DCMI_COMPLETE\000"
 20685      5F434F4D 
 20685      504C4554 
 20685      4500
 20686              	.LASF565:
 20687 0813 696E5F70 		.ascii	"in_params\000"
 20687      6172616D 
 20687      7300
 20688              	.LASF437:
 20689 081d 43434552 		.ascii	"CCER\000"
 20689      00
 20690              	.LASF188:
 20691 0822 49325350 		.ascii	"I2SPR\000"
 20691      5200
 20692              	.LASF495:
 20693 0828 50574D5F 		.ascii	"PWM_UNINIT\000"
 20693      554E494E 
 20693      495400
 20694              	.LASF207:
 20695 0833 62657374 		.ascii	"best\000"
 20695      00
 20696              	.LASF883:
 20697 0838 74797065 		.ascii	"type\000"
 20697      00
 20698              	.LASF963:
 20699 083d 655F6932 		.ascii	"e_i2cp_disable\000"
 20699      63705F64 
 20699      69736162 
 20699      6C6500
 20700              	.LASF633:
 20701 084c 47414842 		.ascii	"GAHBCFG\000"
 20701      43464700 
 20702              	.LASF400:
 20703 0854 64616363 		.ascii	"daccallback_t\000"
 20703      616C6C62 
 20703      61636B5F 
 20703      7400
 20704              	.LASF738:
 20705 0862 5F4C4F43 		.ascii	"_LOCK_T\000"
 20705      4B5F5400 
 20706              	.LASF677:
 20707 086a 72657376 		.ascii	"resvd840\000"
 20707      64383430 
 20707      00
 20708              	.LASF904:
ARM GAS  /var/folders/bw/wdbp2_bd0pn7gl5ybd33xbb80000gn/T//ccZ5cvgj.s 			page 377


 20709 0873 4D415249 		.ascii	"MARIO_START\000"
 20709      4F5F5354 
 20709      41525400 
 20710              	.LASF184:
 20711 087f 43524350 		.ascii	"CRCPR\000"
 20711      5200
 20712              	.LASF289:
 20713 0885 424C4B5F 		.ascii	"BLK_READY\000"
 20713      52454144 
 20713      5900
 20714              	.LASF4:
 20715 088f 5F5F696E 		.ascii	"__int16_t\000"
 20715      7431365F 
 20715      7400
 20716              	.LASF6:
 20717 0899 5F5F7569 		.ascii	"__uint16_t\000"
 20717      6E743136 
 20717      5F7400
 20718              	.LASF427:
 20719 08a4 4750545F 		.ascii	"GPT_CONTINUOUS\000"
 20719      434F4E54 
 20719      494E554F 
 20719      555300
 20720              	.LASF691:
 20721 08b3 74787175 		.ascii	"txqueued\000"
 20721      65756564 
 20721      00
 20722              	.LASF54:
 20723 08bc 705F6D73 		.ascii	"p_msg\000"
 20723      6700
 20724              	.LASF846:
 20725 08c2 5F756E75 		.ascii	"_unused_rand\000"
 20725      7365645F 
 20725      72616E64 
 20725      00
 20726              	.LASF630:
 20727 08cf 73746D33 		.ascii	"stm32_otg_out_ep_t\000"
 20727      325F6F74 
 20727      675F6F75 
 20727      745F6570 
 20727      5F7400
 20728              	.LASF639:
 20729 08e2 47525853 		.ascii	"GRXSTSP\000"
 20729      54535000 
 20730              	.LASF638:
 20731 08ea 47525853 		.ascii	"GRXSTSR\000"
 20731      54535200 
 20732              	.LASF964:
 20733 08f2 73707269 		.ascii	"sprintf\000"
 20733      6E746600 
 20734              	.LASF218:
 20735 08fa 65786974 		.ascii	"exitcode\000"
 20735      636F6465 
 20735      00
 20736              	.LASF162:
 20737 0903 4D314152 		.ascii	"M1AR\000"
 20737      00
ARM GAS  /var/folders/bw/wdbp2_bd0pn7gl5ybd33xbb80000gn/T//ccZ5cvgj.s 			page 378


 20738              	.LASF578:
 20739 0908 77616974 		.ascii	"wait\000"
 20739      00
 20740              	.LASF163:
 20741 090d 444D415F 		.ascii	"DMA_Stream_TypeDef\000"
 20741      53747265 
 20741      616D5F54 
 20741      79706544 
 20741      656600
 20742              	.LASF585:
 20743 0920 5553425F 		.ascii	"USB_ACTIVE\000"
 20743      41435449 
 20743      564500
 20744              	.LASF753:
 20745 092b 6F707472 		.ascii	"optreset\000"
 20745      65736574 
 20745      00
 20746              	.LASF626:
 20747 0934 73746D33 		.ascii	"stm32_otg_in_ep_t\000"
 20747      325F6F74 
 20747      675F696E 
 20747      5F65705F 
 20747      7400
 20748              	.LASF699:
 20749 0946 7278636E 		.ascii	"rxcnt\000"
 20749      7400
 20750              	.LASF327:
 20751 094c 4144435F 		.ascii	"ADC_UNINIT\000"
 20751      554E494E 
 20751      495400
 20752              	.LASF475:
 20753 0957 7278646D 		.ascii	"rxdmamode\000"
 20753      616D6F64 
 20753      6500
 20754              	.LASF828:
 20755 0961 5F726573 		.ascii	"_result_k\000"
 20755      756C745F 
 20755      6B00
 20756              	.LASF419:
 20757 096b 6D6F6465 		.ascii	"mode\000"
 20757      00
 20758              	.LASF820:
 20759 0970 5F737464 		.ascii	"_stderr\000"
 20759      65727200 
 20760              	.LASF827:
 20761 0978 5F726573 		.ascii	"_result\000"
 20761      756C7400 
 20762              	.LASF231:
 20763 0980 6D5F636E 		.ascii	"m_cnt\000"
 20763      7400
 20764              	.LASF416:
 20765 0986 45585444 		.ascii	"EXTDriver\000"
 20765      72697665 
 20765      7200
 20766              	.LASF246:
 20767 0990 63665F6F 		.ascii	"cf_off_state\000"
 20767      66665F73 
ARM GAS  /var/folders/bw/wdbp2_bd0pn7gl5ybd33xbb80000gn/T//ccZ5cvgj.s 			page 379


 20767      74617465 
 20767      00
 20768              	.LASF487:
 20769 099d 69327363 		.ascii	"i2scallback_t\000"
 20769      616C6C62 
 20769      61636B5F 
 20769      7400
 20770              	.LASF559:
 20771 09ab 73737061 		.ascii	"sspad\000"
 20771      6400
 20772              	.LASF476:
 20773 09b1 7478646D 		.ascii	"txdmamode\000"
 20773      616D6F64 
 20773      6500
 20774              	.LASF888:
 20775 09bb 6275665F 		.ascii	"buf_dim\000"
 20775      64696D00 
 20776              	.LASF443:
 20777 09c3 67707466 		.ascii	"gptfreq_t\000"
 20777      7265715F 
 20777      7400
 20778              	.LASF953:
 20779 09cd 7573655F 		.ascii	"use_bt\000"
 20779      627400
 20780              	.LASF785:
 20781 09d4 5F5F746D 		.ascii	"__tm_wday\000"
 20781      5F776461 
 20781      7900
 20782              	.LASF896:
 20783 09de 5F5F6664 		.ascii	"__fdlibm_posix\000"
 20783      6C69626D 
 20783      5F706F73 
 20783      697800
 20784              	.LASF782:
 20785 09ed 5F5F746D 		.ascii	"__tm_mday\000"
 20785      5F6D6461 
 20785      7900
 20786              	.LASF684:
 20787 09f7 72785F66 		.ascii	"rx_fifo_size\000"
 20787      69666F5F 
 20787      73697A65 
 20787      00
 20788              	.LASF193:
 20789 0a04 73746B61 		.ascii	"stkalign_t\000"
 20789      6C69676E 
 20789      5F7400
 20790              	.LASF398:
 20791 0a0f 4441435F 		.ascii	"DAC_ERR_UNDERFLOW\000"
 20791      4552525F 
 20791      554E4445 
 20791      52464C4F 
 20791      5700
 20792              	.LASF379:
 20793 0a21 77616B65 		.ascii	"wakeup_event\000"
 20793      75705F65 
 20793      76656E74 
 20793      00
ARM GAS  /var/folders/bw/wdbp2_bd0pn7gl5ybd33xbb80000gn/T//ccZ5cvgj.s 			page 380


 20794              	.LASF78:
 20795 0a2e 76745F70 		.ascii	"vt_prev\000"
 20795      72657600 
 20796              	.LASF786:
 20797 0a36 5F5F746D 		.ascii	"__tm_yday\000"
 20797      5F796461 
 20797      7900
 20798              	.LASF353:
 20799 0a40 656E645F 		.ascii	"end_cb\000"
 20799      636200
 20800              	.LASF702:
 20801 0a47 73657475 		.ascii	"setup_cb\000"
 20801      705F6362 
 20801      00
 20802              	.LASF3:
 20803 0a50 756E7369 		.ascii	"unsigned char\000"
 20803      676E6564 
 20803      20636861 
 20803      7200
 20804              	.LASF819:
 20805 0a5e 5F737464 		.ascii	"_stdout\000"
 20805      6F757400 
 20806              	.LASF182:
 20807 0a66 4649464F 		.ascii	"FIFO\000"
 20807      00
 20808              	.LASF203:
 20809 0a6b 74625F62 		.ascii	"tb_buffer\000"
 20809      75666665 
 20809      7200
 20810              	.LASF373:
 20811 0a75 74787175 		.ascii	"txqueue\000"
 20811      65756500 
 20812              	.LASF153:
 20813 0a7d 52495352 		.ascii	"RISR\000"
 20813      00
 20814              	.LASF226:
 20815 0a82 735F636E 		.ascii	"s_cnt\000"
 20815      7400
 20816              	.LASF66:
 20817 0a88 72656164 		.ascii	"ready_list_t\000"
 20817      795F6C69 
 20817      73745F74 
 20817      00
 20818              	.LASF62:
 20819 0a95 63685F74 		.ascii	"ch_thread\000"
 20819      68726561 
 20819      6400
 20820              	.LASF462:
 20821 0a9f 4F504D4F 		.ascii	"OPMODE_SMBUS_HOST\000"
 20821      44455F53 
 20821      4D425553 
 20821      5F484F53 
 20821      5400
 20822              	.LASF965:
 20823 0ab1 73736361 		.ascii	"sscanf\000"
 20823      6E6600
 20824              	.LASF861:
ARM GAS  /var/folders/bw/wdbp2_bd0pn7gl5ybd33xbb80000gn/T//ccZ5cvgj.s 			page 381


 20825 0ab8 5F6D6273 		.ascii	"_mbsrtowcs_state\000"
 20825      72746F77 
 20825      63735F73 
 20825      74617465 
 20825      00
 20826              	.LASF580:
 20827 0ac9 75736265 		.ascii	"usbep_t\000"
 20827      705F7400 
 20828              	.LASF1002:
 20829 0ad1 655F696E 		.ascii	"e_init_motors\000"
 20829      69745F6D 
 20829      6F746F72 
 20829      7300
 20830              	.LASF777:
 20831 0adf 5F776473 		.ascii	"_wds\000"
 20831      00
 20832              	.LASF889:
 20833 0ae4 666C6F61 		.ascii	"float\000"
 20833      7400
 20834              	.LASF910:
 20835 0aea 53544152 		.ascii	"STARWARS\000"
 20835      57415253 
 20835      00
 20836              	.LASF412:
 20837 0af3 4558545F 		.ascii	"EXT_UNINIT\000"
 20837      554E494E 
 20837      495400
 20838              	.LASF370:
 20839 0afe 43414E5F 		.ascii	"CAN_SLEEP\000"
 20839      534C4545 
 20839      5000
 20840              	.LASF199:
 20841 0b08 73655F73 		.ascii	"se_state\000"
 20841      74617465 
 20841      00
 20842              	.LASF366:
 20843 0b11 43414E5F 		.ascii	"CAN_UNINIT\000"
 20843      554E494E 
 20843      495400
 20844              	.LASF549:
 20845 0b1c 53444344 		.ascii	"SDCD1\000"
 20845      3100
 20846              	.LASF85:
 20847 0b22 73797374 		.ascii	"system_debug_t\000"
 20847      656D5F64 
 20847      65627567 
 20847      5F7400
 20848              	.LASF143:
 20849 0b31 44485238 		.ascii	"DHR8R1\000"
 20849      523100
 20850              	.LASF146:
 20851 0b38 44485238 		.ascii	"DHR8R2\000"
 20851      523200
 20852              	.LASF434:
 20853 0b3f 44494552 		.ascii	"DIER\000"
 20853      00
 20854              	.LASF766:
ARM GAS  /var/folders/bw/wdbp2_bd0pn7gl5ybd33xbb80000gn/T//ccZ5cvgj.s 			page 382


 20855 0b44 68656164 		.ascii	"head\000"
 20855      00
 20856              	.LASF934:
 20857 0b49 61636378 		.ascii	"accx\000"
 20857      00
 20858              	.LASF935:
 20859 0b4e 61636379 		.ascii	"accy\000"
 20859      00
 20860              	.LASF42:
 20861 0b53 705F6374 		.ascii	"p_ctx\000"
 20861      7800
 20862              	.LASF81:
 20863 0b59 76745F70 		.ascii	"vt_par\000"
 20863      617200
 20864              	.LASF102:
 20865 0b60 4A4F4652 		.ascii	"JOFR1\000"
 20865      3100
 20866              	.LASF103:
 20867 0b66 4A4F4652 		.ascii	"JOFR2\000"
 20867      3200
 20868              	.LASF104:
 20869 0b6c 4A4F4652 		.ascii	"JOFR3\000"
 20869      3300
 20870              	.LASF105:
 20871 0b72 4A4F4652 		.ascii	"JOFR4\000"
 20871      3400
 20872              	.LASF901:
 20873 0b78 52555353 		.ascii	"RUSSIA\000"
 20873      494100
 20874              	.LASF73:
 20875 0b7f 725F6375 		.ascii	"r_current\000"
 20875      7272656E 
 20875      7400
 20876              	.LASF798:
 20877 0b89 5F73697A 		.ascii	"_size\000"
 20877      6500
 20878              	.LASF805:
 20879 0b8f 5F777269 		.ascii	"_write\000"
 20879      746500
 20880              	.LASF186:
 20881 0b96 54584352 		.ascii	"TXCRCR\000"
 20881      435200
 20882              	.LASF405:
 20883 0b9d 64616364 		.ascii	"dacdhrmode_t\000"
 20883      68726D6F 
 20883      64655F74 
 20883      00
 20884              	.LASF347:
 20885 0baa 646D6173 		.ascii	"dmastp\000"
 20885      747000
 20886              	.LASF757:
 20887 0bb1 6C6F636B 		.ascii	"lock\000"
 20887      00
 20888              	.LASF466:
 20889 0bb6 46415354 		.ascii	"FAST_DUTY_CYCLE_16_9\000"
 20889      5F445554 
 20889      595F4359 
ARM GAS  /var/folders/bw/wdbp2_bd0pn7gl5ybd33xbb80000gn/T//ccZ5cvgj.s 			page 383


 20889      434C455F 
 20889      31365F39 
 20890              	.LASF22:
 20891 0bcb 75696E74 		.ascii	"uint64_t\000"
 20891      36345F74 
 20891      00
 20892              	.LASF213:
 20893 0bd4 6E5F6374 		.ascii	"n_ctxswc\000"
 20893      78737763 
 20893      00
 20894              	.LASF945:
 20895 0bdd 63616D5F 		.ascii	"cam_size\000"
 20895      73697A65 
 20895      00
 20896              	.LASF252:
 20897 0be6 63685F64 		.ascii	"ch_debug\000"
 20897      65627567 
 20897      00
 20898              	.LASF408:
 20899 0bef 696E6974 		.ascii	"init\000"
 20899      00
 20900              	.LASF130:
 20901 0bf4 464D3152 		.ascii	"FM1R\000"
 20901      00
 20902              	.LASF780:
 20903 0bf9 5F5F746D 		.ascii	"__tm_min\000"
 20903      5F6D696E 
 20903      00
 20904              	.LASF324:
 20905 0c02 50414C43 		.ascii	"PALConfig\000"
 20905      6F6E6669 
 20905      6700
 20906              	.LASF693:
 20907 0c0c 7478636E 		.ascii	"txcnt\000"
 20907      7400
 20908              	.LASF877:
 20909 0c12 73756273 		.ascii	"subspaces\000"
 20909      70616365 
 20909      7300
 20910              	.LASF607:
 20911 0c1c 75736265 		.ascii	"usbeventcb_t\000"
 20911      76656E74 
 20911      63625F74 
 20911      00
 20912              	.LASF286:
 20913 0c29 424C4B5F 		.ascii	"BLK_ACTIVE\000"
 20913      41435449 
 20913      564500
 20914              	.LASF784:
 20915 0c34 5F5F746D 		.ascii	"__tm_year\000"
 20915      5F796561 
 20915      7200
 20916              	.LASF254:
 20917 0c3e 6576656E 		.ascii	"event_listener_t\000"
 20917      745F6C69 
 20917      7374656E 
 20917      65725F74 
ARM GAS  /var/folders/bw/wdbp2_bd0pn7gl5ybd33xbb80000gn/T//ccZ5cvgj.s 			page 384


 20917      00
 20918              	.LASF810:
 20919 0c4f 5F626C6B 		.ascii	"_blksize\000"
 20919      73697A65 
 20919      00
 20920              	.LASF685:
 20921 0c58 6F74675F 		.ascii	"otg_ram_size\000"
 20921      72616D5F 
 20921      73697A65 
 20921      00
 20922              	.LASF924:
 20923 0c65 73656C65 		.ascii	"selector\000"
 20923      63746F72 
 20923      00
 20924              	.LASF991:
 20925 0c6e 67657442 		.ascii	"getBatteryValueRaw\000"
 20925      61747465 
 20925      72795661 
 20925      6C756552 
 20925      617700
 20926              	.LASF687:
 20927 0c81 73746D33 		.ascii	"stm32_otg_params_t\000"
 20927      325F6F74 
 20927      675F7061 
 20927      72616D73 
 20927      5F7400
 20928              	.LASF680:
 20929 0c94 72657376 		.ascii	"resvdD00\000"
 20929      64443030 
 20929      00
 20930              	.LASF185:
 20931 0c9d 52584352 		.ascii	"RXCRCR\000"
 20931      435200
 20932              	.LASF696:
 20933 0ca4 72786275 		.ascii	"rxbuf\000"
 20933      6600
 20934              	.LASF996:
 20935 0caa 67657458 		.ascii	"getXAxisGyro\000"
 20935      41786973 
 20935      4779726F 
 20935      00
 20936              	.LASF636:
 20937 0cb7 47494E54 		.ascii	"GINTSTS\000"
 20937      53545300 
 20938              	.LASF905:
 20939 0cbf 4D415249 		.ascii	"MARIO_DEATH\000"
 20939      4F5F4445 
 20939      41544800 
 20940              	.LASF227:
 20941 0ccb 63685F6D 		.ascii	"ch_mutex\000"
 20941      75746578 
 20941      00
 20942              	.LASF376:
 20943 0cd4 7478656D 		.ascii	"txempty_event\000"
 20943      7074795F 
 20943      6576656E 
 20943      7400
ARM GAS  /var/folders/bw/wdbp2_bd0pn7gl5ybd33xbb80000gn/T//ccZ5cvgj.s 			page 385


 20944              	.LASF499:
 20945 0ce2 50574D44 		.ascii	"PWMDriver\000"
 20945      72697665 
 20945      7200
 20946              	.LASF321:
 20947 0cec 50474461 		.ascii	"PGData\000"
 20947      746100
 20948              	.LASF508:
 20949 0cf3 50574D43 		.ascii	"PWMConfig\000"
 20949      6F6E6669 
 20949      6700
 20950              	.LASF859:
 20951 0cfd 5F6D6272 		.ascii	"_mbrlen_state\000"
 20951      6C656E5F 
 20951      73746174 
 20951      6500
 20952              	.LASF983:
 20953 0d0b 655F6765 		.ascii	"e_get_address\000"
 20953      745F6164 
 20953      64726573 
 20953      7300
 20954              	.LASF884:
 20955 0d19 76616C75 		.ascii	"value\000"
 20955      6500
 20956              	.LASF242:
 20957 0d1f 63665F6F 		.ascii	"cf_off_newer\000"
 20957      66665F6E 
 20957      65776572 
 20957      00
 20958              	.LASF665:
 20959 0d2c 44494550 		.ascii	"DIEPMSK\000"
 20959      4D534B00 
 20960              	.LASF632:
 20961 0d34 474F5447 		.ascii	"GOTGINT\000"
 20961      494E5400 
 20962              	.LASF936:
 20963 0d3c 6163637A 		.ascii	"accz\000"
 20963      00
 20964              	.LASF704:
 20965 0d41 6F75745F 		.ascii	"out_cb\000"
 20965      636200
 20966              	.LASF656:
 20967 0d48 4841494E 		.ascii	"HAINTMSK\000"
 20967      544D534B 
 20967      00
 20968              	.LASF566:
 20969 0d51 6F75745F 		.ascii	"out_params\000"
 20969      70617261 
 20969      6D7300
 20970              	.LASF198:
 20971 0d5c 73655F77 		.ascii	"se_wtobjp\000"
 20971      746F626A 
 20971      7000
 20972              	.LASF109:
 20973 0d66 4A535152 		.ascii	"JSQR\000"
 20973      00
 20974              	.LASF818:
ARM GAS  /var/folders/bw/wdbp2_bd0pn7gl5ybd33xbb80000gn/T//ccZ5cvgj.s 			page 386


 20975 0d6b 5F737464 		.ascii	"_stdin\000"
 20975      696E00
 20976              	.LASF866:
 20977 0d72 5F6E6D61 		.ascii	"_nmalloc\000"
 20977      6C6C6F63 
 20977      00
 20978              	.LASF446:
 20979 0d7b 64696572 		.ascii	"dier\000"
 20979      00
 20980              	.LASF544:
 20981 0d80 69735F70 		.ascii	"is_protected\000"
 20981      726F7465 
 20981      63746564 
 20981      00
 20982              	.LASF942:
 20983 0d8d 63616D5F 		.ascii	"cam_width\000"
 20983      77696474 
 20983      6800
 20984              	.LASF75:
 20985 0d97 76697274 		.ascii	"virtual_timer_t\000"
 20985      75616C5F 
 20985      74696D65 
 20985      725F7400 
 20986              	.LASF706:
 20987 0da7 6F75745F 		.ascii	"out_maxsize\000"
 20987      6D617873 
 20987      697A6500 
 20988              	.LASF1004:
 20989 0db3 655F6932 		.ascii	"e_i2cp_init\000"
 20989      63705F69 
 20989      6E697400 
 20990              	.LASF70:
 20991 0dbf 725F6374 		.ascii	"r_ctx\000"
 20991      7800
 20992              	.LASF77:
 20993 0dc5 76745F6E 		.ascii	"vt_next\000"
 20993      65787400 
 20994              	.LASF481:
 20995 0dcd 4932535F 		.ascii	"I2S_STOP\000"
 20995      53544F50 
 20995      00
 20996              	.LASF496:
 20997 0dd6 50574D5F 		.ascii	"PWM_STOP\000"
 20997      53544F50 
 20997      00
 20998              	.LASF25:
 20999 0ddf 7274636E 		.ascii	"rtcnt_t\000"
 20999      745F7400 
 21000              	.LASF346:
 21001 0de7 6D757465 		.ascii	"mutex\000"
 21001      7800
 21002              	.LASF490:
 21003 0ded 73697A65 		.ascii	"size\000"
 21003      00
 21004              	.LASF1019:
 21005 0df2 72756E5F 		.ascii	"run_asercom\000"
 21005      61736572 
ARM GAS  /var/folders/bw/wdbp2_bd0pn7gl5ybd33xbb80000gn/T//ccZ5cvgj.s 			page 387


 21005      636F6D00 
 21006              	.LASF394:
 21007 0dfe 44414344 		.ascii	"DACDriver\000"
 21007      72697665 
 21007      7200
 21008              	.LASF410:
 21009 0e08 44414343 		.ascii	"DACConfig\000"
 21009      6F6E6669 
 21009      6700
 21010              	.LASF577:
 21011 0e12 74787065 		.ascii	"txpending\000"
 21011      6E64696E 
 21011      6700
 21012              	.LASF431:
 21013 0e1c 636C6F63 		.ascii	"clock\000"
 21013      6B00
 21014              	.LASF298:
 21015 0e22 636C6561 		.ascii	"clear\000"
 21015      7200
 21016              	.LASF441:
 21017 0e28 43435852 		.ascii	"CCXR\000"
 21017      00
 21018              	.LASF139:
 21019 0e2d 43414E5F 		.ascii	"CAN_TypeDef\000"
 21019      54797065 
 21019      44656600 
 21020              	.LASF739:
 21021 0e39 5F6F6666 		.ascii	"_off_t\000"
 21021      5F7400
 21022              	.LASF200:
 21023 0e40 63685F73 		.ascii	"ch_swc_event_t\000"
 21023      77635F65 
 21023      76656E74 
 21023      5F7400
 21024              	.LASF514:
 21025 0e4f 53445F53 		.ascii	"SD_STOP\000"
 21025      544F5000 
 21026              	.LASF611:
 21027 0e57 72657376 		.ascii	"resvd8\000"
 21027      643800
 21028              	.LASF23:
 21029 0e5e 73697A65 		.ascii	"size_t\000"
 21029      5F7400
 21030              	.LASF96:
 21031 0e65 6B65726E 		.ascii	"kernel_stats\000"
 21031      656C5F73 
 21031      74617473 
 21031      00
 21032              	.LASF678:
 21033 0e72 72657376 		.ascii	"resvd880\000"
 21033      64383830 
 21033      00
 21034              	.LASF907:
 21035 0e7b 57414C4B 		.ascii	"WALKING\000"
 21035      494E4700 
 21036              	.LASF898:
 21037 0e83 70617261 		.ascii	"parameter_root\000"
ARM GAS  /var/folders/bw/wdbp2_bd0pn7gl5ybd33xbb80000gn/T//ccZ5cvgj.s 			page 388


 21037      6D657465 
 21037      725F726F 
 21037      6F7400
 21038              	.LASF744:
 21039 0e92 5F5F636F 		.ascii	"__count\000"
 21039      756E7400 
 21040              	.LASF17:
 21041 0e9a 75696E74 		.ascii	"uint8_t\000"
 21041      385F7400 
 21042              	.LASF939:
 21043 0ea2 6779726F 		.ascii	"gyroy\000"
 21043      7900
 21044              	.LASF615:
 21045 0ea8 72657376 		.ascii	"resvd14\000"
 21045      64313400 
 21046              	.LASF616:
 21047 0eb0 72657376 		.ascii	"resvd18\000"
 21047      64313800 
 21048              	.LASF72:
 21049 0eb8 725F6F6C 		.ascii	"r_older\000"
 21049      64657200 
 21050              	.LASF40:
 21051 0ec0 705F7072 		.ascii	"p_prev\000"
 21051      657600
 21052              	.LASF244:
 21053 0ec7 63665F6F 		.ascii	"cf_off_name\000"
 21053      66665F6E 
 21053      616D6500 
 21054              	.LASF507:
 21055 0ed3 50574D43 		.ascii	"PWMChannelConfig\000"
 21055      68616E6E 
 21055      656C436F 
 21055      6E666967 
 21055      00
 21056              	.LASF506:
 21057 0ee4 70776D63 		.ascii	"pwmcnt_t\000"
 21057      6E745F74 
 21057      00
 21058              	.LASF674:
 21059 0eed 44494550 		.ascii	"DIEPEMPMSK\000"
 21059      454D504D 
 21059      534B00
 21060              	.LASF732:
 21061 0ef8 64636D69 		.ascii	"dcmicallback_t\000"
 21061      63616C6C 
 21061      6261636B 
 21061      5F7400
 21062              	.LASF619:
 21063 0f07 44494550 		.ascii	"DIEPCTL\000"
 21063      43544C00 
 21064              	.LASF260:
 21065 0f0f 656C5F77 		.ascii	"el_wflags\000"
 21065      666C6167 
 21065      7300
 21066              	.LASF575:
 21067 0f19 6F746770 		.ascii	"otgparams\000"
 21067      6172616D 
ARM GAS  /var/folders/bw/wdbp2_bd0pn7gl5ybd33xbb80000gn/T//ccZ5cvgj.s 			page 389


 21067      7300
 21068              	.LASF201:
 21069 0f23 74625F73 		.ascii	"tb_size\000"
 21069      697A6500 
 21070              	.LASF318:
 21071 0f2b 50444461 		.ascii	"PDData\000"
 21071      746100
 21072              	.LASF539:
 21073 0f32 73637261 		.ascii	"scratchpad\000"
 21073      74636870 
 21073      616400
 21074              	.LASF832:
 21075 0f3d 5F637674 		.ascii	"_cvtbuf\000"
 21075      62756600 
 21076              	.LASF708:
 21077 0f45 6F75745F 		.ascii	"out_state\000"
 21077      73746174 
 21077      6500
 21078              	.LASF264:
 21079 0f4f 696F5F71 		.ascii	"io_queue_t\000"
 21079      75657565 
 21079      5F7400
 21080              	.LASF822:
 21081 0f5a 5F656D65 		.ascii	"_emergency\000"
 21081      7267656E 
 21081      637900
 21082              	.LASF555:
 21083 0f65 73706973 		.ascii	"spistate_t\000"
 21083      74617465 
 21083      5F7400
 21084              	.LASF919:
 21085 0f70 61636365 		.ascii	"acceleration\000"
 21085      6C657261 
 21085      74696F6E 
 21085      00
 21086              	.LASF452:
 21087 0f7d 4932435F 		.ascii	"I2C_STOP\000"
 21087      53544F50 
 21087      00
 21088              	.LASF474:
 21089 0f86 61646472 		.ascii	"addr\000"
 21089      00
 21090              	.LASF914:
 21091 0f8b 45585445 		.ascii	"EXTERNAL_SONG\000"
 21091      524E414C 
 21091      5F534F4E 
 21091      4700
 21092              	.LASF124:
 21093 0f99 52463052 		.ascii	"RF0R\000"
 21093      00
 21094              	.LASF336:
 21095 0f9e 4144435F 		.ascii	"ADC_ERR_DMAFAILURE\000"
 21095      4552525F 
 21095      444D4146 
 21095      41494C55 
 21095      524500
 21096              	.LASF553:
ARM GAS  /var/folders/bw/wdbp2_bd0pn7gl5ybd33xbb80000gn/T//ccZ5cvgj.s 			page 390


 21097 0fb1 5350495F 		.ascii	"SPI_ACTIVE\000"
 21097      41435449 
 21097      564500
 21098              	.LASF748:
 21099 0fbc 656E7669 		.ascii	"environ\000"
 21099      726F6E00 
 21100              	.LASF420:
 21101 0fc4 45585443 		.ascii	"EXTChannelConfig\000"
 21101      68616E6E 
 21101      656C436F 
 21101      6E666967 
 21101      00
 21102              	.LASF301:
 21103 0fd5 4F535045 		.ascii	"OSPEEDR\000"
 21103      45445200 
 21104              	.LASF384:
 21105 0fdd 4441435F 		.ascii	"DAC_READY\000"
 21105      52454144 
 21105      5900
 21106              	.LASF643:
 21107 0fe7 72657376 		.ascii	"resvd30\000"
 21107      64333000 
 21108              	.LASF743:
 21109 0fef 5F5F7763 		.ascii	"__wchb\000"
 21109      686200
 21110              	.LASF644:
 21111 0ff6 72657376 		.ascii	"resvd34\000"
 21111      64333400 
 21112              	.LASF672:
 21113 0ffe 44564255 		.ascii	"DVBUSPULSE\000"
 21113      5350554C 
 21113      534500
 21114              	.LASF781:
 21115 1009 5F5F746D 		.ascii	"__tm_hour\000"
 21115      5F686F75 
 21115      7200
 21116              	.LASF948:
 21117 1013 66697273 		.ascii	"first\000"
 21117      7400
 21118              	.LASF285:
 21119 1019 424C4B5F 		.ascii	"BLK_STOP\000"
 21119      53544F50 
 21119      00
 21120              	.LASF522:
 21121 1022 53657269 		.ascii	"SerialDriverVMT\000"
 21121      616C4472 
 21121      69766572 
 21121      564D5400 
 21122              	.LASF593:
 21123 1032 5553425F 		.ascii	"USB_EP0_ERROR\000"
 21123      4550305F 
 21123      4552524F 
 21123      5200
 21124              	.LASF741:
 21125 1040 77696E74 		.ascii	"wint_t\000"
 21125      5F7400
 21126              	.LASF545:
ARM GAS  /var/folders/bw/wdbp2_bd0pn7gl5ybd33xbb80000gn/T//ccZ5cvgj.s 			page 391


 21127 1047 636F6E6E 		.ascii	"connect\000"
 21127      65637400 
 21128              	.LASF125:
 21129 104f 52463152 		.ascii	"RF1R\000"
 21129      00
 21130              	.LASF339:
 21131 1054 41444344 		.ascii	"ADCDriver\000"
 21131      72697665 
 21131      7200
 21132              	.LASF686:
 21133 105e 6E756D5F 		.ascii	"num_endpoints\000"
 21133      656E6470 
 21133      6F696E74 
 21133      7300
 21134              	.LASF362:
 21135 106c 41444343 		.ascii	"ADCConfig\000"
 21135      6F6E6669 
 21135      6700
 21136              	.LASF694:
 21137 1076 746F7473 		.ascii	"totsize\000"
 21137      697A6500 
 21138              	.LASF890:
 21139 107e 5F706172 		.ascii	"_param_val_matrix_s\000"
 21139      616D5F76 
 21139      616C5F6D 
 21139      61747269 
 21139      785F7300 
 21140              	.LASF840:
 21141 1092 5F6E696F 		.ascii	"_niobs\000"
 21141      627300
 21142              	.LASF515:
 21143 1099 53445F52 		.ascii	"SD_READY\000"
 21143      45414459 
 21143      00
 21144              	.LASF609:
 21145 10a2 75736267 		.ascii	"usbgetdescriptor_t\000"
 21145      65746465 
 21145      73637269 
 21145      70746F72 
 21145      5F7400
 21146              	.LASF1015:
 21147 10b5 474E5520 		.ascii	"GNU C11 7.2.1 20170904 (release) [ARM/embedded-7-br"
 21147      43313120 
 21147      372E322E 
 21147      31203230 
 21147      31373039 
 21148 10e8 616E6368 		.ascii	"anch revision 255204] -mcpu=cortex-m4 -mfloat-abi=h"
 21148      20726576 
 21148      6973696F 
 21148      6E203235 
 21148      35323034 
 21149 111b 61726420 		.ascii	"ard -mfpu=fpv4-sp-d16 -mno-thumb-interwork -mthumb "
 21149      2D6D6670 
 21149      753D6670 
 21149      76342D73 
 21149      702D6431 
 21150 114e 2D676764 		.ascii	"-ggdb -O2 -fomit-frame-pointer -falign-functions=16"
ARM GAS  /var/folders/bw/wdbp2_bd0pn7gl5ybd33xbb80000gn/T//ccZ5cvgj.s 			page 392


 21150      62202D4F 
 21150      32202D66 
 21150      6F6D6974 
 21150      2D667261 
 21151 1181 202D666E 		.ascii	" -fno-strict-aliasing -fstack-protector-all -ffunct"
 21151      6F2D7374 
 21151      72696374 
 21151      2D616C69 
 21151      6173696E 
 21152 11b4 696F6E2D 		.ascii	"ion-sections -fdata-sections -fno-common -fsingle-p"
 21152      73656374 
 21152      696F6E73 
 21152      202D6664 
 21152      6174612D 
 21153 11e7 72656369 		.ascii	"recision-constant\000"
 21153      73696F6E 
 21153      2D636F6E 
 21153      7374616E 
 21153      7400
 21154              	.LASF387:
 21155 11f9 4441435F 		.ascii	"DAC_ERROR\000"
 21155      4552524F 
 21155      5200
 21156              	.LASF817:
 21157 1203 5F657272 		.ascii	"_errno\000"
 21157      6E6F00
 21158              	.LASF768:
 21159 120a 6D657373 		.ascii	"messagebus_t\000"
 21159      61676562 
 21159      75735F74 
 21159      00
 21160              	.LASF588:
 21161 1217 5553425F 		.ascii	"USB_EP0_TX\000"
 21161      4550305F 
 21161      545800
 21162              	.LASF567:
 21163 1222 65703073 		.ascii	"ep0state\000"
 21163      74617465 
 21163      00
 21164              	.LASF880:
 21165 122b 70617261 		.ascii	"parameter_s\000"
 21165      6D657465 
 21165      725F7300 
 21166              	.LASF754:
 21167 1237 746F7069 		.ascii	"topic_s\000"
 21167      635F7300 
 21168              	.LASF278:
 21169 123f 69666372 		.ascii	"ifcr\000"
 21169      00
 21170              	.LASF912:
 21171 1244 53455645 		.ascii	"SEVEN_NATION_ARMY\000"
 21171      4E5F4E41 
 21171      54494F4E 
 21171      5F41524D 
 21171      5900
 21172              	.LASF480:
 21173 1256 4932535F 		.ascii	"I2S_UNINIT\000"
ARM GAS  /var/folders/bw/wdbp2_bd0pn7gl5ybd33xbb80000gn/T//ccZ5cvgj.s 			page 393


 21173      554E494E 
 21173      495400
 21174              	.LASF990:
 21175 1261 706C6179 		.ascii	"playMelody\000"
 21175      4D656C6F 
 21175      647900
 21176              	.LASF307:
 21177 126c 73746D33 		.ascii	"stm32_gpio_t\000"
 21177      325F6770 
 21177      696F5F74 
 21177      00
 21178              	.LASF217:
 21179 1279 7264796D 		.ascii	"rdymsg\000"
 21179      736700
 21180              	.LASF789:
 21181 1280 5F666E61 		.ascii	"_fnargs\000"
 21181      72677300 
 21182              	.LASF497:
 21183 1288 50574D5F 		.ascii	"PWM_READY\000"
 21183      52454144 
 21183      5900
 21184              	.LASF115:
 21185 1292 54445452 		.ascii	"TDTR\000"
 21185      00
 21186              	.LASF123:
 21187 1297 43414E5F 		.ascii	"CAN_FilterRegister_TypeDef\000"
 21187      46696C74 
 21187      65725265 
 21187      67697374 
 21187      65725F54 
 21188              	.LASF377:
 21189 12b2 6572726F 		.ascii	"error_event\000"
 21189      725F6576 
 21189      656E7400 
 21190              	.LASF352:
 21191 12be 6E756D5F 		.ascii	"num_channels\000"
 21191      6368616E 
 21191      6E656C73 
 21191      00
 21192              	.LASF646:
 21193 12cb 72657376 		.ascii	"resvd58\000"
 21193      64353800 
 21194              	.LASF695:
 21195 12d3 55534249 		.ascii	"USBInEndpointState\000"
 21195      6E456E64 
 21195      706F696E 
 21195      74537461 
 21195      746500
 21196              	.LASF41:
 21197 12e6 705F7072 		.ascii	"p_prio\000"
 21197      696F00
 21198              	.LASF882:
 21199 12ed 64656669 		.ascii	"defined\000"
 21199      6E656400 
 21200              	.LASF265:
 21201 12f5 696F5F71 		.ascii	"io_queue\000"
 21201      75657565 
ARM GAS  /var/folders/bw/wdbp2_bd0pn7gl5ybd33xbb80000gn/T//ccZ5cvgj.s 			page 394


 21201      00
 21202              	.LASF315:
 21203 12fe 50414461 		.ascii	"PAData\000"
 21203      746100
 21204              	.LASF13:
 21205 1305 5F5F7569 		.ascii	"__uint64_t\000"
 21205      6E743634 
 21205      5F7400
 21206              	.LASF1001:
 21207 1310 73746F70 		.ascii	"stopCurrentMelody\000"
 21207      43757272 
 21207      656E744D 
 21207      656C6F64 
 21207      7900
 21208              	.LASF774:
 21209 1322 5F6E6578 		.ascii	"_next\000"
 21209      7400
 21210              	.LASF946:
 21211 1328 63616D5F 		.ascii	"cam_x1\000"
 21211      783100
 21212              	.LASF502:
 21213 132f 70776D63 		.ascii	"pwmcallback_t\000"
 21213      616C6C62 
 21213      61636B5F 
 21213      7400
 21214              	.LASF395:
 21215 133d 70617261 		.ascii	"params\000"
 21215      6D7300
 21216              	.LASF592:
 21217 1344 5553425F 		.ascii	"USB_EP0_SENDING_STS\000"
 21217      4550305F 
 21217      53454E44 
 21217      494E475F 
 21217      53545300 
 21218              	.LASF857:
 21219 1358 5F736967 		.ascii	"_signal_buf\000"
 21219      6E616C5F 
 21219      62756600 
 21220              	.LASF977:
 21221 1364 655F6765 		.ascii	"e_get_acc_filtered\000"
 21221      745F6163 
 21221      635F6669 
 21221      6C746572 
 21221      656400
 21222              	.LASF457:
 21223 1377 69326373 		.ascii	"i2cstate_t\000"
 21223      74617465 
 21223      5F7400
 21224              	.LASF803:
 21225 1382 5F636F6F 		.ascii	"_cookie\000"
 21225      6B696500 
 21226              	.LASF873:
 21227 138a 70617261 		.ascii	"parameter_namespace_t\000"
 21227      6D657465 
 21227      725F6E61 
 21227      6D657370 
 21227      6163655F 
ARM GAS  /var/folders/bw/wdbp2_bd0pn7gl5ybd33xbb80000gn/T//ccZ5cvgj.s 			page 395


 21228              	.LASF1000:
 21229 13a0 655F636C 		.ascii	"e_close_sound\000"
 21229      6F73655F 
 21229      736F756E 
 21229      6400
 21230              	.LASF594:
 21231 13ae 75736265 		.ascii	"usbep0state_t\000"
 21231      70307374 
 21231      6174655F 
 21231      7400
 21232              	.LASF399:
 21233 13bc 64616365 		.ascii	"dacerror_t\000"
 21233      72726F72 
 21233      5F7400
 21234              	.LASF127:
 21235 13c7 7354784D 		.ascii	"sTxMailBox\000"
 21235      61696C42 
 21235      6F7800
 21236              	.LASF334:
 21237 13d2 61646373 		.ascii	"adcsample_t\000"
 21237      616D706C 
 21237      655F7400 
 21238              	.LASF432:
 21239 13de 67707463 		.ascii	"gptcallback_t\000"
 21239      616C6C62 
 21239      61636B5F 
 21239      7400
 21240              	.LASF268:
 21241 13ec 715F6275 		.ascii	"q_buffer\000"
 21241      66666572 
 21241      00
 21242              	.LASF39:
 21243 13f5 705F6E65 		.ascii	"p_next\000"
 21243      787400
 21244              	.LASF479:
 21245 13fc 49324344 		.ascii	"I2CD1\000"
 21245      3100
 21246              	.LASF620:
 21247 1402 72657376 		.ascii	"resvd4\000"
 21247      643400
 21248              	.LASF562:
 21249 1409 55534244 		.ascii	"USBDriver\000"
 21249      72697665 
 21249      7200
 21250              	.LASF679:
 21251 1413 72657376 		.ascii	"resvd8C0\000"
 21251      64384330 
 21251      00
 21252              	.LASF716:
 21253 141c 55534243 		.ascii	"USBConfig\000"
 21253      6F6E6669 
 21253      6700
 21254              	.LASF622:
 21255 1426 72657376 		.ascii	"resvdC\000"
 21255      644300
 21256              	.LASF509:
 21257 142d 50574D44 		.ascii	"PWMD2\000"
ARM GAS  /var/folders/bw/wdbp2_bd0pn7gl5ybd33xbb80000gn/T//ccZ5cvgj.s 			page 396


 21257      3200
 21258              	.LASF510:
 21259 1433 50574D44 		.ascii	"PWMD3\000"
 21259      3300
 21260              	.LASF511:
 21261 1439 50574D44 		.ascii	"PWMD4\000"
 21261      3400
 21262              	.LASF512:
 21263 143f 50574D44 		.ascii	"PWMD5\000"
 21263      3500
 21264              	.LASF951:
 21265 1445 69725F6C 		.ascii	"ir_last_move\000"
 21265      6173745F 
 21265      6D6F7665 
 21265      00
 21266              	.LASF520:
 21267 1452 6F717565 		.ascii	"oqueue\000"
 21267      756500
 21268              	.LASF29:
 21269 1459 74726566 		.ascii	"trefs_t\000"
 21269      735F7400 
 21270              	.LASF58:
 21271 1461 705F6D70 		.ascii	"p_mpool\000"
 21271      6F6F6C00 
 21272              	.LASF960:
 21273 1469 655F7561 		.ascii	"e_uart1_sending\000"
 21273      7274315F 
 21273      73656E64 
 21273      696E6700 
 21274              	.LASF407:
 21275 1479 44414343 		.ascii	"DACConversionGroup\000"
 21275      6F6E7665 
 21275      7273696F 
 21275      6E47726F 
 21275      757000
 21276              	.LASF157:
 21277 148c 43575354 		.ascii	"CWSTRTR\000"
 21277      52545200 
 21278              	.LASF779:
 21279 1494 5F5F746D 		.ascii	"__tm_sec\000"
 21279      5F736563 
 21279      00
 21280              	.LASF709:
 21281 149d 696E5F6D 		.ascii	"in_multiplier\000"
 21281      756C7469 
 21281      706C6965 
 21281      7200
 21282              	.LASF332:
 21283 14ab 4144435F 		.ascii	"ADC_ERROR\000"
 21283      4552524F 
 21283      5200
 21284              	.LASF788:
 21285 14b5 5F6F6E5F 		.ascii	"_on_exit_args\000"
 21285      65786974 
 21285      5F617267 
 21285      7300
 21286              	.LASF849:
ARM GAS  /var/folders/bw/wdbp2_bd0pn7gl5ybd33xbb80000gn/T//ccZ5cvgj.s 			page 397


 21287 14c3 5F6C6F63 		.ascii	"_localtime_buf\000"
 21287      616C7469 
 21287      6D655F62 
 21287      756600
 21288              	.LASF27:
 21289 14d2 746D6F64 		.ascii	"tmode_t\000"
 21289      655F7400 
 21290              	.LASF727:
 21291 14da 44434D49 		.ascii	"DCMI_ERROR\000"
 21291      5F455252 
 21291      4F5200
 21292              	.LASF330:
 21293 14e5 4144435F 		.ascii	"ADC_ACTIVE\000"
 21293      41435449 
 21293      564500
 21294              	.LASF797:
 21295 14f0 5F626173 		.ascii	"_base\000"
 21295      6500
 21296              	.LASF106:
 21297 14f6 53515231 		.ascii	"SQR1\000"
 21297      00
 21298              	.LASF107:
 21299 14fb 53515232 		.ascii	"SQR2\000"
 21299      00
 21300              	.LASF108:
 21301 1500 53515233 		.ascii	"SQR3\000"
 21301      00
 21302              	.LASF303:
 21303 1505 42535252 		.ascii	"BSRR\000"
 21303      00
 21304              	.LASF988:
 21305 150a 655F7365 		.ascii	"e_set_front_led\000"
 21305      745F6672 
 21305      6F6E745F 
 21305      6C656400 
 21306              	.LASF282:
 21307 151a 73746D33 		.ascii	"stm32_dma_stream_t\000"
 21307      325F646D 
 21307      615F7374 
 21307      7265616D 
 21307      5F7400
 21308              	.LASF714:
 21309 152d 72657175 		.ascii	"requests_hook_cb\000"
 21309      65737473 
 21309      5F686F6F 
 21309      6B5F6362 
 21309      00
 21310              	.LASF862:
 21311 153e 5F776372 		.ascii	"_wcrtomb_state\000"
 21311      746F6D62 
 21311      5F737461 
 21311      746500
 21312              	.LASF531:
 21313 154d 5344435F 		.ascii	"SDC_MODE_8BIT\000"
 21313      4D4F4445 
 21313      5F384249 
 21313      5400
ARM GAS  /var/folders/bw/wdbp2_bd0pn7gl5ybd33xbb80000gn/T//ccZ5cvgj.s 			page 398


 21314              	.LASF692:
 21315 155b 74787369 		.ascii	"txsize\000"
 21315      7A6500
 21316              	.LASF403:
 21317 1562 4441435F 		.ascii	"DAC_DHRM_12BIT_LEFT\000"
 21317      4448524D 
 21317      5F313242 
 21317      49545F4C 
 21317      45465400 
 21318              	.LASF957:
 21319 1576 69734570 		.ascii	"isEpuckVersion1_3\000"
 21319      75636B56 
 21319      65727369 
 21319      6F6E315F 
 21319      3300
 21320              	.LASF500:
 21321 1588 70657269 		.ascii	"period\000"
 21321      6F6400
 21322              	.LASF961:
 21323 158f 655F6932 		.ascii	"e_i2cp_enable\000"
 21323      63705F65 
 21323      6E61626C 
 21323      6500
 21324              	.LASF456:
 21325 159d 4932435F 		.ascii	"I2C_LOCKED\000"
 21325      4C4F434B 
 21325      454400
 21326              	.LASF929:
 21327 15a8 73706565 		.ascii	"speedl\000"
 21327      646C00
 21328              	.LASF88:
 21329 15af 6973725F 		.ascii	"isr_cnt\000"
 21329      636E7400 
 21330              	.LASF989:
 21331 15b7 655F706C 		.ascii	"e_play_sound\000"
 21331      61795F73 
 21331      6F756E64 
 21331      00
 21332              	.LASF928:
 21333 15c4 73706565 		.ascii	"speedr\000"
 21333      647200
 21334              	.LASF583:
 21335 15cb 5553425F 		.ascii	"USB_READY\000"
 21335      52454144 
 21335      5900
 21336              	.LASF528:
 21337 15d5 72656164 		.ascii	"readt\000"
 21337      7400
 21338              	.LASF814:
 21339 15db 5F6D6273 		.ascii	"_mbstate\000"
 21339      74617465 
 21339      00
 21340              	.LASF635:
 21341 15e4 47525354 		.ascii	"GRSTCTL\000"
 21341      43544C00 
 21342              	.LASF429:
 21343 15ec 67707473 		.ascii	"gptstate_t\000"
ARM GAS  /var/folders/bw/wdbp2_bd0pn7gl5ybd33xbb80000gn/T//ccZ5cvgj.s 			page 399


 21343      74617465 
 21343      5F7400
 21344              	.LASF1008:
 21345 15f7 655F6765 		.ascii	"e_getchar_uart1\000"
 21345      74636861 
 21345      725F7561 
 21345      72743100 
 21346              	.LASF16:
 21347 1607 696E7438 		.ascii	"int8_t\000"
 21347      5F7400
 21348              	.LASF772:
 21349 160e 5F5F554C 		.ascii	"__ULong\000"
 21349      6F6E6700 
 21350              	.LASF87:
 21351 1616 70616E69 		.ascii	"panic_msg\000"
 21351      635F6D73 
 21351      6700
 21352              	.LASF554:
 21353 1620 5350495F 		.ascii	"SPI_COMPLETE\000"
 21353      434F4D50 
 21353      4C455445 
 21353      00
 21354              	.LASF176:
 21355 162d 4454494D 		.ascii	"DTIMER\000"
 21355      455200
 21356              	.LASF71:
 21357 1634 725F6E65 		.ascii	"r_newer\000"
 21357      77657200 
 21358              	.LASF600:
 21359 163c 5553425F 		.ascii	"USB_EVENT_STALLED\000"
 21359      4556454E 
 21359      545F5354 
 21359      414C4C45 
 21359      4400
 21360              	.LASF251:
 21361 164e 63686465 		.ascii	"chdebug_t\000"
 21361      6275675F 
 21361      7400
 21362              	.LASF698:
 21363 1658 72787369 		.ascii	"rxsize\000"
 21363      7A6500
 21364              	.LASF968:
 21365 165f 655F6765 		.ascii	"e_get_steps_right\000"
 21365      745F7374 
 21365      6570735F 
 21365      72696768 
 21365      7400
 21366              	.LASF614:
 21367 1671 48435453 		.ascii	"HCTSIZ\000"
 21367      495A00
 21368              	.LASF597:
 21369 1678 5553425F 		.ascii	"USB_EVENT_CONFIGURED\000"
 21369      4556454E 
 21369      545F434F 
 21369      4E464947 
 21369      55524544 
 21370              	.LASF546:
ARM GAS  /var/folders/bw/wdbp2_bd0pn7gl5ybd33xbb80000gn/T//ccZ5cvgj.s 			page 400


 21371 168d 64697363 		.ascii	"disconnect\000"
 21371      6F6E6E65 
 21371      637400
 21372              	.LASF752:
 21373 1698 6F70746F 		.ascii	"optopt\000"
 21373      707400
 21374              	.LASF525:
 21375 169f 70757474 		.ascii	"putt\000"
 21375      00
 21376              	.LASF30:
 21377 16a4 74736C69 		.ascii	"tslices_t\000"
 21377      6365735F 
 21377      7400
 21378              	.LASF847:
 21379 16ae 5F737472 		.ascii	"_strtok_last\000"
 21379      746F6B5F 
 21379      6C617374 
 21379      00
 21380              	.LASF238:
 21381 16bb 63685F74 		.ascii	"ch_timesize\000"
 21381      696D6573 
 21381      697A6500 
 21382              	.LASF579:
 21383 16c7 77615F70 		.ascii	"wa_pump\000"
 21383      756D7000 
 21384              	.LASF181:
 21385 16cf 4649464F 		.ascii	"FIFOCNT\000"
 21385      434E5400 
 21386              	.LASF263:
 21387 16d7 6576656E 		.ascii	"event_source_t\000"
 21387      745F736F 
 21387      75726365 
 21387      5F7400
 21388              	.LASF649:
 21389 16e6 72657376 		.ascii	"resvd140\000"
 21389      64313430 
 21389      00
 21390              	.LASF79:
 21391 16ef 76745F64 		.ascii	"vt_delta\000"
 21391      656C7461 
 21391      00
 21392              	.LASF843:
 21393 16f8 5F736565 		.ascii	"_seed\000"
 21393      6400
 21394              	.LASF202:
 21395 16fe 74625F70 		.ascii	"tb_ptr\000"
 21395      747200
 21396              	.LASF406:
 21397 1705 74726967 		.ascii	"trigger\000"
 21397      67657200 
 21398              	.LASF806:
 21399 170d 5F736565 		.ascii	"_seek\000"
 21399      6B00
 21400              	.LASF598:
 21401 1713 5553425F 		.ascii	"USB_EVENT_SUSPEND\000"
 21401      4556454E 
 21401      545F5355 
ARM GAS  /var/folders/bw/wdbp2_bd0pn7gl5ybd33xbb80000gn/T//ccZ5cvgj.s 			page 401


 21401      5350454E 
 21401      4400
 21402              	.LASF18:
 21403 1725 696E7431 		.ascii	"int16_t\000"
 21403      365F7400 
 21404              	.LASF425:
 21405 172d 4750545F 		.ascii	"GPT_STOP\000"
 21405      53544F50 
 21405      00
 21406              	.LASF114:
 21407 1736 4144435F 		.ascii	"ADC_TypeDef\000"
 21407      54797065 
 21407      44656600 
 21408              	.LASF7:
 21409 1742 73686F72 		.ascii	"short unsigned int\000"
 21409      7420756E 
 21409      7369676E 
 21409      65642069 
 21409      6E7400
 21410              	.LASF468:
 21411 1755 6F705F6D 		.ascii	"op_mode\000"
 21411      6F646500 
 21412              	.LASF2:
 21413 175d 7369676E 		.ascii	"signed char\000"
 21413      65642063 
 21413      68617200 
 21414              	.LASF879:
 21415 1769 70617261 		.ascii	"parameter_t\000"
 21415      6D657465 
 21415      725F7400 
 21416              	.LASF895:
 21417 1775 5F5F6664 		.ascii	"__fdlibm_xopen\000"
 21417      6C69626D 
 21417      5F786F70 
 21417      656E00
 21418              	.LASF537:
 21419 1784 63617264 		.ascii	"cardmode\000"
 21419      6D6F6465 
 21419      00
 21420              	.LASF50:
 21421 178d 705F7072 		.ascii	"p_preempt\000"
 21421      65656D70 
 21421      7400
 21422              	.LASF36:
 21423 1797 75636E74 		.ascii	"ucnt_t\000"
 21423      5F7400
 21424              	.LASF117:
 21425 179e 54444852 		.ascii	"TDHR\000"
 21425      00
 21426              	.LASF328:
 21427 17a3 4144435F 		.ascii	"ADC_STOP\000"
 21427      53544F50 
 21427      00
 21428              	.LASF591:
 21429 17ac 5553425F 		.ascii	"USB_EP0_RX\000"
 21429      4550305F 
 21429      525800
ARM GAS  /var/folders/bw/wdbp2_bd0pn7gl5ybd33xbb80000gn/T//ccZ5cvgj.s 			page 402


 21430              	.LASF893:
 21431 17b7 5F5F6664 		.ascii	"__fdlibm_ieee\000"
 21431      6C69626D 
 21431      5F696565 
 21431      6500
 21432              	.LASF503:
 21433 17c5 70776D6D 		.ascii	"pwmmode_t\000"
 21433      6F64655F 
 21433      7400
 21434              	.LASF572:
 21435 17cf 73746174 		.ascii	"status\000"
 21435      757300
 21436              	.LASF177:
 21437 17d6 444C454E 		.ascii	"DLEN\000"
 21437      00
 21438              	.LASF1003:
 21439 17db 67657473 		.ascii	"getselector\000"
 21439      656C6563 
 21439      746F7200 
 21440              	.LASF530:
 21441 17e7 5344435F 		.ascii	"SDC_MODE_4BIT\000"
 21441      4D4F4445 
 21441      5F344249 
 21441      5400
 21442              	.LASF604:
 21443 17f5 55534244 		.ascii	"USBDescriptor\000"
 21443      65736372 
 21443      6970746F 
 21443      7200
 21444              	.LASF1014:
 21445 1803 64636D69 		.ascii	"dcmi_get_last_image_ptr\000"
 21445      5F676574 
 21445      5F6C6173 
 21445      745F696D 
 21445      6167655F 
 21446              	.LASF557:
 21447 181b 73706963 		.ascii	"spicallback_t\000"
 21447      616C6C62 
 21447      61636B5F 
 21447      7400
 21448              	.LASF830:
 21449 1829 5F667265 		.ascii	"_freelist\000"
 21449      656C6973 
 21449      7400
 21450              	.LASF573:
 21451 1833 61646472 		.ascii	"address\000"
 21451      65737300 
 21452              	.LASF53:
 21453 183b 705F6D73 		.ascii	"p_msgqueue\000"
 21453      67717565 
 21453      756500
 21454              	.LASF1017:
 21455 1846 2F557365 		.ascii	"/Users/paulmoineville/Documents/EPFL/3\303\250me an"
 21455      72732F70 
 21455      61756C6D 
 21455      6F696E65 
 21455      76696C6C 
ARM GAS  /var/folders/bw/wdbp2_bd0pn7gl5ybd33xbb80000gn/T//ccZ5cvgj.s 			page 403


 21456 1873 6EC3A965 		.ascii	"n\303\251e/Microinformatique/Project_Goalkeepuck/Go"
 21456      2F4D6963 
 21456      726F696E 
 21456      666F726D 
 21456      61746971 
 21457 18a0 616C6B65 		.ascii	"alkeepuck/\000"
 21457      65707563 
 21457      6B2F00
 21458              	.LASF248:
 21459 18ab 63665F6F 		.ascii	"cf_off_refs\000"
 21459      66665F72 
 21459      65667300 
 21460              	.LASF541:
 21461 18b7 53444343 		.ascii	"SDCConfig\000"
 21461      6F6E6669 
 21461      6700
 21462              	.LASF229:
 21463 18c1 6D5F6F77 		.ascii	"m_owner\000"
 21463      6E657200 
 21464              	.LASF811:
 21465 18c9 5F6F6666 		.ascii	"_offset\000"
 21465      73657400 
 21466              	.LASF887:
 21467 18d1 5F706172 		.ascii	"_param_val_vector_s\000"
 21467      616D5F76 
 21467      616C5F76 
 21467      6563746F 
 21467      725F7300 
 21468              	.LASF99:
 21469 18e5 53797374 		.ascii	"SystemCoreClock\000"
 21469      656D436F 
 21469      7265436C 
 21469      6F636B00 
 21470              	.LASF350:
 21471 18f5 61646365 		.ascii	"adcerrorcallback_t\000"
 21471      72726F72 
 21471      63616C6C 
 21471      6261636B 
 21471      5F7400
 21472              	.LASF385:
 21473 1908 4441435F 		.ascii	"DAC_ACTIVE\000"
 21473      41435449 
 21473      564500
 21474              	.LASF947:
 21475 1913 63616D5F 		.ascii	"cam_y1\000"
 21475      793100
 21476              	.LASF340:
 21477 191a 73746174 		.ascii	"state\000"
 21477      6500
 21478              	.LASF982:
 21479 1920 655F6765 		.ascii	"e_get_check\000"
 21479      745F6368 
 21479      65636B00 
 21480              	.LASF236:
 21481 192c 63685F76 		.ascii	"ch_version\000"
 21481      65727369 
 21481      6F6E00
ARM GAS  /var/folders/bw/wdbp2_bd0pn7gl5ybd33xbb80000gn/T//ccZ5cvgj.s 			page 404


 21482              	.LASF796:
 21483 1937 5F5F7362 		.ascii	"__sbuf\000"
 21483      756600
 21484              	.LASF538:
 21485 193e 7364696F 		.ascii	"sdio\000"
 21485      00
 21486              	.LASF972:
 21487 1943 655F6765 		.ascii	"e_get_calibrated_prox\000"
 21487      745F6361 
 21487      6C696272 
 21487      61746564 
 21487      5F70726F 
 21488              	.LASF140:
 21489 1959 53575452 		.ascii	"SWTRIGR\000"
 21489      49475200 
 21490              	.LASF590:
 21491 1961 5553425F 		.ascii	"USB_EP0_WAITING_STS\000"
 21491      4550305F 
 21491      57414954 
 21491      494E475F 
 21491      53545300 
 21492              	.LASF168:
 21493 1975 4932435F 		.ascii	"I2C_TypeDef\000"
 21493      54797065 
 21493      44656600 
 21494              	.LASF121:
 21495 1981 52444852 		.ascii	"RDHR\000"
 21495      00
 21496              	.LASF751:
 21497 1986 6F707465 		.ascii	"opterr\000"
 21497      727200
 21498              	.LASF845:
 21499 198d 5F616464 		.ascii	"_add\000"
 21499      00
 21500              	.LASF439:
 21501 1992 444D4152 		.ascii	"DMAR\000"
 21501      00
 21502              	.LASF445:
 21503 1997 63616C6C 		.ascii	"callback\000"
 21503      6261636B 
 21503      00
 21504              	.LASF92:
 21505 19a0 63685F73 		.ascii	"ch_system\000"
 21505      79737465 
 21505      6D00
 21506              	.LASF169:
 21507 19aa 504F5745 		.ascii	"POWER\000"
 21507      5200
 21508              	.LASF816:
 21509 19b0 5F726565 		.ascii	"_reent\000"
 21509      6E7400
 21510              	.LASF90:
 21511 19b7 74726163 		.ascii	"trace_buffer\000"
 21511      655F6275 
 21511      66666572 
 21511      00
 21512              	.LASF856:
ARM GAS  /var/folders/bw/wdbp2_bd0pn7gl5ybd33xbb80000gn/T//ccZ5cvgj.s 			page 405


 21513 19c4 5F6C3634 		.ascii	"_l64a_buf\000"
 21513      615F6275 
 21513      6600
 21514              	.LASF848:
 21515 19ce 5F617363 		.ascii	"_asctime_buf\000"
 21515      74696D65 
 21515      5F627566 
 21515      00
 21516              	.LASF404:
 21517 19db 4441435F 		.ascii	"DAC_DHRM_8BIT_RIGHT\000"
 21517      4448524D 
 21517      5F384249 
 21517      545F5249 
 21517      47485400 
 21518              	.LASF424:
 21519 19ef 4750545F 		.ascii	"GPT_UNINIT\000"
 21519      554E494E 
 21519      495400
 21520              	.LASF742:
 21521 19fa 5F5F7763 		.ascii	"__wch\000"
 21521      6800
 21522              	.LASF745:
 21523 1a00 5F5F7661 		.ascii	"__value\000"
 21523      6C756500 
 21524              	.LASF224:
 21525 1a08 63685F73 		.ascii	"ch_semaphore\000"
 21525      656D6170 
 21525      686F7265 
 21525      00
 21526              	.LASF918:
 21527 1a15 5F637479 		.ascii	"_ctype_\000"
 21527      70655F00 
 21528              	.LASF863:
 21529 1a1d 5F776373 		.ascii	"_wcsrtombs_state\000"
 21529      72746F6D 
 21529      62735F73 
 21529      74617465 
 21529      00
 21530              	.LASF729:
 21531 1a2e 64636D69 		.ascii	"dcmistate_t\000"
 21531      73746174 
 21531      655F7400 
 21532              	.LASF623:
 21533 1a3a 44494550 		.ascii	"DIEPTSIZ\000"
 21533      5453495A 
 21533      00
 21534              	.LASF885:
 21535 1a43 5F706172 		.ascii	"_param_val_str_s\000"
 21535      616D5F76 
 21535      616C5F73 
 21535      74725F73 
 21535      00
 21536              	.LASF355:
 21537 1a54 736D7072 		.ascii	"smpr1\000"
 21537      3100
 21538              	.LASF356:
 21539 1a5a 736D7072 		.ascii	"smpr2\000"
ARM GAS  /var/folders/bw/wdbp2_bd0pn7gl5ybd33xbb80000gn/T//ccZ5cvgj.s 			page 406


 21539      3200
 21540              	.LASF64:
 21541 1a60 74687265 		.ascii	"threads_queue_t\000"
 21541      6164735F 
 21541      71756575 
 21541      655F7400 
 21542              	.LASF293:
 21543 1a70 626C6B73 		.ascii	"blkstate_t\000"
 21543      74617465 
 21543      5F7400
 21544              	.LASF1018:
 21545 1a7b 5F5F6664 		.ascii	"__fdlibm_version\000"
 21545      6C69626D 
 21545      5F766572 
 21545      73696F6E 
 21545      00
 21546              	.LASF51:
 21547 1a8c 705F7469 		.ascii	"p_time\000"
 21547      6D6500
 21548              	.LASF49:
 21549 1a93 705F7265 		.ascii	"p_refs\000"
 21549      667300
 21550              	.LASF701:
 21551 1a9a 65705F6D 		.ascii	"ep_mode\000"
 21551      6F646500 
 21552              	.LASF504:
 21553 1aa2 70776D63 		.ascii	"pwmchannel_t\000"
 21553      68616E6E 
 21553      656C5F74 
 21553      00
 21554              	.LASF116:
 21555 1aaf 54444C52 		.ascii	"TDLR\000"
 21555      00
 21556              	.LASF9:
 21557 1ab4 6C6F6E67 		.ascii	"long int\000"
 21557      20696E74 
 21557      00
 21558              	.LASF95:
 21559 1abd 6D61696E 		.ascii	"mainthread\000"
 21559      74687265 
 21559      616400
 21560              	.LASF1006:
 21561 1ac8 52656164 		.ascii	"ReadEE\000"
 21561      454500
 21562              	.LASF569:
 21563 1acf 6570306E 		.ascii	"ep0n\000"
 21563      00
 21564              	.LASF682:
 21565 1ad4 72657376 		.ascii	"resvdE04\000"
 21565      64453034 
 21565      00
 21566              	.LASF228:
 21567 1add 6D5F7175 		.ascii	"m_queue\000"
 21567      65756500 
 21568              	.LASF392:
 21569 1ae5 646D6169 		.ascii	"dmairqprio\000"
 21569      72717072 
ARM GAS  /var/folders/bw/wdbp2_bd0pn7gl5ybd33xbb80000gn/T//ccZ5cvgj.s 			page 407


 21569      696F00
 21570              	.LASF430:
 21571 1af0 47505444 		.ascii	"GPTDriver\000"
 21571      72697665 
 21571      7200
 21572              	.LASF534:
 21573 1afa 73646366 		.ascii	"sdcflags_t\000"
 21573      6C616773 
 21573      5F7400
 21574              	.LASF322:
 21575 1b05 50484461 		.ascii	"PHData\000"
 21575      746100
 21576              	.LASF325:
 21577 1b0c 696F706F 		.ascii	"ioportid_t\000"
 21577      72746964 
 21577      5F7400
 21578              	.LASF765:
 21579 1b17 6D657373 		.ascii	"messagebus_topic_t\000"
 21579      61676562 
 21579      75735F74 
 21579      6F706963 
 21579      5F7400
 21580              	.LASF926:
 21581 1b2a 655F616D 		.ascii	"e_ambient_and_reflected_ir\000"
 21581      6269656E 
 21581      745F616E 
 21581      645F7265 
 21581      666C6563 
 21582              	.LASF363:
 21583 1b45 41444344 		.ascii	"ADCD1\000"
 21583      3100
 21584              	.LASF364:
 21585 1b4b 41444344 		.ascii	"ADCD2\000"
 21585      3200
 21586              	.LASF365:
 21587 1b51 41444344 		.ascii	"ADCD3\000"
 21587      3300
 21588              	.LASF650:
 21589 1b57 48434647 		.ascii	"HCFG\000"
 21589      00
 21590              	.LASF348:
 21591 1b5c 646D616D 		.ascii	"dmamode\000"
 21591      6F646500 
 21592              	.LASF210:
 21593 1b64 63756D75 		.ascii	"cumulative\000"
 21593      6C617469 
 21593      766500
 21594              	.LASF841:
 21595 1b6f 5F696F62 		.ascii	"_iobs\000"
 21595      7300
 21596              	.LASF561:
 21597 1b75 53504944 		.ascii	"SPID1\000"
 21597      3100
 21598              	.LASF526:
 21599 1b7b 67657474 		.ascii	"gett\000"
 21599      00
 21600              	.LASF941:
ARM GAS  /var/folders/bw/wdbp2_bd0pn7gl5ybd33xbb80000gn/T//ccZ5cvgj.s 			page 408


 21601 1b80 63616D5F 		.ascii	"cam_mode\000"
 21601      6D6F6465 
 21601      00
 21602              	.LASF220:
 21603 1b89 77747472 		.ascii	"wttrp\000"
 21603      7000
 21604              	.LASF271:
 21605 1b8f 715F7264 		.ascii	"q_rdptr\000"
 21605      70747200 
 21606              	.LASF194:
 21607 1b97 636F6E74 		.ascii	"context\000"
 21607      65787400 
 21608              	.LASF523:
 21609 1b9f 77726974 		.ascii	"write\000"
 21609      6500
 21610              	.LASF851:
 21611 1ba5 5F72616E 		.ascii	"_rand_next\000"
 21611      645F6E65 
 21611      787400
 21612              	.LASF519:
 21613 1bb0 69717565 		.ascii	"iqueue\000"
 21613      756500
 21614              	.LASF703:
 21615 1bb7 696E5F63 		.ascii	"in_cb\000"
 21615      6200
 21616              	.LASF628:
 21617 1bbd 444F4550 		.ascii	"DOEPINT\000"
 21617      494E5400 
 21618              	.LASF209:
 21619 1bc5 6C617374 		.ascii	"last\000"
 21619      00
 21620              	.LASF979:
 21621 1bca 655F6C65 		.ascii	"e_led_clear\000"
 21621      645F636C 
 21621      65617200 
 21622              	.LASF304:
 21623 1bd6 4C434B52 		.ascii	"LCKR\000"
 21623      00
 21624              	.LASF516:
 21625 1bdb 73647374 		.ascii	"sdstate_t\000"
 21625      6174655F 
 21625      7400
 21626              	.LASF21:
 21627 1be5 75696E74 		.ascii	"uint32_t\000"
 21627      33325F74 
 21627      00
 21628              	.LASF389:
 21629 1bee 64617461 		.ascii	"dataoffset\000"
 21629      6F666673 
 21629      657400
 21630              	.LASF775:
 21631 1bf9 5F6D6178 		.ascii	"_maxwds\000"
 21631      77647300 
 21632              	.LASF291:
 21633 1c01 424C4B5F 		.ascii	"BLK_WRITING\000"
 21633      57524954 
 21633      494E4700 
ARM GAS  /var/folders/bw/wdbp2_bd0pn7gl5ybd33xbb80000gn/T//ccZ5cvgj.s 			page 409


 21634              	.LASF120:
 21635 1c0d 52444C52 		.ascii	"RDLR\000"
 21635      00
 21636              	.LASF756:
 21637 1c12 62756666 		.ascii	"buffer_len\000"
 21637      65725F6C 
 21637      656E00
 21638              	.LASF776:
 21639 1c1d 5F736967 		.ascii	"_sign\000"
 21639      6E00
 21640              	.LASF902:
 21641 1c23 4D415249 		.ascii	"MARIO\000"
 21641      4F00
 21642              	.LASF24:
 21643 1c29 6C6F6E67 		.ascii	"long double\000"
 21643      20646F75 
 21643      626C6500 
 21644              	.LASF192:
 21645 1c35 72656761 		.ascii	"regarm_t\000"
 21645      726D5F74 
 21645      00
 21646              	.LASF33:
 21647 1c3e 6576656E 		.ascii	"eventmask_t\000"
 21647      746D6173 
 21647      6B5F7400 
 21648              	.LASF343:
 21649 1c4a 64657074 		.ascii	"depth\000"
 21649      6800
 21650              	.LASF134:
 21651 1c50 46464131 		.ascii	"FFA1R\000"
 21651      5200
 21652              	.LASF584:
 21653 1c56 5553425F 		.ascii	"USB_SELECTED\000"
 21653      53454C45 
 21653      43544544 
 21653      00
 21654              	.LASF974:
 21655 1c63 655F7365 		.ascii	"e_set_speed_left\000"
 21655      745F7370 
 21655      6565645F 
 21655      6C656674 
 21655      00
 21656              	.LASF11:
 21657 1c74 6C6F6E67 		.ascii	"long unsigned int\000"
 21657      20756E73 
 21657      69676E65 
 21657      6420696E 
 21657      7400
 21658              	.LASF576:
 21659 1c86 706D6E65 		.ascii	"pmnext\000"
 21659      787400
 21660              	.LASF962:
 21661 1c8d 655F6932 		.ascii	"e_i2cp_read\000"
 21661      63705F72 
 21661      65616400 
 21662              	.LASF483:
 21663 1c99 4932535F 		.ascii	"I2S_ACTIVE\000"
ARM GAS  /var/folders/bw/wdbp2_bd0pn7gl5ybd33xbb80000gn/T//ccZ5cvgj.s 			page 410


 21663      41435449 
 21663      564500
 21664              	.LASF426:
 21665 1ca4 4750545F 		.ascii	"GPT_READY\000"
 21665      52454144 
 21665      5900
 21666              	.LASF388:
 21667 1cae 64616373 		.ascii	"dacstate_t\000"
 21667      74617465 
 21667      5F7400
 21668              	.LASF728:
 21669 1cb9 44434D49 		.ascii	"DCMI_TIMEOUT\000"
 21669      5F54494D 
 21669      454F5554 
 21669      00
 21670              	.LASF197:
 21671 1cc6 73655F74 		.ascii	"se_tp\000"
 21671      7000
 21672              	.LASF270:
 21673 1ccc 715F7772 		.ascii	"q_wrptr\000"
 21673      70747200 
 21674              	.LASF396:
 21675 1cd4 64616373 		.ascii	"dacsample_t\000"
 21675      616D706C 
 21675      655F7400 
 21676              	.LASF596:
 21677 1ce0 5553425F 		.ascii	"USB_EVENT_ADDRESS\000"
 21677      4556454E 
 21677      545F4144 
 21677      44524553 
 21677      5300
 21678              	.LASF491:
 21679 1cf2 69327363 		.ascii	"i2scfgr\000"
 21679      66677200 
 21680              	.LASF171:
 21681 1cfa 52455350 		.ascii	"RESPCMD\000"
 21681      434D4400 
 21682              	.LASF375:
 21683 1d02 72786675 		.ascii	"rxfull_event\000"
 21683      6C6C5F65 
 21683      76656E74 
 21683      00
 21684              	.LASF601:
 21685 1d0f 75736265 		.ascii	"usbevent_t\000"
 21685      76656E74 
 21685      5F7400
 21686              	.LASF807:
 21687 1d1a 5F636C6F 		.ascii	"_close\000"
 21687      736500
 21688              	.LASF232:
 21689 1d21 63686172 		.ascii	"char\000"
 21689      00
 21690              	.LASF719:
 21691 1d26 44434D49 		.ascii	"DCMI_ERR_OVERFLOW\000"
 21691      5F455252 
 21691      5F4F5645 
 21691      52464C4F 
ARM GAS  /var/folders/bw/wdbp2_bd0pn7gl5ybd33xbb80000gn/T//ccZ5cvgj.s 			page 411


 21691      5700
 21692              	.LASF155:
 21693 1d38 45534352 		.ascii	"ESCR\000"
 21693      00
 21694              	.LASF372:
 21695 1d3d 43414E43 		.ascii	"CANConfig\000"
 21695      6F6E6669 
 21695      6700
 21696              	.LASF319:
 21697 1d47 50454461 		.ascii	"PEData\000"
 21697      746100
 21698              	.LASF68:
 21699 1d4e 725F7175 		.ascii	"r_queue\000"
 21699      65756500 
 21700              	.LASF839:
 21701 1d56 5F676C75 		.ascii	"_glue\000"
 21701      6500
 21702              	.LASF956:
 21703 1d5c 5F5F6C6F 		.ascii	"__locale_ctype_ptr\000"
 21703      63616C65 
 21703      5F637479 
 21703      70655F70 
 21703      747200
 21704              	.LASF769:
 21705 1d6f 6D657373 		.ascii	"messagebus_watchgroup_s\000"
 21705      61676562 
 21705      75735F77 
 21705      61746368 
 21705      67726F75 
 21706              	.LASF975:
 21707 1d87 655F7365 		.ascii	"e_set_speed_right\000"
 21707      745F7370 
 21707      6565645F 
 21707      72696768 
 21707      7400
 21708              	.LASF501:
 21709 1d99 656E6162 		.ascii	"enabled\000"
 21709      6C656400 
 21710              	.LASF987:
 21711 1da1 655F706F 		.ascii	"e_poxxxx_write_cam_registers\000"
 21711      78787878 
 21711      5F777269 
 21711      74655F63 
 21711      616D5F72 
 21712              	.LASF397:
 21713 1dbe 4441435F 		.ascii	"DAC_ERR_DMAFAILURE\000"
 21713      4552525F 
 21713      444D4146 
 21713      41494C55 
 21713      524500
 21714              	.LASF640:
 21715 1dd1 47525846 		.ascii	"GRXFSIZ\000"
 21715      53495A00 
 21716              	.LASF908:
 21717 1dd9 50495241 		.ascii	"PIRATES_OF_THE_CARIBBEAN\000"
 21717      5445535F 
 21717      4F465F54 
ARM GAS  /var/folders/bw/wdbp2_bd0pn7gl5ybd33xbb80000gn/T//ccZ5cvgj.s 			page 412


 21717      48455F43 
 21717      41524942 
 21718              	.LASF547:
 21719 1df2 73796E63 		.ascii	"sync\000"
 21719      00
 21720              	.LASF521:
 21721 1df7 75736172 		.ascii	"usart\000"
 21721      7400
 21722              	.LASF158:
 21723 1dfd 43575349 		.ascii	"CWSIZER\000"
 21723      5A455200 
 21724              	.LASF533:
 21725 1e05 7364636D 		.ascii	"sdcmode_t\000"
 21725      6F64655F 
 21725      7400
 21726              	.LASF273:
 21727 1e0f 715F6C69 		.ascii	"q_link\000"
 21727      6E6B00
 21728              	.LASF1005:
 21729 1e16 655F696E 		.ascii	"e_init_remote_control\000"
 21729      69745F72 
 21729      656D6F74 
 21729      655F636F 
 21729      6E74726F 
 21730              	.LASF733:
 21731 1e2c 64636D69 		.ascii	"dcmierrorcallback_t\000"
 21731      6572726F 
 21731      7263616C 
 21731      6C626163 
 21731      6B5F7400 
 21732              	.LASF661:
 21733 1e40 44434647 		.ascii	"DCFG\000"
 21733      00
 21734              	.LASF773:
 21735 1e45 5F426967 		.ascii	"_Bigint\000"
 21735      696E7400 
 21736              	.LASF671:
 21737 1e4d 44564255 		.ascii	"DVBUSDIS\000"
 21737      53444953 
 21737      00
 21738              	.LASF637:
 21739 1e56 47494E54 		.ascii	"GINTMSK\000"
 21739      4D534B00 
 21740              	.LASF642:
 21741 1e5e 484E5054 		.ascii	"HNPTXSTS\000"
 21741      58535453 
 21741      00
 21742              	.LASF574:
 21743 1e67 636F6E66 		.ascii	"configuration\000"
 21743      69677572 
 21743      6174696F 
 21743      6E00
 21744              	.LASF834:
 21745 1e75 5F617465 		.ascii	"_atexit0\000"
 21745      78697430 
 21745      00
 21746              	.LASF314:
ARM GAS  /var/folders/bw/wdbp2_bd0pn7gl5ybd33xbb80000gn/T//ccZ5cvgj.s 			page 413


 21747 1e7e 73746D33 		.ascii	"stm32_gpio_setup_t\000"
 21747      325F6770 
 21747      696F5F73 
 21747      65747570 
 21747      5F7400
 21748              	.LASF958:
 21749 1e91 7374726C 		.ascii	"strlen\000"
 21749      656E00
 21750              	.LASF916:
 21751 1e98 4D4C5F57 		.ascii	"ML_WAIT_AND_CHANGE\000"
 21751      4149545F 
 21751      414E445F 
 21751      4348414E 
 21751      474500
 21752              	.LASF1010:
 21753 1eab 655F706F 		.ascii	"e_poxxxx_launch_capture\000"
 21753      78787878 
 21753      5F6C6175 
 21753      6E63685F 
 21753      63617074 
 21754              	.LASF283:
 21755 1ec3 5F73746D 		.ascii	"_stm32_dma_streams\000"
 21755      33325F64 
 21755      6D615F73 
 21755      74726561 
 21755      6D7300
 21756              	.LASF142:
 21757 1ed6 44485231 		.ascii	"DHR12L1\000"
 21757      324C3100 
 21758              	.LASF145:
 21759 1ede 44485231 		.ascii	"DHR12L2\000"
 21759      324C3200 
 21760              	.LASF858:
 21761 1ee6 5F676574 		.ascii	"_getdate_err\000"
 21761      64617465 
 21761      5F657272 
 21761      00
 21762              	.LASF532:
 21763 1ef3 73646362 		.ascii	"sdcbusmode_t\000"
 21763      75736D6F 
 21763      64655F74 
 21763      00
 21764              	.LASF970:
 21765 1f00 655F7365 		.ascii	"e_set_steps_right\000"
 21765      745F7374 
 21765      6570735F 
 21765      72696768 
 21765      7400
 21766              	.LASF952:
 21767 1f12 61636365 		.ascii	"accelero\000"
 21767      6C65726F 
 21767      00
 21768              	.LASF778:
 21769 1f1b 5F5F746D 		.ascii	"__tm\000"
 21769      00
 21770              	.LASF148:
 21771 1f20 44485231 		.ascii	"DHR12LD\000"
ARM GAS  /var/folders/bw/wdbp2_bd0pn7gl5ybd33xbb80000gn/T//ccZ5cvgj.s 			page 414


 21771      324C4400 
 21772              	.LASF923:
 21773 1f28 655F6C61 		.ascii	"e_last_mic_scan_id\000"
 21773      73745F6D 
 21773      69635F73 
 21773      63616E5F 
 21773      696400
 21774              	.LASF349:
 21775 1f3b 61646363 		.ascii	"adccallback_t\000"
 21775      616C6C62 
 21775      61636B5F 
 21775      7400
 21776              	.LASF771:
 21777 1f49 6D657373 		.ascii	"messagebus_watchgroup_t\000"
 21777      61676562 
 21777      75735F77 
 21777      61746368 
 21777      67726F75 
 21778              	.LASF46:
 21779 1f61 705F7374 		.ascii	"p_stklimit\000"
 21779      6B6C696D 
 21779      697400
 21780              	.LASF35:
 21781 1f6c 636E745F 		.ascii	"cnt_t\000"
 21781      7400
 21782              	.LASF415:
 21783 1f72 65787473 		.ascii	"extstate_t\000"
 21783      74617465 
 21783      5F7400
 21784              	.LASF589:
 21785 1f7d 5553425F 		.ascii	"USB_EP0_WAITING_TX0\000"
 21785      4550305F 
 21785      57414954 
 21785      494E475F 
 21785      54583000 
 21786              	.LASF568:
 21787 1f91 6570306E 		.ascii	"ep0next\000"
 21787      65787400 
 21788              	.LASF618:
 21789 1f99 73746D33 		.ascii	"stm32_otg_host_chn_t\000"
 21789      325F6F74 
 21789      675F686F 
 21789      73745F63 
 21789      686E5F74 
 21790              	.LASF306:
 21791 1fae 41465248 		.ascii	"AFRH\000"
 21791      00
 21792              	.LASF755:
 21793 1fb3 62756666 		.ascii	"buffer\000"
 21793      657200
 21794              	.LASF305:
 21795 1fba 4146524C 		.ascii	"AFRL\000"
 21795      00
 21796              	.LASF870:
 21797 1fbf 5F696D70 		.ascii	"_impure_ptr\000"
 21797      7572655F 
 21797      70747200 
ARM GAS  /var/folders/bw/wdbp2_bd0pn7gl5ybd33xbb80000gn/T//ccZ5cvgj.s 			page 415


 21798              	.LASF249:
 21799 1fcb 63665F6F 		.ascii	"cf_off_preempt\000"
 21799      66665F70 
 21799      7265656D 
 21799      707400
 21800              	.LASF867:
 21801 1fda 5F756E75 		.ascii	"_unused\000"
 21801      73656400 
 21802              	.LASF386:
 21803 1fe2 4441435F 		.ascii	"DAC_COMPLETE\000"
 21803      434F4D50 
 21803      4C455445 
 21803      00
 21804              	.LASF627:
 21805 1fef 444F4550 		.ascii	"DOEPCTL\000"
 21805      43544C00 
 21806              	.LASF613:
 21807 1ff7 4843494E 		.ascii	"HCINTMSK\000"
 21807      544D534B 
 21807      00
 21808              	.LASF808:
 21809 2000 5F756275 		.ascii	"_ubuf\000"
 21809      6600
 21810              	.LASF997:
 21811 2006 67657459 		.ascii	"getYAxisGyro\000"
 21811      41786973 
 21811      4779726F 
 21811      00
 21812              	.LASF341:
 21813 2013 636F6E66 		.ascii	"config\000"
 21813      696700
 21814              	.LASF449:
 21815 201a 47505444 		.ascii	"GPTD11\000"
 21815      313100
 21816              	.LASF450:
 21817 2021 47505444 		.ascii	"GPTD12\000"
 21817      313200
 21818              	.LASF853:
 21819 2028 5F6D626C 		.ascii	"_mblen_state\000"
 21819      656E5F73 
 21819      74617465 
 21819      00
 21820              	.LASF836:
 21821 2035 5F5F7367 		.ascii	"__sglue\000"
 21821      6C756500 
 21822              	.LASF869:
 21823 203d 5F5F6C6F 		.ascii	"__locale_t\000"
 21823      63616C65 
 21823      5F7400
 21824              	.LASF287:
 21825 2048 424C4B5F 		.ascii	"BLK_CONNECTING\000"
 21825      434F4E4E 
 21825      45435449 
 21825      4E4700
 21826              	.LASF826:
 21827 2057 5F5F636C 		.ascii	"__cleanup\000"
 21827      65616E75 
ARM GAS  /var/folders/bw/wdbp2_bd0pn7gl5ybd33xbb80000gn/T//ccZ5cvgj.s 			page 416


 21827      7000
 21828              	.LASF993:
 21829 2061 655F7365 		.ascii	"e_send_uart2_char\000"
 21829      6E645F75 
 21829      61727432 
 21829      5F636861 
 21829      7200
 21830              	.LASF382:
 21831 2073 4441435F 		.ascii	"DAC_UNINIT\000"
 21831      554E494E 
 21831      495400
 21832              	.LASF335:
 21833 207e 6164635F 		.ascii	"adc_channels_num_t\000"
 21833      6368616E 
 21833      6E656C73 
 21833      5F6E756D 
 21833      5F7400
 21834              	.LASF74:
 21835 2091 76746675 		.ascii	"vtfunc_t\000"
 21835      6E635F74 
 21835      00
 21836              	.LASF122:
 21837 209a 43414E5F 		.ascii	"CAN_FIFOMailBox_TypeDef\000"
 21837      4649464F 
 21837      4D61696C 
 21837      426F785F 
 21837      54797065 
 21838              	.LASF152:
 21839 20b2 4441435F 		.ascii	"DAC_TypeDef\000"
 21839      54797065 
 21839      44656600 
 21840              	.LASF219:
 21841 20be 77746F62 		.ascii	"wtobjp\000"
 21841      6A7000
 21842              	.LASF740:
 21843 20c5 5F66706F 		.ascii	"_fpos_t\000"
 21843      735F7400 
 21844              	.LASF402:
 21845 20cd 4441435F 		.ascii	"DAC_DHRM_12BIT_RIGHT\000"
 21845      4448524D 
 21845      5F313242 
 21845      49545F52 
 21845      49474854 
 21846              	.LASF801:
 21847 20e2 5F66696C 		.ascii	"_file\000"
 21847      6500
 21848              	.LASF943:
 21849 20e8 63616D5F 		.ascii	"cam_heigth\000"
 21849      68656967 
 21849      746800
 21850              	.LASF922:
 21851 20f3 54797065 		.ascii	"TypeAccSpheric\000"
 21851      41636353 
 21851      70686572 
 21851      696300
 21852              	.LASF57:
 21853 2102 705F7265 		.ascii	"p_realprio\000"
ARM GAS  /var/folders/bw/wdbp2_bd0pn7gl5ybd33xbb80000gn/T//ccZ5cvgj.s 			page 417


 21853      616C7072 
 21853      696F00
 21854              	.LASF536:
 21855 210d 63617061 		.ascii	"capacity\000"
 21855      63697479 
 21855      00
 21856              	.LASF272:
 21857 2116 715F6E6F 		.ascii	"q_notify\000"
 21857      74696679 
 21857      00
 21858              	.LASF222:
 21859 211f 77746D74 		.ascii	"wtmtxp\000"
 21859      787000
 21860              	.LASF799:
 21861 2126 5F5F7346 		.ascii	"__sFILE\000"
 21861      494C4500 
 21862              	.LASF959:
 21863 212e 655F7365 		.ascii	"e_send_uart1_char\000"
 21863      6E645F75 
 21863      61727431 
 21863      5F636861 
 21863      7200
 21864              	.LASF892:
 21865 2140 646F7562 		.ascii	"double\000"
 21865      6C6500
 21866              	.LASF795:
 21867 2147 5F666E73 		.ascii	"_fns\000"
 21867      00
 21868              	.LASF734:
 21869 214c 6672616D 		.ascii	"frame_end_cb\000"
 21869      655F656E 
 21869      645F6362 
 21869      00
 21870              	.LASF700:
 21871 2159 5553424F 		.ascii	"USBOutEndpointState\000"
 21871      7574456E 
 21871      64706F69 
 21871      6E745374 
 21871      61746500 
 21872              	.LASF1021:
 21873 216d 5F5F6275 		.ascii	"__builtin_memcpy\000"
 21873      696C7469 
 21873      6E5F6D65 
 21873      6D637079 
 21873      00
 21874              	.LASF657:
 21875 217e 72657376 		.ascii	"resvd41C\000"
 21875      64343143 
 21875      00
 21876              	.LASF881:
 21877 2187 6368616E 		.ascii	"changed\000"
 21877      67656400 
 21878              	.LASF746:
 21879 218f 5F6D6273 		.ascii	"_mbstate_t\000"
 21879      74617465 
 21879      5F7400
 21880              	.LASF864:
ARM GAS  /var/folders/bw/wdbp2_bd0pn7gl5ybd33xbb80000gn/T//ccZ5cvgj.s 			page 418


 21881 219a 5F685F65 		.ascii	"_h_errno\000"
 21881      72726E6F 
 21881      00
 21882              	.LASF903:
 21883 21a3 554E4445 		.ascii	"UNDERWORLD\000"
 21883      52574F52 
 21883      4C4400
 21884              	.LASF119:
 21885 21ae 52445452 		.ascii	"RDTR\000"
 21885      00
 21886              	.LASF295:
 21887 21b3 626C6B5F 		.ascii	"blk_num\000"
 21887      6E756D00 
 21888              	.LASF595:
 21889 21bb 5553425F 		.ascii	"USB_EVENT_RESET\000"
 21889      4556454E 
 21889      545F5245 
 21889      53455400 
 21890              	.LASF1016:
 21891 21cb 2E2E2F2E 		.ascii	"../../lib/e-puck2_main-processor/src/epuck1x/Aserco"
 21891      2E2F6C69 
 21891      622F652D 
 21891      7075636B 
 21891      325F6D61 
 21892 21fe 6D2E6300 		.ascii	"m.c\000"
 21893              	.LASF67:
 21894 2202 63685F72 		.ascii	"ch_ready_list\000"
 21894      65616479 
 21894      5F6C6973 
 21894      7400
 21895              	.LASF764:
 21896 2210 67726F75 		.ascii	"group\000"
 21896      7000
 21897              	.LASF302:
 21898 2216 50555044 		.ascii	"PUPDR\000"
 21898      5200
 21899              	.LASF8:
 21900 221c 5F5F696E 		.ascii	"__int32_t\000"
 21900      7433325F 
 21900      7400
 21901              	.LASF917:
 21902 2226 4D4C5F46 		.ascii	"ML_FORCE_CHANGE\000"
 21902      4F524345 
 21902      5F434841 
 21902      4E474500 
 21903              	.LASF10:
 21904 2236 5F5F7569 		.ascii	"__uint32_t\000"
 21904      6E743332 
 21904      5F7400
 21905              	.LASF906:
 21906 2241 4D415249 		.ascii	"MARIO_FLAG\000"
 21906      4F5F464C 
 21906      414700
 21907              	.LASF86:
 21908 224c 63685F73 		.ascii	"ch_system_debug\000"
 21908      79737465 
 21908      6D5F6465 
ARM GAS  /var/folders/bw/wdbp2_bd0pn7gl5ybd33xbb80000gn/T//ccZ5cvgj.s 			page 419


 21908      62756700 
 21909              	.LASF668:
 21910 225c 4441494E 		.ascii	"DAINTMSK\000"
 21910      544D534B 
 21910      00
 21911              	.LASF724:
 21912 2265 44434D49 		.ascii	"DCMI_ACTIVE_STREAM\000"
 21912      5F414354 
 21912      4956455F 
 21912      53545245 
 21912      414D00
 21913              	.LASF422:
 21914 2278 45585443 		.ascii	"EXTConfig\000"
 21914      6F6E6669 
 21914      6700
 21915              	.LASF874:
 21916 2282 70617261 		.ascii	"parameter_namespace_s\000"
 21916      6D657465 
 21916      725F6E61 
 21916      6D657370 
 21916      6163655F 
 21917              	.LASF267:
 21918 2298 715F636F 		.ascii	"q_counter\000"
 21918      756E7465 
 21918      7200
 21919              	.LASF587:
 21920 22a2 5553425F 		.ascii	"USB_EP0_WAITING_SETUP\000"
 21920      4550305F 
 21920      57414954 
 21920      494E475F 
 21920      53455455 
 21921              	.LASF792:
 21922 22b8 5F69735F 		.ascii	"_is_cxa\000"
 21922      63786100 
 21923              	.LASF290:
 21924 22c0 424C4B5F 		.ascii	"BLK_READING\000"
 21924      52454144 
 21924      494E4700 
 21925              	.LASF312:
 21926 22cc 6166726C 		.ascii	"afrl\000"
 21926      00
 21927              	.LASF690:
 21928 22d1 71756575 		.ascii	"queue\000"
 21928      6500
 21929              	.LASF570:
 21930 22d7 65703065 		.ascii	"ep0endcb\000"
 21930      6E646362 
 21930      00
 21931              	.LASF1013:
 21932 22e0 655F706F 		.ascii	"e_poxxxx_is_img_ready\000"
 21932      78787878 
 21932      5F69735F 
 21932      696D675F 
 21932      72656164 
 21933              	.LASF280:
 21934 22f6 73656C66 		.ascii	"selfindex\000"
 21934      696E6465 
ARM GAS  /var/folders/bw/wdbp2_bd0pn7gl5ybd33xbb80000gn/T//ccZ5cvgj.s 			page 420


 21934      7800
 21935              	.LASF253:
 21936 2300 6D757465 		.ascii	"mutex_t\000"
 21936      785F7400 
 21937              	.LASF829:
 21938 2308 5F703573 		.ascii	"_p5s\000"
 21938      00
 21939              	.LASF55:
 21940 230d 705F6570 		.ascii	"p_epending\000"
 21940      656E6469 
 21940      6E6700
 21941              	.LASF1012:
 21942 2318 67657441 		.ascii	"getAllAxesGyro\000"
 21942      6C6C4178 
 21942      65734779 
 21942      726F00
 21943              	.LASF299:
 21944 2327 4D4F4445 		.ascii	"MODER\000"
 21944      5200
 21945              	.LASF484:
 21946 232d 4932535F 		.ascii	"I2S_COMPLETE\000"
 21946      434F4D50 
 21946      4C455445 
 21946      00
 21947              	.LASF985:
 21948 233a 655F706F 		.ascii	"e_poxxxx_init_cam\000"
 21948      78787878 
 21948      5F696E69 
 21948      745F6361 
 21948      6D00
 21949              	.LASF761:
 21950 234c 77617463 		.ascii	"watchers\000"
 21950      68657273 
 21950      00
 21951              	.LASF126:
 21952 2355 52455345 		.ascii	"RESERVED0\000"
 21952      52564544 
 21952      3000
 21953              	.LASF129:
 21954 235f 52455345 		.ascii	"RESERVED1\000"
 21954      52564544 
 21954      3100
 21955              	.LASF131:
 21956 2369 52455345 		.ascii	"RESERVED2\000"
 21956      52564544 
 21956      3200
 21957              	.LASF133:
 21958 2373 52455345 		.ascii	"RESERVED3\000"
 21958      52564544 
 21958      3300
 21959              	.LASF135:
 21960 237d 52455345 		.ascii	"RESERVED4\000"
 21960      52564544 
 21960      3400
 21961              	.LASF137:
 21962 2387 52455345 		.ascii	"RESERVED5\000"
 21962      52564544 
ARM GAS  /var/folders/bw/wdbp2_bd0pn7gl5ybd33xbb80000gn/T//ccZ5cvgj.s 			page 421


 21962      3500
 21963              	.LASF711:
 21964 2391 55534245 		.ascii	"USBEndpointConfig\000"
 21964      6E64706F 
 21964      696E7443 
 21964      6F6E6669 
 21964      6700
 21965              	.LASF141:
 21966 23a3 44485231 		.ascii	"DHR12R1\000"
 21966      32523100 
 21967              	.LASF144:
 21968 23ab 44485231 		.ascii	"DHR12R2\000"
 21968      32523200 
 21969              	.LASF418:
 21970 23b3 65787463 		.ascii	"extcallback_t\000"
 21970      616C6C62 
 21970      61636B5F 
 21970      7400
 21971              	.LASF374:
 21972 23c1 72787175 		.ascii	"rxqueue\000"
 21972      65756500 
 21973              	.LASF196:
 21974 23c9 73655F74 		.ascii	"se_time\000"
 21974      696D6500 
 21975              	.LASF659:
 21976 23d1 72657376 		.ascii	"resvd444\000"
 21976      64343434 
 21976      00
 21977              	.LASF326:
 21978 23da 70616C5F 		.ascii	"pal_default_config\000"
 21978      64656661 
 21978      756C745F 
 21978      636F6E66 
 21978      696700
 21979              	.LASF871:
 21980 23ed 5F676C6F 		.ascii	"_global_impure_ptr\000"
 21980      62616C5F 
 21980      696D7075 
 21980      72655F70 
 21980      747200
 21981              	.LASF344:
 21982 2400 67727070 		.ascii	"grpp\000"
 21982      00
 21983              	.LASF147:
 21984 2405 44485231 		.ascii	"DHR12RD\000"
 21984      32524400 
 21985              	.LASF257:
 21986 240d 656C5F6C 		.ascii	"el_listener\000"
 21986      69737465 
 21986      6E657200 
 21987              	.LASF689:
 21988 2419 6C696E65 		.ascii	"linear\000"
 21988      617200
 21989              	.LASF723:
 21990 2420 44434D49 		.ascii	"DCMI_READY\000"
 21990      5F524541 
 21990      445900
ARM GAS  /var/folders/bw/wdbp2_bd0pn7gl5ybd33xbb80000gn/T//ccZ5cvgj.s 			page 422


 21991              	.LASF978:
 21992 242b 63685468 		.ascii	"chThdSleep\000"
 21992      64536C65 
 21992      657000
 21993              	.LASF442:
 21994 2436 73746D33 		.ascii	"stm32_tim_t\000"
 21994      325F7469 
 21994      6D5F7400 
 21995              	.LASF69:
 21996 2442 725F7072 		.ascii	"r_prio\000"
 21996      696F00
 21997              	.LASF154:
 21998 2449 4D495352 		.ascii	"MISR\000"
 21998      00
 21999              	.LASF98:
 22000 244e 49544D5F 		.ascii	"ITM_RxBuffer\000"
 22000      52784275 
 22000      66666572 
 22000      00
 22001              	.LASF1009:
 22002 245b 655F6765 		.ascii	"e_getchar_uart2\000"
 22002      74636861 
 22002      725F7561 
 22002      72743200 
 22003              	.LASF296:
 22004 246b 426C6F63 		.ascii	"BlockDeviceInfo\000"
 22004      6B446576 
 22004      69636549 
 22004      6E666F00 
 22005              	.LASF14:
 22006 247b 6C6F6E67 		.ascii	"long long unsigned int\000"
 22006      206C6F6E 
 22006      6720756E 
 22006      7369676E 
 22006      65642069 
 22007              	.LASF183:
 22008 2492 5344494F 		.ascii	"SDIO_TypeDef\000"
 22008      5F547970 
 22008      65446566 
 22008      00
 22009              	.LASF205:
 22010 249f 6F666673 		.ascii	"offset\000"
 22010      657400
 22011              	.LASF767:
 22012 24a6 746F7069 		.ascii	"topics\000"
 22012      637300
 22013              	.LASF160:
 22014 24ad 4E445452 		.ascii	"NDTR\000"
 22014      00
 22015              	.LASF262:
 22016 24b2 65735F6E 		.ascii	"es_next\000"
 22016      65787400 
 22017              	.LASF850:
 22018 24ba 5F67616D 		.ascii	"_gamma_signgam\000"
 22018      6D615F73 
 22018      69676E67 
 22018      616D00
ARM GAS  /var/folders/bw/wdbp2_bd0pn7gl5ybd33xbb80000gn/T//ccZ5cvgj.s 			page 423


 22019              	.LASF625:
 22020 24c9 72657376 		.ascii	"resvd1C\000"
 22020      64314300 
 22021              	.LASF97:
 22022 24d1 69646C65 		.ascii	"idle_thread_wa\000"
 22022      5F746872 
 22022      6561645F 
 22022      776100
 22023              	.LASF621:
 22024 24e0 44494550 		.ascii	"DIEPINT\000"
 22024      494E5400 
 22025              	.LASF189:
 22026 24e8 5350495F 		.ascii	"SPI_TypeDef\000"
 22026      54797065 
 22026      44656600 
 22027              	.LASF80:
 22028 24f4 76745F66 		.ascii	"vt_func\000"
 22028      756E6300 
 22029              	.LASF433:
 22030 24fc 534D4352 		.ascii	"SMCR\000"
 22030      00
 22031              	.LASF666:
 22032 2501 444F4550 		.ascii	"DOEPMSK\000"
 22032      4D534B00 
 22033              	.LASF76:
 22034 2509 63685F76 		.ascii	"ch_virtual_timer\000"
 22034      69727475 
 22034      616C5F74 
 22034      696D6572 
 22034      00
 22035              	.LASF48:
 22036 251a 705F666C 		.ascii	"p_flags\000"
 22036      61677300 
 22037              	.LASF992:
 22038 2522 67657442 		.ascii	"getBatteryValuePercentage\000"
 22038      61747465 
 22038      72795661 
 22038      6C756550 
 22038      65726365 
 22039              	.LASF223:
 22040 253c 65776D61 		.ascii	"ewmask\000"
 22040      736B00
 22041              	.LASF259:
 22042 2543 656C5F66 		.ascii	"el_flags\000"
 22042      6C616773 
 22042      00
 22043              	.LASF812:
 22044 254c 5F646174 		.ascii	"_data\000"
 22044      6100
 22045              	.LASF261:
 22046 2552 6576656E 		.ascii	"event_source\000"
 22046      745F736F 
 22046      75726365 
 22046      00
 22047              	.LASF56:
 22048 255f 705F6D74 		.ascii	"p_mtxlist\000"
 22048      786C6973 
ARM GAS  /var/folders/bw/wdbp2_bd0pn7gl5ybd33xbb80000gn/T//ccZ5cvgj.s 			page 424


 22048      7400
 22049              	.LASF381:
 22050 2569 43414E44 		.ascii	"CAND1\000"
 22050      3100
 22051              	.LASF132:
 22052 256f 46533152 		.ascii	"FS1R\000"
 22052      00
 22053              	.LASF28:
 22054 2574 74737461 		.ascii	"tstate_t\000"
 22054      74655F74 
 22054      00
 22055              	.LASF556:
 22056 257d 53504944 		.ascii	"SPIDriver\000"
 22056      72697665 
 22056      7200
 22057              	.LASF667:
 22058 2587 4441494E 		.ascii	"DAINT\000"
 22058      5400
 22059              	.LASF560:
 22060 258d 53504943 		.ascii	"SPIConfig\000"
 22060      6F6E6669 
 22060      6700
 22061              	.LASF823:
 22062 2597 5F756E73 		.ascii	"_unspecified_locale_info\000"
 22062      70656369 
 22062      66696564 
 22062      5F6C6F63 
 22062      616C655F 
 22063              	.LASF311:
 22064 25b0 70757064 		.ascii	"pupdr\000"
 22064      7200
 22065              	.LASF401:
 22066 25b6 64616365 		.ascii	"dacerrorcallback_t\000"
 22066      72726F72 
 22066      63616C6C 
 22066      6261636B 
 22066      5F7400
 22067              	.LASF731:
 22068 25c9 64636D69 		.ascii	"dcmi\000"
 22068      00
 22069              	.LASF563:
 22070 25ce 7472616E 		.ascii	"transmitting\000"
 22070      736D6974 
 22070      74696E67 
 22070      00
 22071              	.LASF421:
 22072 25db 6368616E 		.ascii	"channels\000"
 22072      6E656C73 
 22072      00
 22073              	.LASF170:
 22074 25e4 434C4B43 		.ascii	"CLKCR\000"
 22074      5200
 22075              	.LASF535:
 22076 25ea 53444344 		.ascii	"SDCDriver\000"
 22076      72697665 
 22076      7200
 22077              	.LASF45:
ARM GAS  /var/folders/bw/wdbp2_bd0pn7gl5ybd33xbb80000gn/T//ccZ5cvgj.s 			page 425


 22078 25f4 705F6E61 		.ascii	"p_name\000"
 22078      6D6500
 22079              	.LASF825:
 22080 25fb 5F5F7364 		.ascii	"__sdidinit\000"
 22080      6964696E 
 22080      697400
 22081              	.LASF517:
 22082 2606 53657269 		.ascii	"SerialDriver\000"
 22082      616C4472 
 22082      69766572 
 22082      00
 22083              	.LASF110:
 22084 2613 4A445231 		.ascii	"JDR1\000"
 22084      00
 22085              	.LASF111:
 22086 2618 4A445232 		.ascii	"JDR2\000"
 22086      00
 22087              	.LASF112:
 22088 261d 4A445233 		.ascii	"JDR3\000"
 22088      00
 22089              	.LASF113:
 22090 2622 4A445234 		.ascii	"JDR4\000"
 22090      00
 22091              	.LASF629:
 22092 2627 444F4550 		.ascii	"DOEPTSIZ\000"
 22092      5453495A 
 22092      00
 22093              	.LASF329:
 22094 2630 4144435F 		.ascii	"ADC_READY\000"
 22094      52454144 
 22094      5900
 22095              	.LASF759:
 22096 263a 6E616D65 		.ascii	"name\000"
 22096      00
 22097              	.LASF747:
 22098 263f 5F666C6F 		.ascii	"_flock_t\000"
 22098      636B5F74 
 22098      00
 22099              	.LASF82:
 22100 2648 76697274 		.ascii	"virtual_timers_list_t\000"
 22100      75616C5F 
 22100      74696D65 
 22100      72735F6C 
 22100      6973745F 
 22101              	.LASF653:
 22102 265e 72657376 		.ascii	"resvd40C\000"
 22102      64343043 
 22102      00
 22103              	.LASF351:
 22104 2667 63697263 		.ascii	"circular\000"
 22104      756C6172 
 22104      00
 22105              	.LASF485:
 22106 2670 69327373 		.ascii	"i2sstate_t\000"
 22106      74617465 
 22106      5F7400
 22107              	.LASF308:
ARM GAS  /var/folders/bw/wdbp2_bd0pn7gl5ybd33xbb80000gn/T//ccZ5cvgj.s 			page 426


 22108 267b 6D6F6465 		.ascii	"moder\000"
 22108      7200
 22109              	.LASF225:
 22110 2681 735F7175 		.ascii	"s_queue\000"
 22110      65756500 
 22111              	.LASF214:
 22112 2689 6D5F6372 		.ascii	"m_crit_thd\000"
 22112      69745F74 
 22112      686400
 22113              	.LASF383:
 22114 2694 4441435F 		.ascii	"DAC_STOP\000"
 22114      53544F50 
 22114      00
 22115              	.LASF660:
 22116 269d 72657376 		.ascii	"resvd700\000"
 22116      64373030 
 22116      00
 22117              	.LASF187:
 22118 26a6 49325343 		.ascii	"I2SCFGR\000"
 22118      46475200 
 22119              	.LASF750:
 22120 26ae 6F707469 		.ascii	"optind\000"
 22120      6E6400
 22121              	.LASF233:
 22122 26b5 63685F69 		.ascii	"ch_identifier\000"
 22122      64656E74 
 22122      69666965 
 22122      7200
 22123              	.LASF527:
 22124 26c3 77726974 		.ascii	"writet\000"
 22124      657400
 22125              	.LASF913:
 22126 26ca 4E425F53 		.ascii	"NB_SONGS\000"
 22126      4F4E4753 
 22126      00
 22127              	.LASF12:
 22128 26d3 6C6F6E67 		.ascii	"long long int\000"
 22128      206C6F6E 
 22128      6720696E 
 22128      7400
 22129              	.LASF999:
 22130 26e1 67657454 		.ascii	"getTemperature\000"
 22130      656D7065 
 22130      72617475 
 22130      726500
 22131              	.LASF647:
 22132 26f0 48505458 		.ascii	"HPTXFSIZ\000"
 22132      4653495A 
 22132      00
 22133              	.LASF735:
 22134 26f9 7472616E 		.ascii	"transfer_complete_cb\000"
 22134      73666572 
 22134      5F636F6D 
 22134      706C6574 
 22134      655F6362 
 22135              	.LASF240:
 22136 270e 63665F6F 		.ascii	"cf_off_prio\000"
ARM GAS  /var/folders/bw/wdbp2_bd0pn7gl5ybd33xbb80000gn/T//ccZ5cvgj.s 			page 427


 22136      66665F70 
 22136      72696F00 
 22137              	.LASF815:
 22138 271a 5F666C61 		.ascii	"_flags2\000"
 22138      67733200 
 22139              	.LASF973:
 22140 2722 655F6765 		.ascii	"e_get_micro_volume\000"
 22140      745F6D69 
 22140      63726F5F 
 22140      766F6C75 
 22140      6D6500
 22141              	.LASF865:
 22142 2735 5F6E6578 		.ascii	"_nextf\000"
 22142      746600
 22143              	.LASF211:
 22144 273c 74696D65 		.ascii	"time_measurement_t\000"
 22144      5F6D6561 
 22144      73757265 
 22144      6D656E74 
 22144      5F7400
 22145              	.LASF548:
 22146 274f 6765745F 		.ascii	"get_info\000"
 22146      696E666F 
 22146      00
 22147              	.LASF338:
 22148 2758 61646365 		.ascii	"adcerror_t\000"
 22148      72726F72 
 22148      5F7400
 22149              	.LASF713:
 22150 2763 6765745F 		.ascii	"get_descriptor_cb\000"
 22150      64657363 
 22150      72697074 
 22150      6F725F63 
 22150      6200
 22151              	.LASF824:
 22152 2775 5F6C6F63 		.ascii	"_locale\000"
 22152      616C6500 
 22153              	.LASF34:
 22154 277d 6576656E 		.ascii	"eventflags_t\000"
 22154      74666C61 
 22154      67735F74 
 22154      00
 22155              	.LASF552:
 22156 278a 5350495F 		.ascii	"SPI_READY\000"
 22156      52454144 
 22156      5900
 22157              	.LASF128:
 22158 2794 73464946 		.ascii	"sFIFOMailBox\000"
 22158      4F4D6169 
 22158      6C426F78 
 22158      00
 22159              	.LASF540:
 22160 27a1 6275735F 		.ascii	"bus_width\000"
 22160      77696474 
 22160      6800
 22161              	.LASF933:
 22162 27ab 4C45445F 		.ascii	"LED_action\000"
ARM GAS  /var/folders/bw/wdbp2_bd0pn7gl5ybd33xbb80000gn/T//ccZ5cvgj.s 			page 428


 22162      61637469 
 22162      6F6E00
 22163              	.LASF149:
 22164 27b6 44485238 		.ascii	"DHR8RD\000"
 22164      524400
 22165              	.LASF662:
 22166 27bd 4443544C 		.ascii	"DCTL\000"
 22166      00
 22167              	.LASF542:
 22168 27c2 53444344 		.ascii	"SDCDriverVMT\000"
 22168      72697665 
 22168      72564D54 
 22168      00
 22169              	.LASF688:
 22170 27cf 74786275 		.ascii	"txbuf\000"
 22170      6600
 22171              	.LASF681:
 22172 27d5 50434743 		.ascii	"PCGCCTL\000"
 22172      43544C00 
 22173              	.LASF599:
 22174 27dd 5553425F 		.ascii	"USB_EVENT_WAKEUP\000"
 22174      4556454E 
 22174      545F5741 
 22174      4B455550 
 22174      00
 22175              	.LASF852:
 22176 27ee 5F723438 		.ascii	"_r48\000"
 22176      00
 22177              	.LASF938:
 22178 27f3 6779726F 		.ascii	"gyrox\000"
 22178      7800
 22179              	.LASF940:
 22180 27f9 6779726F 		.ascii	"gyroz\000"
 22180      7A00
 22181              	.LASF44:
 22182 27ff 705F6F6C 		.ascii	"p_older\000"
 22182      64657200 
 22183              	.LASF292:
 22184 2807 424C4B5F 		.ascii	"BLK_SYNCING\000"
 22184      53594E43 
 22184      494E4700 
 22185              	.LASF323:
 22186 2813 50494461 		.ascii	"PIData\000"
 22186      746100
 22187              	.LASF710:
 22188 281a 73657475 		.ascii	"setup_buf\000"
 22188      705F6275 
 22188      6600
 22189              	.LASF448:
 22190 2824 47505444 		.ascii	"GPTD6\000"
 22190      3600
 22191              	.LASF718:
 22192 282a 44434D49 		.ascii	"DCMI_ERR_DMAFAILURE\000"
 22192      5F455252 
 22192      5F444D41 
 22192      4641494C 
 22192      55524500 
ARM GAS  /var/folders/bw/wdbp2_bd0pn7gl5ybd33xbb80000gn/T//ccZ5cvgj.s 			page 429


 22193              	.LASF354:
 22194 283e 6572726F 		.ascii	"error_cb\000"
 22194      725F6362 
 22194      00
 22195              	.LASF288:
 22196 2847 424C4B5F 		.ascii	"BLK_DISCONNECTING\000"
 22196      44495343 
 22196      4F4E4E45 
 22196      4354494E 
 22196      4700
 22197              	.LASF558:
 22198 2859 7373706F 		.ascii	"ssport\000"
 22198      727400
 22199              	.LASF886:
 22200 2860 6275665F 		.ascii	"buf_len\000"
 22200      6C656E00 
 22201              	.LASF60:
 22202 2868 74687265 		.ascii	"thread_reference_t\000"
 22202      61645F72 
 22202      65666572 
 22202      656E6365 
 22202      5F7400
 22203              	.LASF720:
 22204 287b 64636D69 		.ascii	"dcmierror_t\000"
 22204      6572726F 
 22204      725F7400 
 22205              	.LASF417:
 22206 2887 65787063 		.ascii	"expchannel_t\000"
 22206      68616E6E 
 22206      656C5F74 
 22206      00
 22207              	.LASF564:
 22208 2894 72656365 		.ascii	"receiving\000"
 22208      6976696E 
 22208      6700
 22209              	.LASF878:
 22210 289e 70617261 		.ascii	"parameter_list\000"
 22210      6D657465 
 22210      725F6C69 
 22210      737400
 22211              	.LASF838:
 22212 28ad 5F5F4649 		.ascii	"__FILE\000"
 22212      4C4500
 22213              	.LASF444:
 22214 28b4 66726571 		.ascii	"frequency\000"
 22214      75656E63 
 22214      7900
 22215              	.LASF206:
 22216 28be 746D5F63 		.ascii	"tm_calibration_t\000"
 22216      616C6962 
 22216      72617469 
 22216      6F6E5F74 
 22216      00
 22217              	.LASF0:
 22218 28cf 5F5F696E 		.ascii	"__int8_t\000"
 22218      74385F74 
 22218      00
ARM GAS  /var/folders/bw/wdbp2_bd0pn7gl5ybd33xbb80000gn/T//ccZ5cvgj.s 			page 430


 22219              	.LASF707:
 22220 28d8 696E5F73 		.ascii	"in_state\000"
 22220      74617465 
 22220      00
 22221              	.LASF190:
 22222 28e1 47545052 		.ascii	"GTPR\000"
 22222      00
 22223              	.LASF955:
 22224 28e6 48577665 		.ascii	"HWversion\000"
 22224      7273696F 
 22224      6E00
 22225              	.LASF234:
 22226 28f0 63685F7A 		.ascii	"ch_zero\000"
 22226      65726F00 
 22227              	.LASF465:
 22228 28f8 46415354 		.ascii	"FAST_DUTY_CYCLE_2\000"
 22228      5F445554 
 22228      595F4359 
 22228      434C455F 
 22228      3200
 22229              	.LASF178:
 22230 290a 44435452 		.ascii	"DCTRL\000"
 22230      4C00
 22231              	.LASF239:
 22232 2910 63685F74 		.ascii	"ch_threadsize\000"
 22232      68726561 
 22232      6473697A 
 22232      6500
 22233              	.LASF167:
 22234 291e 464C5452 		.ascii	"FLTR\000"
 22234      00
 22235              	.LASF897:
 22236 2923 5F5F6664 		.ascii	"__fdlib_version\000"
 22236      6C69625F 
 22236      76657273 
 22236      696F6E00 
 22237              	.LASF435:
 22238 2933 43434D52 		.ascii	"CCMR1\000"
 22238      3100
 22239              	.LASF436:
 22240 2939 43434D52 		.ascii	"CCMR2\000"
 22240      3200
 22241              	.LASF440:
 22242 293f 43434D52 		.ascii	"CCMR3\000"
 22242      3300
 22243              	.LASF15:
 22244 2945 756E7369 		.ascii	"unsigned int\000"
 22244      676E6564 
 22244      20696E74 
 22244      00
 22245              	.LASF358:
 22246 2952 73717232 		.ascii	"sqr2\000"
 22246      00
 22247              	.LASF359:
 22248 2957 73717233 		.ascii	"sqr3\000"
 22248      00
 22249              	.LASF730:
ARM GAS  /var/folders/bw/wdbp2_bd0pn7gl5ybd33xbb80000gn/T//ccZ5cvgj.s 			page 431


 22250 295c 44434D49 		.ascii	"DCMIDriver\000"
 22250      44726976 
 22250      657200
 22251              	.LASF651:
 22252 2967 48464952 		.ascii	"HFIR\000"
 22252      00
 22253              	.LASF736:
 22254 296c 44434D49 		.ascii	"DCMIConfig\000"
 22254      436F6E66 
 22254      696700
 22255              	.LASF581:
 22256 2977 5553425F 		.ascii	"USB_UNINIT\000"
 22256      554E494E 
 22256      495400
 22257              	.LASF277:
 22258 2982 73747265 		.ascii	"stream\000"
 22258      616D00
 22259              	.LASF361:
 22260 2989 64756D6D 		.ascii	"dummy\000"
 22260      7900
 22261              	.LASF909:
 22262 298f 53494D50 		.ascii	"SIMPSON\000"
 22262      534F4E00 
 22263              	.LASF463:
 22264 2997 6932636F 		.ascii	"i2copmode_t\000"
 22264      706D6F64 
 22264      655F7400 
 22265              	.LASF156:
 22266 29a3 45535552 		.ascii	"ESUR\000"
 22266      00
 22267              	.LASF255:
 22268 29a8 6576656E 		.ascii	"event_listener\000"
 22268      745F6C69 
 22268      7374656E 
 22268      657200
 22269              	.LASF844:
 22270 29b7 5F6D756C 		.ascii	"_mult\000"
 22270      7400
 22271              	.LASF5:
 22272 29bd 73686F72 		.ascii	"short int\000"
 22272      7420696E 
 22272      7400
 22273              	.LASF605:
 22274 29c7 75736263 		.ascii	"usbcallback_t\000"
 22274      616C6C62 
 22274      61636B5F 
 22274      7400
 22275              	.LASF804:
 22276 29d5 5F726561 		.ascii	"_read\000"
 22276      6400
 22277              	.LASF634:
 22278 29db 47555342 		.ascii	"GUSBCFG\000"
 22278      43464700 
 22279              	.LASF191:
 22280 29e3 55534152 		.ascii	"USART_TypeDef\000"
 22280      545F5479 
 22280      70654465 
ARM GAS  /var/folders/bw/wdbp2_bd0pn7gl5ybd33xbb80000gn/T//ccZ5cvgj.s 			page 432


 22280      6600
 22281              	.LASF276:
 22282 29f1 6F757470 		.ascii	"output_queue_t\000"
 22282      75745F71 
 22282      75657565 
 22282      5F7400
 22283              	.LASF842:
 22284 2a00 5F72616E 		.ascii	"_rand48\000"
 22284      64343800 
 22285              	.LASF683:
 22286 2a08 73746D33 		.ascii	"stm32_otg_t\000"
 22286      325F6F74 
 22286      675F7400 
 22287              	.LASF787:
 22288 2a14 5F5F746D 		.ascii	"__tm_isdst\000"
 22288      5F697364 
 22288      737400
 22289              	.LASF486:
 22290 2a1f 49325344 		.ascii	"I2SDriver\000"
 22290      72697665 
 22290      7200
 22291              	.LASF470:
 22292 2a29 64757479 		.ascii	"duty_cycle\000"
 22292      5F637963 
 22292      6C6500
 22293              	.LASF493:
 22294 2a34 49325343 		.ascii	"I2SConfig\000"
 22294      6F6E6669 
 22294      6700
 22295              	.LASF602:
 22296 2a3e 75645F73 		.ascii	"ud_size\000"
 22296      697A6500 
 22297              	.LASF981:
 22298 2a46 655F7365 		.ascii	"e_set_body_led\000"
 22298      745F626F 
 22298      64795F6C 
 22298      656400
 22299              	.LASF705:
 22300 2a55 696E5F6D 		.ascii	"in_maxsize\000"
 22300      61787369 
 22300      7A6500
 22301              	.LASF320:
 22302 2a60 50464461 		.ascii	"PFData\000"
 22302      746100
 22303              	.LASF413:
 22304 2a67 4558545F 		.ascii	"EXT_STOP\000"
 22304      53544F50 
 22304      00
 22305              	.LASF969:
 22306 2a70 655F7365 		.ascii	"e_set_steps_left\000"
 22306      745F7374 
 22306      6570735F 
 22306      6C656674 
 22306      00
 22307              	.LASF47:
 22308 2a81 705F7374 		.ascii	"p_state\000"
 22308      61746500 
ARM GAS  /var/folders/bw/wdbp2_bd0pn7gl5ybd33xbb80000gn/T//ccZ5cvgj.s 			page 433


 22309              	.LASF494:
 22310 2a89 49325344 		.ascii	"I2SD2\000"
 22310      3200
 22311              	.LASF543:
 22312 2a8f 69735F69 		.ascii	"is_inserted\000"
 22312      6E736572 
 22312      74656400 
 22313              	.LASF63:
 22314 2a9b 63685F74 		.ascii	"ch_threads_list\000"
 22314      68726561 
 22314      64735F6C 
 22314      69737400 
 22315              	.LASF937:
 22316 2aab 736F756E 		.ascii	"sound\000"
 22316      6400
 22317              	.LASF179:
 22318 2ab1 44434F55 		.ascii	"DCOUNT\000"
 22318      4E5400
 22319              	.LASF164:
 22320 2ab8 4F415231 		.ascii	"OAR1\000"
 22320      00
 22321              	.LASF165:
 22322 2abd 4F415232 		.ascii	"OAR2\000"
 22322      00
 22323              	.LASF59:
 22324 2ac2 705F7374 		.ascii	"p_stats\000"
 22324      61747300 
 22325              	.LASF586:
 22326 2aca 75736273 		.ascii	"usbstate_t\000"
 22326      74617465 
 22326      5F7400
 22327              		.ident	"GCC: (GNU Tools for Arm Embedded Processors 7-2017-q4-major) 7.2.1 20170904 (release) [ARM
ARM GAS  /var/folders/bw/wdbp2_bd0pn7gl5ybd33xbb80000gn/T//ccZ5cvgj.s 			page 434


DEFINED SYMBOLS
                            *ABS*:0000000000000000 Asercom.c
/var/folders/bw/wdbp2_bd0pn7gl5ybd33xbb80000gn/T//ccZ5cvgj.s:18     .text.run_asercom:0000000000000000 $t
/var/folders/bw/wdbp2_bd0pn7gl5ybd33xbb80000gn/T//ccZ5cvgj.s:26     .text.run_asercom:0000000000000000 run_asercom
/var/folders/bw/wdbp2_bd0pn7gl5ybd33xbb80000gn/T//ccZ5cvgj.s:208    .text.run_asercom:00000000000000f6 $d
/var/folders/bw/wdbp2_bd0pn7gl5ybd33xbb80000gn/T//ccZ5cvgj.s:219    .text.run_asercom:000000000000010a $t
/var/folders/bw/wdbp2_bd0pn7gl5ybd33xbb80000gn/T//ccZ5cvgj.s:442    .text.run_asercom:0000000000000248 $d
/var/folders/bw/wdbp2_bd0pn7gl5ybd33xbb80000gn/T//ccZ5cvgj.s:453    .text.run_asercom:000000000000025c $t
/var/folders/bw/wdbp2_bd0pn7gl5ybd33xbb80000gn/T//ccZ5cvgj.s:530    .text.run_asercom:00000000000002c0 $d
/var/folders/bw/wdbp2_bd0pn7gl5ybd33xbb80000gn/T//ccZ5cvgj.s:4887   .bss.buffer:0000000000000000 buffer
/var/folders/bw/wdbp2_bd0pn7gl5ybd33xbb80000gn/T//ccZ5cvgj.s:551    .text.run_asercom:0000000000000308 $t
/var/folders/bw/wdbp2_bd0pn7gl5ybd33xbb80000gn/T//ccZ5cvgj.s:786    .text.run_asercom:000000000000044e $d
/var/folders/bw/wdbp2_bd0pn7gl5ybd33xbb80000gn/T//ccZ5cvgj.s:841    .text.run_asercom:00000000000004bc $t
/var/folders/bw/wdbp2_bd0pn7gl5ybd33xbb80000gn/T//ccZ5cvgj.s:965    .text.run_asercom:0000000000000584 $d
/var/folders/bw/wdbp2_bd0pn7gl5ybd33xbb80000gn/T//ccZ5cvgj.s:979    .text.run_asercom:00000000000005b4 $t
/var/folders/bw/wdbp2_bd0pn7gl5ybd33xbb80000gn/T//ccZ5cvgj.s:1490   .text.run_asercom:00000000000008d4 $d
/var/folders/bw/wdbp2_bd0pn7gl5ybd33xbb80000gn/T//ccZ5cvgj.s:1499   .text.run_asercom:00000000000008f0 $t
/var/folders/bw/wdbp2_bd0pn7gl5ybd33xbb80000gn/T//ccZ5cvgj.s:1883   .text.run_asercom:0000000000000b80 $d
/var/folders/bw/wdbp2_bd0pn7gl5ybd33xbb80000gn/T//ccZ5cvgj.s:1894   .text.run_asercom:0000000000000b9c $t
/var/folders/bw/wdbp2_bd0pn7gl5ybd33xbb80000gn/T//ccZ5cvgj.s:1916   .text.run_asercom:0000000000000bc4 $d
/var/folders/bw/wdbp2_bd0pn7gl5ybd33xbb80000gn/T//ccZ5cvgj.s:1968   .text.run_asercom:0000000000000c94 $t
/var/folders/bw/wdbp2_bd0pn7gl5ybd33xbb80000gn/T//ccZ5cvgj.s:2309   .text.run_asercom:0000000000000eca $d
/var/folders/bw/wdbp2_bd0pn7gl5ybd33xbb80000gn/T//ccZ5cvgj.s:2314   .text.run_asercom:0000000000000ed4 $t
/var/folders/bw/wdbp2_bd0pn7gl5ybd33xbb80000gn/T//ccZ5cvgj.s:2381   .text.run_asercom:0000000000000f50 $d
/var/folders/bw/wdbp2_bd0pn7gl5ybd33xbb80000gn/T//ccZ5cvgj.s:2407   .text.run_asercom:0000000000000fb0 $t
/var/folders/bw/wdbp2_bd0pn7gl5ybd33xbb80000gn/T//ccZ5cvgj.s:2897   .text.run_asercom:0000000000001310 $d
/var/folders/bw/wdbp2_bd0pn7gl5ybd33xbb80000gn/T//ccZ5cvgj.s:2918   .text.run_asercom:000000000000135c $t
/var/folders/bw/wdbp2_bd0pn7gl5ybd33xbb80000gn/T//ccZ5cvgj.s:3336   .text.run_asercom:00000000000015d4 $d
/var/folders/bw/wdbp2_bd0pn7gl5ybd33xbb80000gn/T//ccZ5cvgj.s:3374   .text.run_asercom:0000000000001664 $t
/var/folders/bw/wdbp2_bd0pn7gl5ybd33xbb80000gn/T//ccZ5cvgj.s:3799   .text.run_asercom:0000000000001934 $d
/var/folders/bw/wdbp2_bd0pn7gl5ybd33xbb80000gn/T//ccZ5cvgj.s:3822   .text.run_asercom:0000000000001984 $t
/var/folders/bw/wdbp2_bd0pn7gl5ybd33xbb80000gn/T//ccZ5cvgj.s:4268   .text.run_asercom:0000000000001c68 $d
/var/folders/bw/wdbp2_bd0pn7gl5ybd33xbb80000gn/T//ccZ5cvgj.s:4285   .text.run_asercom:0000000000001ca4 $t
/var/folders/bw/wdbp2_bd0pn7gl5ybd33xbb80000gn/T//ccZ5cvgj.s:4800   .text.run_asercom:0000000000001fd8 $d
/var/folders/bw/wdbp2_bd0pn7gl5ybd33xbb80000gn/T//ccZ5cvgj.s:4960   .bss.e_ambient_and_reflected_ir:0000000000000000 e_ambient_and_reflected_ir
/var/folders/bw/wdbp2_bd0pn7gl5ybd33xbb80000gn/T//ccZ5cvgj.s:4966   .bss.e_ambient_ir:0000000000000000 e_ambient_ir
/var/folders/bw/wdbp2_bd0pn7gl5ybd33xbb80000gn/T//ccZ5cvgj.s:4893   .bss.c:0000000000000000 c
/var/folders/bw/wdbp2_bd0pn7gl5ybd33xbb80000gn/T//ccZ5cvgj.s:5042   .bss.selector:0000000000000000 selector
/var/folders/bw/wdbp2_bd0pn7gl5ybd33xbb80000gn/T//ccZ5cvgj.s:4842   .bss.LED_action.13175:0000000000000000 $d
/var/folders/bw/wdbp2_bd0pn7gl5ybd33xbb80000gn/T//ccZ5cvgj.s:4846   .bss.LED_action.13175:0000000000000000 LED_action.13175
/var/folders/bw/wdbp2_bd0pn7gl5ybd33xbb80000gn/T//ccZ5cvgj.s:4849   .bss.LED_nbr.13174:0000000000000000 $d
/var/folders/bw/wdbp2_bd0pn7gl5ybd33xbb80000gn/T//ccZ5cvgj.s:4853   .bss.LED_nbr.13174:0000000000000000 LED_nbr.13174
/var/folders/bw/wdbp2_bd0pn7gl5ybd33xbb80000gn/T//ccZ5cvgj.s:4856   .bss.accelero.13198:0000000000000000 $d
/var/folders/bw/wdbp2_bd0pn7gl5ybd33xbb80000gn/T//ccZ5cvgj.s:4860   .bss.accelero.13198:0000000000000000 accelero.13198
/var/folders/bw/wdbp2_bd0pn7gl5ybd33xbb80000gn/T//ccZ5cvgj.s:4863   .bss.accx.13176:0000000000000000 $d
/var/folders/bw/wdbp2_bd0pn7gl5ybd33xbb80000gn/T//ccZ5cvgj.s:4867   .bss.accx.13176:0000000000000000 accx.13176
/var/folders/bw/wdbp2_bd0pn7gl5ybd33xbb80000gn/T//ccZ5cvgj.s:4870   .bss.accy.13177:0000000000000000 $d
/var/folders/bw/wdbp2_bd0pn7gl5ybd33xbb80000gn/T//ccZ5cvgj.s:4874   .bss.accy.13177:0000000000000000 accy.13177
/var/folders/bw/wdbp2_bd0pn7gl5ybd33xbb80000gn/T//ccZ5cvgj.s:4877   .bss.accz.13178:0000000000000000 $d
/var/folders/bw/wdbp2_bd0pn7gl5ybd33xbb80000gn/T//ccZ5cvgj.s:4881   .bss.accz.13178:0000000000000000 accz.13178
/var/folders/bw/wdbp2_bd0pn7gl5ybd33xbb80000gn/T//ccZ5cvgj.s:4884   .bss.buffer:0000000000000000 $d
/var/folders/bw/wdbp2_bd0pn7gl5ybd33xbb80000gn/T//ccZ5cvgj.s:4894   .bss.c:0000000000000000 $d
/var/folders/bw/wdbp2_bd0pn7gl5ybd33xbb80000gn/T//ccZ5cvgj.s:4899   .bss.c1.13164:0000000000000000 c1.13164
/var/folders/bw/wdbp2_bd0pn7gl5ybd33xbb80000gn/T//ccZ5cvgj.s:4900   .bss.c1.13164:0000000000000000 $d
/var/folders/bw/wdbp2_bd0pn7gl5ybd33xbb80000gn/T//ccZ5cvgj.s:4905   .bss.c2.13165:0000000000000000 c2.13165
/var/folders/bw/wdbp2_bd0pn7gl5ybd33xbb80000gn/T//ccZ5cvgj.s:4906   .bss.c2.13165:0000000000000000 $d
/var/folders/bw/wdbp2_bd0pn7gl5ybd33xbb80000gn/T//ccZ5cvgj.s:4908   .bss.cam_heigth.13185:0000000000000000 $d
ARM GAS  /var/folders/bw/wdbp2_bd0pn7gl5ybd33xbb80000gn/T//ccZ5cvgj.s 			page 435


/var/folders/bw/wdbp2_bd0pn7gl5ybd33xbb80000gn/T//ccZ5cvgj.s:4912   .bss.cam_heigth.13185:0000000000000000 cam_heigth.13185
/var/folders/bw/wdbp2_bd0pn7gl5ybd33xbb80000gn/T//ccZ5cvgj.s:4915   .bss.cam_mode.13183:0000000000000000 $d
/var/folders/bw/wdbp2_bd0pn7gl5ybd33xbb80000gn/T//ccZ5cvgj.s:4919   .bss.cam_mode.13183:0000000000000000 cam_mode.13183
/var/folders/bw/wdbp2_bd0pn7gl5ybd33xbb80000gn/T//ccZ5cvgj.s:4922   .bss.cam_size.13187:0000000000000000 $d
/var/folders/bw/wdbp2_bd0pn7gl5ybd33xbb80000gn/T//ccZ5cvgj.s:4926   .bss.cam_size.13187:0000000000000000 cam_size.13187
/var/folders/bw/wdbp2_bd0pn7gl5ybd33xbb80000gn/T//ccZ5cvgj.s:4929   .bss.cam_width.13184:0000000000000000 $d
/var/folders/bw/wdbp2_bd0pn7gl5ybd33xbb80000gn/T//ccZ5cvgj.s:4933   .bss.cam_width.13184:0000000000000000 cam_width.13184
/var/folders/bw/wdbp2_bd0pn7gl5ybd33xbb80000gn/T//ccZ5cvgj.s:4936   .bss.cam_x1.13188:0000000000000000 $d
/var/folders/bw/wdbp2_bd0pn7gl5ybd33xbb80000gn/T//ccZ5cvgj.s:4940   .bss.cam_x1.13188:0000000000000000 cam_x1.13188
/var/folders/bw/wdbp2_bd0pn7gl5ybd33xbb80000gn/T//ccZ5cvgj.s:4943   .bss.cam_y1.13189:0000000000000000 $d
/var/folders/bw/wdbp2_bd0pn7gl5ybd33xbb80000gn/T//ccZ5cvgj.s:4947   .bss.cam_y1.13189:0000000000000000 cam_y1.13189
/var/folders/bw/wdbp2_bd0pn7gl5ybd33xbb80000gn/T//ccZ5cvgj.s:4950   .bss.cam_zoom.13186:0000000000000000 $d
/var/folders/bw/wdbp2_bd0pn7gl5ybd33xbb80000gn/T//ccZ5cvgj.s:4954   .bss.cam_zoom.13186:0000000000000000 cam_zoom.13186
/var/folders/bw/wdbp2_bd0pn7gl5ybd33xbb80000gn/T//ccZ5cvgj.s:4957   .bss.e_ambient_and_reflected_ir:0000000000000000 $d
/var/folders/bw/wdbp2_bd0pn7gl5ybd33xbb80000gn/T//ccZ5cvgj.s:4963   .bss.e_ambient_ir:0000000000000000 $d
/var/folders/bw/wdbp2_bd0pn7gl5ybd33xbb80000gn/T//ccZ5cvgj.s:4972   .bss.first.13190:0000000000000000 first.13190
/var/folders/bw/wdbp2_bd0pn7gl5ybd33xbb80000gn/T//ccZ5cvgj.s:4973   .bss.first.13190:0000000000000000 $d
/var/folders/bw/wdbp2_bd0pn7gl5ybd33xbb80000gn/T//ccZ5cvgj.s:4975   .bss.gyrox.13180:0000000000000000 $d
/var/folders/bw/wdbp2_bd0pn7gl5ybd33xbb80000gn/T//ccZ5cvgj.s:4979   .bss.gyrox.13180:0000000000000000 gyrox.13180
/var/folders/bw/wdbp2_bd0pn7gl5ybd33xbb80000gn/T//ccZ5cvgj.s:4982   .bss.gyroy.13181:0000000000000000 $d
/var/folders/bw/wdbp2_bd0pn7gl5ybd33xbb80000gn/T//ccZ5cvgj.s:4986   .bss.gyroy.13181:0000000000000000 gyroy.13181
/var/folders/bw/wdbp2_bd0pn7gl5ybd33xbb80000gn/T//ccZ5cvgj.s:4989   .bss.gyroz.13182:0000000000000000 $d
/var/folders/bw/wdbp2_bd0pn7gl5ybd33xbb80000gn/T//ccZ5cvgj.s:4993   .bss.gyroz.13182:0000000000000000 gyroz.13182
/var/folders/bw/wdbp2_bd0pn7gl5ybd33xbb80000gn/T//ccZ5cvgj.s:4996   .bss.i.13167:0000000000000000 $d
/var/folders/bw/wdbp2_bd0pn7gl5ybd33xbb80000gn/T//ccZ5cvgj.s:5000   .bss.i.13167:0000000000000000 i.13167
/var/folders/bw/wdbp2_bd0pn7gl5ybd33xbb80000gn/T//ccZ5cvgj.s:5003   .bss.j.13168:0000000000000000 $d
/var/folders/bw/wdbp2_bd0pn7gl5ybd33xbb80000gn/T//ccZ5cvgj.s:5007   .bss.j.13168:0000000000000000 j.13168
/var/folders/bw/wdbp2_bd0pn7gl5ybd33xbb80000gn/T//ccZ5cvgj.s:5010   .bss.mod.13192:0000000000000000 $d
/var/folders/bw/wdbp2_bd0pn7gl5ybd33xbb80000gn/T//ccZ5cvgj.s:5014   .bss.mod.13192:0000000000000000 mod.13192
/var/folders/bw/wdbp2_bd0pn7gl5ybd33xbb80000gn/T//ccZ5cvgj.s:5017   .bss.positionl.13173:0000000000000000 $d
/var/folders/bw/wdbp2_bd0pn7gl5ybd33xbb80000gn/T//ccZ5cvgj.s:5021   .bss.positionl.13173:0000000000000000 positionl.13173
/var/folders/bw/wdbp2_bd0pn7gl5ybd33xbb80000gn/T//ccZ5cvgj.s:5024   .bss.positionr.13172:0000000000000000 $d
/var/folders/bw/wdbp2_bd0pn7gl5ybd33xbb80000gn/T//ccZ5cvgj.s:5028   .bss.positionr.13172:0000000000000000 positionr.13172
/var/folders/bw/wdbp2_bd0pn7gl5ybd33xbb80000gn/T//ccZ5cvgj.s:5031   .bss.reg.13193:0000000000000000 $d
/var/folders/bw/wdbp2_bd0pn7gl5ybd33xbb80000gn/T//ccZ5cvgj.s:5035   .bss.reg.13193:0000000000000000 reg.13193
/var/folders/bw/wdbp2_bd0pn7gl5ybd33xbb80000gn/T//ccZ5cvgj.s:5038   .bss.selector:0000000000000000 $d
/var/folders/bw/wdbp2_bd0pn7gl5ybd33xbb80000gn/T//ccZ5cvgj.s:5045   .bss.sound.13179:0000000000000000 $d
/var/folders/bw/wdbp2_bd0pn7gl5ybd33xbb80000gn/T//ccZ5cvgj.s:5049   .bss.sound.13179:0000000000000000 sound.13179
/var/folders/bw/wdbp2_bd0pn7gl5ybd33xbb80000gn/T//ccZ5cvgj.s:5052   .bss.speedl.13171:0000000000000000 $d
/var/folders/bw/wdbp2_bd0pn7gl5ybd33xbb80000gn/T//ccZ5cvgj.s:5056   .bss.speedl.13171:0000000000000000 speedl.13171
/var/folders/bw/wdbp2_bd0pn7gl5ybd33xbb80000gn/T//ccZ5cvgj.s:5059   .bss.speedr.13170:0000000000000000 $d
/var/folders/bw/wdbp2_bd0pn7gl5ybd33xbb80000gn/T//ccZ5cvgj.s:5063   .bss.speedr.13170:0000000000000000 speedr.13170
/var/folders/bw/wdbp2_bd0pn7gl5ybd33xbb80000gn/T//ccZ5cvgj.s:5066   .bss.val.13194:0000000000000000 $d
/var/folders/bw/wdbp2_bd0pn7gl5ybd33xbb80000gn/T//ccZ5cvgj.s:5070   .bss.val.13194:0000000000000000 val.13194
/var/folders/bw/wdbp2_bd0pn7gl5ybd33xbb80000gn/T//ccZ5cvgj.s:5076   .bss.wait_cam.13166:0000000000000000 wait_cam.13166
/var/folders/bw/wdbp2_bd0pn7gl5ybd33xbb80000gn/T//ccZ5cvgj.s:5077   .bss.wait_cam.13166:0000000000000000 $d
/var/folders/bw/wdbp2_bd0pn7gl5ybd33xbb80000gn/T//ccZ5cvgj.s:5079   .data.HWversion.13201:0000000000000000 $d
/var/folders/bw/wdbp2_bd0pn7gl5ybd33xbb80000gn/T//ccZ5cvgj.s:5083   .data.HWversion.13201:0000000000000000 HWversion.13201
/var/folders/bw/wdbp2_bd0pn7gl5ybd33xbb80000gn/T//ccZ5cvgj.s:5086   .rodata.run_asercom.str1.4:0000000000000000 $d

UNDEFINED SYMBOLS
e_init_motors
getselector
e_i2cp_init
e_init_remote_control
ReadEE
e_poxxxx_init_cam
ARM GAS  /var/folders/bw/wdbp2_bd0pn7gl5ybd33xbb80000gn/T//ccZ5cvgj.s 			page 436


e_poxxxx_config_cam
e_poxxxx_write_cam_registers
e_acc_calibr
e_send_uart1_char
e_uart1_sending
e_getchar_uart1
e_get_data
e_get_address
isEpuckVersion1_3
e_send_uart2_char
e_uart2_sending
strlen
e_getchar_uart2
e_set_speed_left
e_set_speed_right
__stack_chk_guard
e_play_sound
e_get_acc_filtered
e_get_steps_left
e_get_steps_right
e_set_steps_left
e_set_steps_right
e_get_ambient_light
e_get_calibrated_prox
e_set_led
e_i2cp_enable
e_i2cp_read
e_poxxxx_launch_capture
e_get_micro_volume
e_i2cp_write
e_i2cp_disable
__locale_ctype_ptr
sprintf
sscanf
chThdSleep
e_led_clear
e_calibrate_ir
e_set_body_led
e_get_check
e_set_front_led
playMelody
e_read_acc_spheric
e_init_sound
getBatteryValueRaw
getAllAxesGyro
getTemperature
e_poxxxx_is_img_ready
dcmi_get_last_image_ptr
memcpy
getBatteryValuePercentage
getXAxisGyro
getYAxisGyro
getZAxisGyro
e_close_sound
stopCurrentMelody
