ARM GAS  /var/folders/bw/wdbp2_bd0pn7gl5ybd33xbb80000gn/T//ccp3HGsF.s 			page 1


   1              		.cpu cortex-m4
   2              		.eabi_attribute 27, 1
   3              		.eabi_attribute 28, 1
   4              		.eabi_attribute 20, 1
   5              		.eabi_attribute 21, 1
   6              		.eabi_attribute 23, 3
   7              		.eabi_attribute 24, 1
   8              		.eabi_attribute 25, 1
   9              		.eabi_attribute 26, 1
  10              		.eabi_attribute 30, 2
  11              		.eabi_attribute 34, 1
  12              		.eabi_attribute 18, 4
  13              		.file	"centering.c"
  14              		.text
  15              	.Ltext0:
  16              		.cfi_sections	.debug_frame
  17              		.global	__aeabi_i2d
  18              		.global	__aeabi_d2iz
  19              		.global	__aeabi_f2d
  20              		.global	__aeabi_dmul
  21              		.global	__aeabi_dsub
  22              		.section	.text.centeringSequence,"ax",%progbits
  23              		.align	1
  24              		.p2align 4,,15
  25              		.global	centeringSequence
  26              		.syntax unified
  27              		.thumb
  28              		.thumb_func
  29              		.fpu fpv4-sp-d16
  30              		.type	centeringSequence, %function
  31              	centeringSequence:
  32              	.LFB293:
  33              		.file 1 "centering.c"
  34              		.loc 1 28 0
  35              		.cfi_startproc
  36              		@ args = 0, pretend = 0, frame = 8
  37              		@ frame_needed = 0, uses_anonymous_args = 0
  38              	.LVL0:
  39 0000 2DE97043 		push	{r4, r5, r6, r8, r9, lr}
  40              		.cfi_def_cfa_offset 24
  41              		.cfi_offset 4, -24
  42              		.cfi_offset 5, -20
  43              		.cfi_offset 6, -16
  44              		.cfi_offset 8, -12
  45              		.cfi_offset 9, -8
  46              		.cfi_offset 14, -4
  47 0004 2DED0C8B 		vpush.64	{d8, d9, d10, d11, d12, d13}
  48              		.cfi_def_cfa_offset 72
  49              		.cfi_offset 80, -72
  50              		.cfi_offset 81, -68
  51              		.cfi_offset 82, -64
  52              		.cfi_offset 83, -60
  53              		.cfi_offset 84, -56
  54              		.cfi_offset 85, -52
  55              		.cfi_offset 86, -48
  56              		.cfi_offset 87, -44
  57              		.cfi_offset 88, -40
ARM GAS  /var/folders/bw/wdbp2_bd0pn7gl5ybd33xbb80000gn/T//ccp3HGsF.s 			page 2


  58              		.cfi_offset 89, -36
  59              		.cfi_offset 90, -32
  60              		.cfi_offset 91, -28
  61              		.loc 1 41 0
  62 0008 01FB01F3 		mul	r3, r1, r1
  63 000c 03F5AF23 		add	r3, r3, #358400
  64              		.loc 1 28 0
  65 0010 814E     		ldr	r6, .L17+8
  66              		.loc 1 48 0
  67 0012 DFED828A 		vldr.32	s17, .L17+12
  68              		.loc 1 28 0
  69 0016 3268     		ldr	r2, [r6]
  70 0018 82B0     		sub	sp, sp, #8
  71              		.cfi_def_cfa_offset 80
  72              		.loc 1 28 0
  73 001a 0546     		mov	r5, r0
  74              		.loc 1 41 0
  75 001c 03F5C863 		add	r3, r3, #1600
  76              		.loc 1 42 0
  77 0020 4FF49660 		mov	r0, #1200
  78              	.LVL1:
  79              		.loc 1 41 0
  80 0024 05FB1533 		mls	r3, r5, r5, r3
  81              		.loc 1 42 0
  82 0028 00FB01F0 		mul	r0, r0, r1
  83              		.loc 1 41 0
  84 002c 93FBF0F0 		sdiv	r0, r3, r0
  85              		.loc 1 28 0
  86 0030 0192     		str	r2, [sp, #4]
  87              	.LVL2:
  88 0032 0C46     		mov	r4, r1
  89              		.loc 1 41 0
  90 0034 FFF7FEFF 		bl	__aeabi_i2d
  91              	.LVL3:
  92 0038 41EC100B 		vmov	d0, r0, r1
  93 003c FFF7FEFF 		bl	acos
  94              	.LVL4:
  95 0040 51EC100B 		vmov	r0, r1, d0
  96 0044 FFF7FEFF 		bl	__aeabi_d2iz
  97              	.LVL5:
  98 0048 07EE900A 		vmov	s15, r0	@ int
  99              		.loc 1 43 0
 100 004c 2046     		mov	r0, r4
 101              		.loc 1 41 0
 102 004e B8EEE78A 		vcvt.f32.s32	s16, s15
 103              	.LVL6:
 104              		.loc 1 43 0
 105 0052 FFF7FEFF 		bl	__aeabi_i2d
 106              	.LVL7:
 107 0056 8046     		mov	r8, r0
 108 0058 18EE100A 		vmov	r0, s16
 109 005c 8946     		mov	r9, r1
 110 005e FFF7FEFF 		bl	__aeabi_f2d
 111              	.LVL8:
 112 0062 41EC100B 		vmov	d0, r0, r1
 113 0066 41EC190B 		vmov	d9, r0, r1
 114 006a FFF7FEFF 		bl	cos
ARM GAS  /var/folders/bw/wdbp2_bd0pn7gl5ybd33xbb80000gn/T//ccp3HGsF.s 			page 3


 115              	.LVL9:
 116 006e B0EE40AA 		vmov.f32	s20, s0
 117 0072 F0EE60AA 		vmov.f32	s21, s1
 118              	.LVL10:
 119              		.loc 1 44 0
 120 0076 B0EE490A 		vmov.f32	s0, s18
 121 007a F0EE690A 		vmov.f32	s1, s19
 122              	.LVL11:
 123 007e FFF7FEFF 		bl	sin
 124              	.LVL12:
 125              		.loc 1 45 0
 126 0082 9FED677A 		vldr.32	s14, .L17+16
 127 0086 DFED677A 		vldr.32	s15, .L17+20
 128              		.loc 1 44 0
 129 008a B0EE409A 		vmov.f32	s18, s0
 130 008e F0EE609A 		vmov.f32	s19, s1
 131              	.LVL13:
 132              		.loc 1 45 0
 133 0092 28EE078A 		vmul.f32	s16, s16, s14
 134              	.LVL14:
 135              		.loc 1 48 0
 136 0096 F0EE006A 		vmov.f32	s13, #2.0e+0
 137              		.loc 1 45 0
 138 009a 88EE27DA 		vdiv.f32	s26, s16, s15
 139              	.LVL15:
 140              		.loc 1 48 0
 141 009e B0EE688A 		vmov.f32	s16, s17
 142 00a2 ADEE268A 		vfma.f32	s16, s26, s13
 143              	.LVL16:
 144              		.loc 1 49 0
 145 00a6 68EE277A 		vmul.f32	s15, s16, s15
 146              		.loc 1 50 0
 147 00aa C7EE877A 		vdiv.f32	s15, s15, s14
 148              	.LVL17:
 149 00ae 17EE900A 		vmov	r0, s15
 150 00b2 FFF7FEFF 		bl	__aeabi_f2d
 151              	.LVL18:
 152 00b6 41EC100B 		vmov	d0, r0, r1
 153 00ba 41EC1C0B 		vmov	d12, r0, r1
 154 00be FFF7FEFF 		bl	cos
 155              	.LVL19:
 156 00c2 B0EE40BA 		vmov.f32	s22, s0
 157 00c6 F0EE60BA 		vmov.f32	s23, s1
 158              	.LVL20:
 159              		.loc 1 51 0
 160 00ca B0EE4C0A 		vmov.f32	s0, s24
 161 00ce F0EE6C0A 		vmov.f32	s1, s25
 162              	.LVL21:
 163 00d2 FFF7FEFF 		bl	sin
 164              	.LVL22:
 165              		.loc 1 54 0
 166 00d6 AC42     		cmp	r4, r5
 167 00d8 52D8     		bhi	.L14
 168              		.loc 1 64 0
 169 00da 16D3     		bcc	.L15
 170              		.loc 1 76 0
 171 00dc 9FED520A 		vldr.32	s0, .L17+24
ARM GAS  /var/folders/bw/wdbp2_bd0pn7gl5ybd33xbb80000gn/T//ccp3HGsF.s 			page 4


 172              	.LVL23:
 173 00e0 3DEE000A 		vadd.f32	s0, s26, s0
 174 00e4 4FF47A70 		mov	r0, #1000
 175              	.LVL24:
 176              	.L11:
 177 00e8 FFF7FEFF 		bl	rotationAngle
 178              	.LVL25:
 179              		.loc 1 77 0
 180 00ec 019A     		ldr	r2, [sp, #4]
 181 00ee 3368     		ldr	r3, [r6]
 182 00f0 9A42     		cmp	r2, r3
 183 00f2 40F08B80 		bne	.L16
 184 00f6 4B21     		movs	r1, #75
 185 00f8 4FF47A70 		mov	r0, #1000
 186              		.loc 1 80 0
 187 00fc 02B0     		add	sp, sp, #8
 188              		.cfi_remember_state
 189              		.cfi_def_cfa_offset 72
 190              		@ sp needed
 191 00fe BDEC0C8B 		vldm	sp!, {d8-d13}
 192              		.cfi_restore 90
 193              		.cfi_restore 91
 194              		.cfi_restore 88
 195              		.cfi_restore 89
 196              		.cfi_restore 86
 197              		.cfi_restore 87
 198              		.cfi_restore 84
 199              		.cfi_restore 85
 200              		.cfi_restore 82
 201              		.cfi_restore 83
 202              		.cfi_restore 80
 203              		.cfi_restore 81
 204              		.cfi_def_cfa_offset 24
 205              	.LVL26:
 206 0102 BDE87043 		pop	{r4, r5, r6, r8, r9, lr}
 207              		.cfi_restore 14
 208              		.cfi_restore 9
 209              		.cfi_restore 8
 210              		.cfi_restore 6
 211              		.cfi_restore 5
 212              		.cfi_restore 4
 213              		.cfi_def_cfa_offset 0
 214              		.loc 1 77 0
 215 0106 FFF7FEBF 		b	translationDistance
 216              	.LVL27:
 217              	.L15:
 218              		.cfi_restore_state
 219              		.loc 1 66 0
 220 010a 9FED488A 		vldr.32	s16, .L17+28
 221              	.LVL28:
 222 010e 4FF47A70 		mov	r0, #1000
 223 0112 3DEE480A 		vsub.f32	s0, s26, s16
 224              	.LVL29:
 225 0116 FFF7FEFF 		bl	rotationAngle
 226              	.LVL30:
 227              		.loc 1 43 0
 228 011a 53EC1A2B 		vmov	r2, r3, d10
ARM GAS  /var/folders/bw/wdbp2_bd0pn7gl5ybd33xbb80000gn/T//ccp3HGsF.s 			page 5


 229 011e 4046     		mov	r0, r8
 230 0120 4946     		mov	r1, r9
 231 0122 FFF7FEFF 		bl	__aeabi_dmul
 232              	.LVL31:
 233 0126 3AA3     		adr	r3, .L17
 234 0128 D3E90023 		ldrd	r2, [r3]
 235 012c FFF7FEFF 		bl	__aeabi_dsub
 236              	.LVL32:
 237 0130 FFF7FEFF 		bl	__aeabi_d2iz
 238              	.LVL33:
 239 0134 80EAE071 		eor	r1, r0, r0, asr #31
 240 0138 A1EBE071 		sub	r1, r1, r0, asr #31
 241              		.loc 1 67 0
 242 013c 09B2     		sxth	r1, r1
 243 013e 4FF47A70 		mov	r0, #1000
 244 0142 FFF7FEFF 		bl	translationDistance
 245              	.LVL34:
 246              		.loc 1 68 0
 247 0146 9FED380A 		vldr.32	s0, .L17+24
 248 014a 4FF47A70 		mov	r0, #1000
 249 014e FFF7FEFF 		bl	rotationAngle
 250              	.LVL35:
 251              		.loc 1 44 0
 252 0152 53EC192B 		vmov	r2, r3, d9
 253 0156 4046     		mov	r0, r8
 254 0158 4946     		mov	r1, r9
 255 015a FFF7FEFF 		bl	__aeabi_dmul
 256              	.LVL36:
 257 015e FFF7FEFF 		bl	__aeabi_d2iz
 258              	.LVL37:
 259 0162 80EAE071 		eor	r1, r0, r0, asr #31
 260 0166 A1EBE071 		sub	r1, r1, r0, asr #31
 261              		.loc 1 69 0
 262 016a 9639     		subs	r1, r1, #150
 263 016c 4FF47A70 		mov	r0, #1000
 264 0170 09B2     		sxth	r1, r1
 265 0172 FFF7FEFF 		bl	translationDistance
 266              	.LVL38:
 267              		.loc 1 70 0
 268 0176 B0EE480A 		vmov.f32	s0, s16
 269 017a 4FF47A70 		mov	r0, #1000
 270 017e B3E7     		b	.L11
 271              	.LVL39:
 272              	.L14:
 273 0180 B0EE40CA 		vmov.f32	s24, s0
 274 0184 F0EE60CA 		vmov.f32	s25, s1
 275              		.loc 1 56 0
 276 0188 BDEEC80A 		vcvt.s32.f32	s0, s16
 277              	.LVL40:
 278 018c 4FF47A70 		mov	r0, #1000
 279 0190 10EE103A 		vmov	r3, s0	@ int
 280 0194 002B     		cmp	r3, #0
 281 0196 B8BF     		it	lt
 282 0198 5B42     		rsblt	r3, r3, #0
 283 019a 00EE103A 		vmov	s0, r3	@ int
 284 019e B8EEC00A 		vcvt.f32.s32	s0, s0
 285 01a2 FFF7FEFF 		bl	rotationAngle
ARM GAS  /var/folders/bw/wdbp2_bd0pn7gl5ybd33xbb80000gn/T//ccp3HGsF.s 			page 6


 286              	.LVL41:
 287              		.loc 1 50 0
 288 01a6 53EC1B2B 		vmov	r2, r3, d11
 289 01aa 4046     		mov	r0, r8
 290 01ac 4946     		mov	r1, r9
 291 01ae FFF7FEFF 		bl	__aeabi_dmul
 292              	.LVL42:
 293 01b2 17A3     		adr	r3, .L17
 294 01b4 D3E90023 		ldrd	r2, [r3]
 295 01b8 FFF7FEFF 		bl	__aeabi_dsub
 296              	.LVL43:
 297 01bc FFF7FEFF 		bl	__aeabi_d2iz
 298              	.LVL44:
 299 01c0 80EAE071 		eor	r1, r0, r0, asr #31
 300 01c4 A1EBE071 		sub	r1, r1, r0, asr #31
 301              		.loc 1 57 0
 302 01c8 09B2     		sxth	r1, r1
 303 01ca 4FF47A70 		mov	r0, #1000
 304 01ce FFF7FEFF 		bl	translationDistance
 305              	.LVL45:
 306              		.loc 1 58 0
 307 01d2 B0EE680A 		vmov.f32	s0, s17
 308 01d6 4FF47A70 		mov	r0, #1000
 309 01da FFF7FEFF 		bl	rotationAngle
 310              	.LVL46:
 311              		.loc 1 51 0
 312 01de 53EC1C2B 		vmov	r2, r3, d12
 313 01e2 4046     		mov	r0, r8
 314 01e4 4946     		mov	r1, r9
 315 01e6 FFF7FEFF 		bl	__aeabi_dmul
 316              	.LVL47:
 317 01ea FFF7FEFF 		bl	__aeabi_d2iz
 318              	.LVL48:
 319 01ee 80EAE071 		eor	r1, r0, r0, asr #31
 320 01f2 A1EBE071 		sub	r1, r1, r0, asr #31
 321              		.loc 1 59 0
 322 01f6 9639     		subs	r1, r1, #150
 323 01f8 4FF47A70 		mov	r0, #1000
 324 01fc 09B2     		sxth	r1, r1
 325 01fe FFF7FEFF 		bl	translationDistance
 326              	.LVL49:
 327              		.loc 1 60 0
 328 0202 9FED0A0A 		vldr.32	s0, .L17+28
 329 0206 4FF47A70 		mov	r0, #1000
 330 020a 6DE7     		b	.L11
 331              	.LVL50:
 332              	.L16:
 333              		.loc 1 77 0
 334 020c FFF7FEFF 		bl	__stack_chk_fail
 335              	.LVL51:
 336              	.L18:
 337              		.align	3
 338              	.L17:
 339 0210 00000000 		.word	0
 340 0214 00C07240 		.word	1081262080
 341 0218 00000000 		.word	__stack_chk_guard
 342 021c 0000B4C2 		.word	3266576384
ARM GAS  /var/folders/bw/wdbp2_bd0pn7gl5ybd33xbb80000gn/T//ccp3HGsF.s 			page 7


 343 0220 0000B443 		.word	1135869952
 344 0224 DB0FC940 		.word	1086918619
 345 0228 0000B442 		.word	1119092736
 346 022c 00003443 		.word	1127481344
 347              		.cfi_endproc
 348              	.LFE293:
 349              		.size	centeringSequence, .-centeringSequence
 350              		.section	.text.centerGuardian,"ax",%progbits
 351              		.align	1
 352              		.p2align 4,,15
 353              		.global	centerGuardian
 354              		.syntax unified
 355              		.thumb
 356              		.thumb_func
 357              		.fpu fpv4-sp-d16
 358              		.type	centerGuardian, %function
 359              	centerGuardian:
 360              	.LFB294:
 361              		.loc 1 83 0
 362              		.cfi_startproc
 363              		@ args = 0, pretend = 0, frame = 8
 364              		@ frame_needed = 0, uses_anonymous_args = 0
 365 0000 2DE9F04F 		push	{r4, r5, r6, r7, r8, r9, r10, fp, lr}
 366              		.cfi_def_cfa_offset 36
 367              		.cfi_offset 4, -36
 368              		.cfi_offset 5, -32
 369              		.cfi_offset 6, -28
 370              		.cfi_offset 7, -24
 371              		.cfi_offset 8, -20
 372              		.cfi_offset 9, -16
 373              		.cfi_offset 10, -12
 374              		.cfi_offset 11, -8
 375              		.cfi_offset 14, -4
 376 0004 2DED048B 		vpush.64	{d8, d9}
 377              		.cfi_def_cfa_offset 52
 378              		.cfi_offset 80, -52
 379              		.cfi_offset 81, -48
 380              		.cfi_offset 82, -44
 381              		.cfi_offset 83, -40
 382 0008 DFF84492 		ldr	r9, .L65+24
 383              		.loc 1 138 0
 384 000c 9FED8A8A 		vldr.32	s16, .L65
 385              		.loc 1 83 0
 386 0010 D9F80030 		ldr	r3, [r9]
 387              		.loc 1 147 0
 388 0014 DFED898A 		vldr.32	s17, .L65+4
 389              		.loc 1 166 0
 390 0018 9FED899A 		vldr.32	s18, .L65+8
 391              		.loc 1 83 0
 392 001c 83B0     		sub	sp, sp, #12
 393              		.cfi_def_cfa_offset 64
 394              		.loc 1 93 0
 395 001e 4FF00008 		mov	r8, #0
 396              		.loc 1 83 0
 397 0022 0193     		str	r3, [sp, #4]
 398              	.LVL52:
 399              		.loc 1 90 0
ARM GAS  /var/folders/bw/wdbp2_bd0pn7gl5ybd33xbb80000gn/T//ccp3HGsF.s 			page 8


 400 0024 4546     		mov	r5, r8
 401              		.loc 1 89 0
 402 0026 4646     		mov	r6, r8
 403              		.loc 1 86 0
 404 0028 C246     		mov	r10, r8
 405              		.loc 1 85 0
 406 002a 4746     		mov	r7, r8
 407              	.LVL53:
 408              	.L20:
 409              		.loc 1 97 0
 410 002c FFF7FEFF 		bl	VL53L0X_get_dist_mm
 411              	.LVL54:
 412 0030 0446     		mov	r4, r0
 413              	.LVL55:
 414              		.loc 1 99 0
 415 0032 3220     		movs	r0, #50
 416 0034 FFF7FEFF 		bl	chThdSleep
 417              	.LVL56:
 418              		.loc 1 101 0
 419 0038 FFF7FEFF 		bl	VL53L0X_get_dist_mm
 420              	.LVL57:
 421 003c 04F13203 		add	r3, r4, #50
 422 0040 9842     		cmp	r0, r3
 423 0042 00F3BA80 		bgt	.L23
 424              		.loc 1 101 0 is_stmt 0 discriminator 1
 425 0046 FFF7FEFF 		bl	VL53L0X_get_dist_mm
 426              	.LVL58:
 427 004a A4F13203 		sub	r3, r4, #50
 428 004e 9842     		cmp	r0, r3
 429 0050 C0F2B380 		blt	.L23
 430              		.loc 1 107 0 is_stmt 1
 431 0054 4FF49670 		mov	r0, #300
 432 0058 FFF7FEFF 		bl	left_motor_set_speed
 433              	.LVL59:
 434              		.loc 1 108 0
 435 005c 7948     		ldr	r0, .L65+12
 436 005e FFF7FEFF 		bl	right_motor_set_speed
 437              	.LVL60:
 438              		.loc 1 110 0
 439 0062 0020     		movs	r0, #0
 440 0064 FFF7FEFF 		bl	set_front_led
 441              	.LVL61:
 442              		.loc 1 111 0
 443 0068 0020     		movs	r0, #0
 444 006a FFF7FEFF 		bl	set_body_led
 445              	.LVL62:
 446              		.loc 1 113 0
 447 006e 631E     		subs	r3, r4, #1
 448 0070 9BB2     		uxth	r3, r3
 449 0072 40F28232 		movw	r2, #898
 450 0076 9342     		cmp	r3, r2
 451 0078 00F2B080 		bhi	.L22
 452              		.loc 1 113 0 is_stmt 0 discriminator 1
 453 007c C6B3     		cbz	r6, .L55
 454              		.loc 1 120 0 is_stmt 1 discriminator 2
 455 007e 002D     		cmp	r5, #0
 456 0080 54D0     		beq	.L56
ARM GAS  /var/folders/bw/wdbp2_bd0pn7gl5ybd33xbb80000gn/T//ccp3HGsF.s 			page 9


 457              	.L26:
 458              	.LVL63:
 459              		.loc 1 128 0
 460 0082 0120     		movs	r0, #1
 461 0084 FFF7FEFF 		bl	set_body_led
 462              	.LVL64:
 463              	.L29:
 464              		.loc 1 130 0
 465 0088 0120     		movs	r0, #1
 466 008a FFF7FEFF 		bl	set_front_led
 467              	.LVL65:
 468              		.loc 1 135 0
 469 008e 7B1E     		subs	r3, r7, #1
 470 0090 C62B     		cmp	r3, #198
 471 0092 78D9     		bls	.L32
 472              	.L60:
 473              		.loc 1 135 0 is_stmt 0 discriminator 1
 474 0094 B7F5C87F 		cmp	r7, #400
 475 0098 80F08380 		bcs	.L33
 476              		.loc 1 136 0 is_stmt 1
 477 009c BAF5C87F 		cmp	r10, #400
 478 00a0 7FD2     		bcs	.L33
 479              		.loc 1 136 0 is_stmt 0 discriminator 1
 480 00a2 002F     		cmp	r7, #0
 481 00a4 40F0BE80 		bne	.L57
 482              		.loc 1 145 0 is_stmt 1
 483 00a8 0AF1FF33 		add	r3, r10, #-1
 484 00ac C62B     		cmp	r3, #198
 485 00ae 40F28180 		bls	.L54
 486              	.L35:
 487              		.loc 1 176 0
 488 00b2 5146     		mov	r1, r10
 489 00b4 3846     		mov	r0, r7
 490 00b6 FFF7FEFF 		bl	centeringSequence
 491              	.LVL66:
 492              		.loc 1 183 0
 493 00ba 0020     		movs	r0, #0
 494 00bc FFF7FEFF 		bl	left_motor_set_speed
 495              	.LVL67:
 496              		.loc 1 184 0
 497 00c0 0020     		movs	r0, #0
 498 00c2 FFF7FEFF 		bl	right_motor_set_speed
 499              	.LVL68:
 500              		.loc 1 186 0
 501 00c6 0020     		movs	r0, #0
 502 00c8 FFF7FEFF 		bl	set_front_led
 503              	.LVL69:
 504              		.loc 1 187 0
 505 00cc 0020     		movs	r0, #0
 506 00ce FFF7FEFF 		bl	set_body_led
 507              	.LVL70:
 508              		.loc 1 188 0
 509 00d2 019A     		ldr	r2, [sp, #4]
 510 00d4 D9F80030 		ldr	r3, [r9]
 511 00d8 9A42     		cmp	r2, r3
 512 00da 40F0AB80 		bne	.L58
 513 00de 0021     		movs	r1, #0
ARM GAS  /var/folders/bw/wdbp2_bd0pn7gl5ybd33xbb80000gn/T//ccp3HGsF.s 			page 10


 514 00e0 0846     		mov	r0, r1
 515              		.loc 1 190 0
 516 00e2 03B0     		add	sp, sp, #12
 517              		.cfi_remember_state
 518              		.cfi_def_cfa_offset 52
 519              		@ sp needed
 520 00e4 BDEC048B 		vldm	sp!, {d8-d9}
 521              		.cfi_restore 82
 522              		.cfi_restore 83
 523              		.cfi_restore 80
 524              		.cfi_restore 81
 525              		.cfi_def_cfa_offset 36
 526 00e8 BDE8F04F 		pop	{r4, r5, r6, r7, r8, r9, r10, fp, lr}
 527              		.cfi_restore 14
 528              		.cfi_restore 11
 529              		.cfi_restore 10
 530              		.cfi_restore 9
 531              		.cfi_restore 8
 532              		.cfi_restore 7
 533              		.cfi_restore 6
 534              		.cfi_restore 5
 535              		.cfi_restore 4
 536              		.cfi_def_cfa_offset 0
 537              		.loc 1 188 0
 538 00ec FFF7FEBF 		b	set_led
 539              	.LVL71:
 540              	.L55:
 541              		.cfi_restore_state
 542              		.loc 1 115 0
 543 00f0 04F12307 		add	r7, r4, #35
 544 00f4 BFB2     		uxth	r7, r7
 545              	.LVL72:
 546              	.LBB67:
 547              	.LBB68:
 548              	.LBB69:
 549              	.LBB70:
 550              	.LBB71:
 551              	.LBB72:
 552              	.LBB73:
 553              		.file 2 "../../lib/e-puck2_main-processor/ChibiOS//os/ext/CMSIS/include/core_cmFunc.h"
 554              		.loc 2 546 0
 555 00f6 2023     		movs	r3, #32
 556              		.syntax unified
 557              	@ 546 "../../lib/e-puck2_main-processor/ChibiOS//os/ext/CMSIS/include/core_cmFunc.h" 1
 558 00f8 83F31188 		MSR basepri, r3
 559              	@ 0 "" 2
 560              	.LVL73:
 561              		.thumb
 562              		.syntax unified
 563              	.LBE73:
 564              	.LBE72:
 565              	.LBE71:
 566              	.LBE70:
 567              	.LBE69:
 568              	.LBB75:
 569              	.LBB76:
 570              		.file 3 "../../lib/e-puck2_main-processor/ChibiOS//os/rt/include/chvt.h"
ARM GAS  /var/folders/bw/wdbp2_bd0pn7gl5ybd33xbb80000gn/T//ccp3HGsF.s 			page 11


 571              		.loc 3 231 0
 572 00fc 524E     		ldr	r6, .L65+16
 573              	.LBE76:
 574              	.LBE75:
 575              	.LBB78:
 576              	.LBB74:
 577              		.file 4 "../../lib/e-puck2_main-processor/ChibiOS//os/rt/include/chsys.h"
 578              		.loc 4 349 0
 579 00fe FFF7FEFF 		bl	_stats_start_measure_crit_thd
 580              	.LVL74:
 581              		.loc 4 350 0
 582 0102 FFF7FEFF 		bl	_dbg_check_lock
 583              	.LVL75:
 584              	.LBE74:
 585              	.LBE78:
 586              	.LBB79:
 587              	.LBB77:
 588              		.loc 3 231 0
 589 0106 D6F82880 		ldr	r8, [r6, #40]
 590              	.LBE77:
 591              	.LBE79:
 592              	.LBB80:
 593              	.LBB81:
 594              		.loc 4 360 0
 595 010a FFF7FEFF 		bl	_dbg_check_unlock
 596              	.LVL76:
 597              		.loc 4 361 0
 598 010e FFF7FEFF 		bl	_stats_stop_measure_crit_thd
 599              	.LVL77:
 600              		.loc 4 367 0
 601 0112 3368     		ldr	r3, [r6]
 602 0114 B342     		cmp	r3, r6
 603 0116 04D0     		beq	.L25
 604 0118 B269     		ldr	r2, [r6, #24]
 605 011a 9B68     		ldr	r3, [r3, #8]
 606 011c 9268     		ldr	r2, [r2, #8]
 607 011e 9A42     		cmp	r2, r3
 608 0120 64D3     		bcc	.L59
 609              	.L25:
 610              	.LVL78:
 611              	.LBB82:
 612              	.LBB83:
 613              	.LBB84:
 614              		.loc 2 546 0
 615 0122 0023     		movs	r3, #0
 616              		.syntax unified
 617              	@ 546 "../../lib/e-puck2_main-processor/ChibiOS//os/ext/CMSIS/include/core_cmFunc.h" 1
 618 0124 83F31188 		MSR basepri, r3
 619              	@ 0 "" 2
 620              	.LVL79:
 621              		.thumb
 622              		.syntax unified
 623              	.L63:
 624              	.LBE84:
 625              	.LBE83:
 626              	.LBE82:
 627              	.LBE81:
ARM GAS  /var/folders/bw/wdbp2_bd0pn7gl5ybd33xbb80000gn/T//ccp3HGsF.s 			page 12


 628              	.LBE80:
 629              	.LBE68:
 630              	.LBE67:
 631              		.loc 1 120 0
 632 0128 002D     		cmp	r5, #0
 633 012a AAD1     		bne	.L26
 634              	.LVL80:
 635              	.L56:
 636              	.LBB91:
 637              	.LBB92:
 638              	.LBB93:
 639              	.LBB94:
 640              	.LBB95:
 641              	.LBB96:
 642              	.LBB97:
 643              		.loc 2 546 0
 644 012c 2023     		movs	r3, #32
 645              		.syntax unified
 646              	@ 546 "../../lib/e-puck2_main-processor/ChibiOS//os/ext/CMSIS/include/core_cmFunc.h" 1
 647 012e 83F31188 		MSR basepri, r3
 648              	@ 0 "" 2
 649              	.LVL81:
 650              		.thumb
 651              		.syntax unified
 652              	.LBE97:
 653              	.LBE96:
 654              	.LBE95:
 655              	.LBE94:
 656              	.LBE93:
 657              	.LBB99:
 658              	.LBB100:
 659              		.loc 3 231 0
 660 0132 454E     		ldr	r6, .L65+16
 661              	.LBE100:
 662              	.LBE99:
 663              	.LBB102:
 664              	.LBB98:
 665              		.loc 4 349 0
 666 0134 FFF7FEFF 		bl	_stats_start_measure_crit_thd
 667              	.LVL82:
 668              		.loc 4 350 0
 669 0138 FFF7FEFF 		bl	_dbg_check_lock
 670              	.LVL83:
 671              	.LBE98:
 672              	.LBE102:
 673              	.LBB103:
 674              	.LBB101:
 675              		.loc 3 231 0
 676 013c D6F828B0 		ldr	fp, [r6, #40]
 677              	.LBE101:
 678              	.LBE103:
 679              	.LBB104:
 680              	.LBB105:
 681              		.loc 4 360 0
 682 0140 FFF7FEFF 		bl	_dbg_check_unlock
 683              	.LVL84:
 684              		.loc 4 361 0
ARM GAS  /var/folders/bw/wdbp2_bd0pn7gl5ybd33xbb80000gn/T//ccp3HGsF.s 			page 13


 685 0144 FFF7FEFF 		bl	_stats_stop_measure_crit_thd
 686              	.LVL85:
 687              		.loc 4 367 0
 688 0148 3368     		ldr	r3, [r6]
 689 014a B342     		cmp	r3, r6
 690 014c 07D0     		beq	.L27
 691 014e B269     		ldr	r2, [r6, #24]
 692 0150 9B68     		ldr	r3, [r3, #8]
 693 0152 9268     		ldr	r2, [r2, #8]
 694 0154 9A42     		cmp	r2, r3
 695 0156 02D2     		bcs	.L27
 696 0158 3C48     		ldr	r0, .L65+20
 697 015a FFF7FEFF 		bl	chSysHalt
 698              	.LVL86:
 699              	.L27:
 700              	.LBB106:
 701              	.LBB107:
 702              	.LBB108:
 703              		.loc 2 546 0
 704 015e 0023     		movs	r3, #0
 705              		.syntax unified
 706              	@ 546 "../../lib/e-puck2_main-processor/ChibiOS//os/ext/CMSIS/include/core_cmFunc.h" 1
 707 0160 83F31188 		MSR basepri, r3
 708              	@ 0 "" 2
 709              	.LVL87:
 710              		.thumb
 711              		.syntax unified
 712              	.LBE108:
 713              	.LBE107:
 714              	.LBE106:
 715              	.LBE105:
 716              	.LBE104:
 717              	.LBE92:
 718              	.LBE91:
 719              		.loc 1 121 0
 720 0164 ABEB080B 		sub	fp, fp, r8
 721 0168 BBF5FA7F 		cmp	fp, #500
 722 016c 55D9     		bls	.L28
 723              		.loc 1 128 0
 724 016e 0120     		movs	r0, #1
 725 0170 FFF7FEFF 		bl	set_body_led
 726              	.LVL88:
 727              		.loc 1 130 0
 728 0174 0120     		movs	r0, #1
 729 0176 FFF7FEFF 		bl	set_front_led
 730              	.LVL89:
 731              		.loc 1 135 0
 732 017a 7B1E     		subs	r3, r7, #1
 733              		.loc 1 123 0
 734 017c 2334     		adds	r4, r4, #35
 735              	.LVL90:
 736              		.loc 1 135 0
 737 017e C62B     		cmp	r3, #198
 738              		.loc 1 123 0
 739 0180 1FFA84FA 		uxth	r10, r4
 740              	.LVL91:
 741              		.loc 1 135 0
ARM GAS  /var/folders/bw/wdbp2_bd0pn7gl5ybd33xbb80000gn/T//ccp3HGsF.s 			page 14


 742 0184 86D8     		bhi	.L60
 743              	.LVL92:
 744              	.L32:
 745              		.loc 1 138 0
 746 0186 B0EE480A 		vmov.f32	s0, s16
 747              	.L52:
 748              		.loc 1 166 0
 749 018a 4FF41670 		mov	r0, #600
 750 018e FFF7FEFF 		bl	rotationAngle
 751              	.LVL93:
 752              		.loc 1 169 0
 753 0192 0025     		movs	r5, #0
 754              		.loc 1 167 0
 755 0194 C821     		movs	r1, #200
 756 0196 4FF41670 		mov	r0, #600
 757 019a FFF7FEFF 		bl	translationDistance
 758              	.LVL94:
 759              		.loc 1 168 0
 760 019e 2E46     		mov	r6, r5
 761 01a0 44E7     		b	.L20
 762              	.LVL95:
 763              	.L33:
 764              		.loc 1 145 0
 765 01a2 0AF1FF33 		add	r3, r10, #-1
 766 01a6 C62B     		cmp	r3, #198
 767 01a8 04D9     		bls	.L54
 768              		.loc 1 154 0
 769 01aa B7F5487F 		cmp	r7, #800
 770 01ae 24D9     		bls	.L61
 771              		.loc 1 156 0
 772 01b0 BA45     		cmp	r10, r7
 773 01b2 26D2     		bcs	.L38
 774              	.L54:
 775              		.loc 1 157 0
 776 01b4 B0EE680A 		vmov.f32	s0, s17
 777 01b8 E7E7     		b	.L52
 778              	.LVL96:
 779              	.L23:
 780              		.loc 1 104 0
 781 01ba 0221     		movs	r1, #2
 782 01bc 0020     		movs	r0, #0
 783 01be FFF7FEFF 		bl	set_led
 784              	.LVL97:
 785              		.loc 1 107 0
 786 01c2 4FF49670 		mov	r0, #300
 787 01c6 FFF7FEFF 		bl	left_motor_set_speed
 788              	.LVL98:
 789              		.loc 1 108 0
 790 01ca 1E48     		ldr	r0, .L65+12
 791 01cc FFF7FEFF 		bl	right_motor_set_speed
 792              	.LVL99:
 793              		.loc 1 110 0
 794 01d0 0020     		movs	r0, #0
 795 01d2 FFF7FEFF 		bl	set_front_led
 796              	.LVL100:
 797              		.loc 1 111 0
 798 01d6 0020     		movs	r0, #0
ARM GAS  /var/folders/bw/wdbp2_bd0pn7gl5ybd33xbb80000gn/T//ccp3HGsF.s 			page 15


 799 01d8 FFF7FEFF 		bl	set_body_led
 800              	.LVL101:
 801              	.L22:
 802              		.loc 1 127 0
 803 01dc B6B9     		cbnz	r6, .L62
 804              		.loc 1 129 0
 805 01de 0DB9     		cbnz	r5, .L43
 806 01e0 2E46     		mov	r6, r5
 807              	.LVL102:
 808 01e2 23E7     		b	.L20
 809              	.LVL103:
 810              	.L43:
 811              		.loc 1 130 0
 812 01e4 0120     		movs	r0, #1
 813 01e6 FFF7FEFF 		bl	set_front_led
 814              	.LVL104:
 815 01ea 1FE7     		b	.L20
 816              	.LVL105:
 817              	.L59:
 818              	.LBB109:
 819              	.LBB90:
 820              	.LBB89:
 821              	.LBB88:
 822              		.loc 4 367 0
 823 01ec 1748     		ldr	r0, .L65+20
 824 01ee FFF7FEFF 		bl	chSysHalt
 825              	.LVL106:
 826              	.LBB87:
 827              	.LBB86:
 828              	.LBB85:
 829              		.loc 2 546 0
 830 01f2 0023     		movs	r3, #0
 831              		.syntax unified
 832              	@ 546 "../../lib/e-puck2_main-processor/ChibiOS//os/ext/CMSIS/include/core_cmFunc.h" 1
 833 01f4 83F31188 		MSR basepri, r3
 834              	@ 0 "" 2
 835              	.LVL107:
 836              		.thumb
 837              		.syntax unified
 838 01f8 96E7     		b	.L63
 839              	.LVL108:
 840              	.L61:
 841              	.LBE85:
 842              	.LBE86:
 843              	.LBE87:
 844              	.LBE88:
 845              	.LBE89:
 846              	.LBE90:
 847              	.LBE109:
 848              		.loc 1 154 0 discriminator 1
 849 01fa BAF5487F 		cmp	r10, #800
 850 01fe 7FF658AF 		bls	.L35
 851              	.L38:
 852              		.loc 1 164 0
 853 0202 BA45     		cmp	r10, r7
 854 0204 13D8     		bhi	.L64
 855 0206 0125     		movs	r5, #1
ARM GAS  /var/folders/bw/wdbp2_bd0pn7gl5ybd33xbb80000gn/T//ccp3HGsF.s 			page 16


 856 0208 2E46     		mov	r6, r5
 857 020a 0FE7     		b	.L20
 858              	.LVL109:
 859              	.L62:
 860              		.loc 1 128 0
 861 020c 0120     		movs	r0, #1
 862 020e FFF7FEFF 		bl	set_body_led
 863              	.LVL110:
 864              		.loc 1 129 0
 865 0212 002D     		cmp	r5, #0
 866 0214 3FF40AAF 		beq	.L20
 867 0218 36E7     		b	.L29
 868              	.LVL111:
 869              	.L28:
 870              		.loc 1 128 0
 871 021a 0120     		movs	r0, #1
 872 021c FFF7FEFF 		bl	set_body_led
 873              	.LVL112:
 874 0220 0126     		movs	r6, #1
 875 0222 03E7     		b	.L20
 876              	.LVL113:
 877              	.L57:
 878              		.loc 1 136 0 discriminator 2
 879 0224 BAF1000F 		cmp	r10, #0
 880 0228 3FF443AF 		beq	.L35
 881 022c ABE7     		b	.L32
 882              	.L64:
 883              		.loc 1 166 0
 884 022e B0EE490A 		vmov.f32	s0, s18
 885 0232 AAE7     		b	.L52
 886              	.LVL114:
 887              	.L58:
 888              		.loc 1 188 0
 889 0234 FFF7FEFF 		bl	__stack_chk_fail
 890              	.LVL115:
 891              	.L66:
 892              		.align	2
 893              	.L65:
 894 0238 00007042 		.word	1114636288
 895 023c 00002AC3 		.word	3274309632
 896 0240 000070C2 		.word	3262119936
 897 0244 D4FEFFFF 		.word	-300
 898 0248 00000000 		.word	ch
 899 024c 00000000 		.word	.LANCHOR0
 900 0250 00000000 		.word	__stack_chk_guard
 901              		.cfi_endproc
 902              	.LFE294:
 903              		.size	centerGuardian, .-centerGuardian
 904              		.section	.rodata.__func__.8784,"a",%progbits
 905              		.align	2
 906              		.set	.LANCHOR0,. + 0
 907              		.type	__func__.8784, %object
 908              		.size	__func__.8784, 12
 909              	__func__.8784:
 910 0000 63685379 		.ascii	"chSysUnlock\000"
 910      73556E6C 
 910      6F636B00 
ARM GAS  /var/folders/bw/wdbp2_bd0pn7gl5ybd33xbb80000gn/T//ccp3HGsF.s 			page 17


 911              		.text
 912              	.Letext0:
 913              		.file 5 "/Applications/Eclipse_e-puck2.app/Contents/Eclipse_e-puck2/Tools/gcc-arm-none-eabi-7-2017
 914              		.file 6 "/Applications/Eclipse_e-puck2.app/Contents/Eclipse_e-puck2/Tools/gcc-arm-none-eabi-7-2017
 915              		.file 7 "/Applications/Eclipse_e-puck2.app/Contents/Eclipse_e-puck2/Tools/gcc-arm-none-eabi-7-2017
 916              		.file 8 "/Applications/Eclipse_e-puck2.app/Contents/Eclipse_e-puck2/Tools/gcc-arm-none-eabi-7-2017
 917              		.file 9 "/Applications/Eclipse_e-puck2.app/Contents/Eclipse_e-puck2/Tools/gcc-arm-none-eabi-7-2017
 918              		.file 10 "/Applications/Eclipse_e-puck2.app/Contents/Eclipse_e-puck2/Tools/gcc-arm-none-eabi-7-201
 919              		.file 11 "/Applications/Eclipse_e-puck2.app/Contents/Eclipse_e-puck2/Tools/gcc-arm-none-eabi-7-201
 920              		.file 12 "../../lib/e-puck2_main-processor/ChibiOS//os/rt/ports/ARMCMx/compilers/GCC/chtypes.h"
 921              		.file 13 "../../lib/e-puck2_main-processor/ChibiOS//os/rt/include/chsystypes.h"
 922              		.file 14 "../../lib/e-puck2_main-processor/ChibiOS//os/rt/include/chschd.h"
 923              		.file 15 "../../lib/e-puck2_main-processor/ChibiOS//os/ext/CMSIS/include/core_cm4.h"
 924              		.file 16 "../../lib/e-puck2_main-processor/ChibiOS//os/ext/CMSIS/ST/system_stm32f4xx.h"
 925              		.file 17 "../../lib/e-puck2_main-processor/ChibiOS//os/ext/CMSIS/ST/stm32f407xx.h"
 926              		.file 18 "../../lib/e-puck2_main-processor/ChibiOS//os/rt/ports/ARMCMx/chcore.h"
 927              		.file 19 "../../lib/e-puck2_main-processor/ChibiOS//os/rt/ports/ARMCMx/chcore_v7m.h"
 928              		.file 20 "../../lib/e-puck2_main-processor/ChibiOS//os/rt/include/chdebug.h"
 929              		.file 21 "../../lib/e-puck2_main-processor/ChibiOS//os/rt/include/chtm.h"
 930              		.file 22 "../../lib/e-puck2_main-processor/ChibiOS//os/rt/include/chstats.h"
 931              		.file 23 "../../lib/e-puck2_main-processor/ChibiOS//os/rt/include/chsem.h"
 932              		.file 24 "../../lib/e-puck2_main-processor/ChibiOS//os/rt/include/chmtx.h"
 933              		.file 25 "../../lib/e-puck2_main-processor/ChibiOS//os/rt/include/chregistry.h"
 934              		.file 26 "../../lib/e-puck2_main-processor/ChibiOS//os/rt/include/chevents.h"
 935              		.file 27 "../../lib/e-puck2_main-processor/ChibiOS//os/rt/include/chqueues.h"
 936              		.file 28 "../../lib/e-puck2_main-processor/ChibiOS//os/hal/ports/STM32/STM32F4xx/stm32_dma.h"
 937              		.file 29 "../../lib/e-puck2_main-processor/ChibiOS//os/hal/include/hal_ioblock.h"
 938              		.file 30 "../../lib/e-puck2_main-processor/ChibiOS//os/hal/ports/STM32/LLD/GPIOv2/pal_lld.h"
 939              		.file 31 "../../lib/e-puck2_main-processor/ChibiOS//os/hal/include/adc.h"
 940              		.file 32 "../../lib/e-puck2_main-processor/ChibiOS//os/hal/ports/STM32/STM32F4xx/adc_lld.h"
 941              		.file 33 "../../lib/e-puck2_main-processor/ChibiOS//os/hal/include/can.h"
 942              		.file 34 "../../lib/e-puck2_main-processor/ChibiOS//os/hal/ports/STM32/LLD/can_lld.h"
 943              		.file 35 "../../lib/e-puck2_main-processor/ChibiOS//os/hal/include/dac.h"
 944              		.file 36 "../../lib/e-puck2_main-processor/ChibiOS//os/hal/ports/STM32/LLD/DACv1/dac_lld.h"
 945              		.file 37 "../../lib/e-puck2_main-processor/ChibiOS//os/hal/include/ext.h"
 946              		.file 38 "../../lib/e-puck2_main-processor/ChibiOS//os/hal/ports/STM32/LLD/ext_lld.h"
 947              		.file 39 "../../lib/e-puck2_main-processor/ChibiOS//os/hal/include/gpt.h"
 948              		.file 40 "../../lib/e-puck2_main-processor/ChibiOS//os/hal/ports/STM32/LLD/TIMv1/gpt_lld.h"
 949              		.file 41 "../../lib/e-puck2_main-processor/ChibiOS//os/hal/ports/STM32/LLD/TIMv1/stm32_tim.h"
 950              		.file 42 "../../lib/e-puck2_main-processor/ChibiOS//os/hal/include/i2c.h"
 951              		.file 43 "../../lib/e-puck2_main-processor/ChibiOS//os/hal/ports/STM32/LLD/I2Cv1/i2c_lld.h"
 952              		.file 44 "../../lib/e-puck2_main-processor/ChibiOS//os/hal/include/i2s.h"
 953              		.file 45 "../../lib/e-puck2_main-processor/ChibiOS//os/hal/ports/STM32/LLD/SPIv1/i2s_lld.h"
 954              		.file 46 "../../lib/e-puck2_main-processor/ChibiOS//os/hal/include/pwm.h"
 955              		.file 47 "../../lib/e-puck2_main-processor/ChibiOS//os/hal/ports/STM32/LLD/TIMv1/pwm_lld.h"
 956              		.file 48 "../../lib/e-puck2_main-processor/ChibiOS//os/hal/include/serial.h"
 957              		.file 49 "../../lib/e-puck2_main-processor/ChibiOS//os/hal/ports/STM32/LLD/USARTv1/serial_lld.h"
 958              		.file 50 "../../lib/e-puck2_main-processor/ChibiOS//os/hal/include/sdc.h"
 959              		.file 51 "../../lib/e-puck2_main-processor/ChibiOS//os/hal/ports/STM32/LLD/sdc_lld.h"
 960              		.file 52 "../../lib/e-puck2_main-processor/ChibiOS//os/hal/include/spi.h"
 961              		.file 53 "../../lib/e-puck2_main-processor/ChibiOS//os/hal/ports/STM32/LLD/SPIv1/spi_lld.h"
 962              		.file 54 "../../lib/e-puck2_main-processor/ChibiOS//os/hal/include/usb.h"
 963              		.file 55 "../../lib/e-puck2_main-processor/ChibiOS//os/hal/ports/STM32/LLD/OTGv1/usb_lld.h"
 964              		.file 56 "../../lib/e-puck2_main-processor/ChibiOS//os/hal/ports/STM32/LLD/OTGv1/stm32_otg.h"
 965              		.file 57 "../../lib/e-puck2_main-processor/ChibiOS//os/hal/include/serial_usb.h"
 966              		.file 58 "../../lib/e-puck2_main-processor/src/usbcfg.h"
 967              		.file 59 "../../lib/e-puck2_main-processor/ChibiOS_ext/os/hal/include/../ports/STM32/STM32F4xx/dcm
ARM GAS  /var/folders/bw/wdbp2_bd0pn7gl5ybd33xbb80000gn/T//ccp3HGsF.s 			page 18


 968              		.file 60 "/Applications/Eclipse_e-puck2.app/Contents/Eclipse_e-puck2/Tools/gcc-arm-none-eabi-7-201
 969              		.file 61 "../../lib/e-puck2_main-processor/src/msgbus/messagebus.h"
 970              		.file 62 "../../lib/e-puck2_main-processor/src/parameter/parameter.h"
 971              		.file 63 "/Applications/Eclipse_e-puck2.app/Contents/Eclipse_e-puck2/Tools/gcc-arm-none-eabi-7-201
 972              		.file 64 "./main.h"
 973              		.file 65 "../../lib/e-puck2_main-processor/src/leds.h"
 974              		.file 66 "../../lib/e-puck2_main-processor/src/sensors/VL53L0X/VL53L0X.h"
 975              		.file 67 "../../lib/e-puck2_main-processor/ChibiOS//os/rt/include/chthreads.h"
 976              		.file 68 "../../lib/e-puck2_main-processor/src/motors.h"
 977              		.file 69 "./movements.h"