ARM GAS  /var/folders/bw/wdbp2_bd0pn7gl5ybd33xbb80000gn/T//ccDB14pE.s 			page 1


   1              		.cpu cortex-m4
   2              		.eabi_attribute 27, 1
   3              		.eabi_attribute 28, 1
   4              		.eabi_attribute 20, 1
   5              		.eabi_attribute 21, 1
   6              		.eabi_attribute 23, 3
   7              		.eabi_attribute 24, 1
   8              		.eabi_attribute 25, 1
   9              		.eabi_attribute 26, 1
  10              		.eabi_attribute 30, 2
  11              		.eabi_attribute 34, 1
  12              		.eabi_attribute 18, 4
  13              		.file	"getBall.c"
  14              		.text
  15              	.Ltext0:
  16              		.cfi_sections	.debug_frame
  17              		.section	.text.chprintf.constprop.0,"ax",%progbits
  18              		.align	1
  19              		.p2align 4,,15
  20              		.syntax unified
  21              		.thumb
  22              		.thumb_func
  23              		.fpu fpv4-sp-d16
  24              		.type	chprintf.constprop.0, %function
  25              	chprintf.constprop.0:
  26              	.LFB266:
  27              		.file 1 "../../lib/e-puck2_main-processor/ChibiOS//os/hal/lib/streams/chprintf.h"
  28              		.loc 1 69 0
  29              		.cfi_startproc
  30              		@ args = 4, pretend = 12, frame = 8
  31              		@ frame_needed = 0, uses_anonymous_args = 1
  32              	.LVL0:
  33 0000 0EB4     		push	{r1, r2, r3}
  34              		.cfi_def_cfa_offset 12
  35              		.cfi_offset 1, -12
  36              		.cfi_offset 2, -8
  37              		.cfi_offset 3, -4
  38 0002 10B5     		push	{r4, lr}
  39              		.cfi_def_cfa_offset 20
  40              		.cfi_offset 4, -20
  41              		.cfi_offset 14, -16
  42 0004 0A4C     		ldr	r4, .L6
  43              		.loc 1 74 0
  44 0006 0B49     		ldr	r1, .L6+4
  45              		.loc 1 69 0
  46 0008 2368     		ldr	r3, [r4]
  47              		.loc 1 74 0
  48 000a 0B48     		ldr	r0, .L6+8
  49              	.LVL1:
  50              		.loc 1 69 0
  51 000c 83B0     		sub	sp, sp, #12
  52              		.cfi_def_cfa_offset 32
  53              		.loc 1 69 0
  54 000e 0193     		str	r3, [sp, #4]
  55              	.LVL2:
  56              		.loc 1 73 0
  57 0010 06AB     		add	r3, sp, #24
ARM GAS  /var/folders/bw/wdbp2_bd0pn7gl5ybd33xbb80000gn/T//ccDB14pE.s 			page 2


  58              		.loc 1 74 0
  59 0012 1A46     		mov	r2, r3
  60              		.loc 1 73 0
  61 0014 0093     		str	r3, [sp]
  62              		.loc 1 74 0
  63 0016 FFF7FEFF 		bl	chvprintf
  64              	.LVL3:
  65              		.loc 1 78 0
  66 001a 019A     		ldr	r2, [sp, #4]
  67 001c 2368     		ldr	r3, [r4]
  68 001e 9A42     		cmp	r2, r3
  69 0020 04D1     		bne	.L5
  70 0022 03B0     		add	sp, sp, #12
  71              		.cfi_remember_state
  72              		.cfi_def_cfa_offset 20
  73              		@ sp needed
  74 0024 BDE81040 		pop	{r4, lr}
  75              		.cfi_restore 14
  76              		.cfi_restore 4
  77              		.cfi_def_cfa_offset 12
  78 0028 03B0     		add	sp, sp, #12
  79              		.cfi_restore 3
  80              		.cfi_restore 2
  81              		.cfi_restore 1
  82              		.cfi_def_cfa_offset 0
  83 002a 7047     		bx	lr
  84              	.L5:
  85              		.cfi_restore_state
  86 002c FFF7FEFF 		bl	__stack_chk_fail
  87              	.LVL4:
  88              	.L7:
  89              		.align	2
  90              	.L6:
  91 0030 00000000 		.word	__stack_chk_guard
  92 0034 00000000 		.word	.LC0
  93 0038 00000000 		.word	SDU1
  94              		.cfi_endproc
  95              	.LFE266:
  96              		.size	chprintf.constprop.0, .-chprintf.constprop.0
  97              		.global	__aeabi_f2d
  98              		.global	__aeabi_i2d
  99              		.global	__aeabi_dmul
 100              		.global	__aeabi_dsub
 101              		.global	__aeabi_d2f
 102              		.global	__aeabi_ddiv
 103              		.global	__aeabi_d2uiz
 104              		.section	.text.calculate_target,"ax",%progbits
 105              		.align	1
 106              		.p2align 4,,15
 107              		.global	calculate_target
 108              		.syntax unified
 109              		.thumb
 110              		.thumb_func
 111              		.fpu fpv4-sp-d16
 112              		.type	calculate_target, %function
 113              	calculate_target:
 114              	.LFB260:
ARM GAS  /var/folders/bw/wdbp2_bd0pn7gl5ybd33xbb80000gn/T//ccDB14pE.s 			page 3


 115              		.file 2 "getBall.c"
 116              		.loc 2 24 0
 117              		.cfi_startproc
 118              		@ args = 0, pretend = 0, frame = 24
 119              		@ frame_needed = 0, uses_anonymous_args = 0
 120              	.LVL5:
 121              		.loc 2 26 0
 122 0000 DFED517A 		vldr.32	s15, .L12
 123              		.loc 2 27 0
 124 0004 80EE270A 		vdiv.f32	s0, s0, s15
 125              	.LVL6:
 126              		.loc 2 24 0
 127 0008 2DE9F047 		push	{r4, r5, r6, r7, r8, r9, r10, lr}
 128              		.cfi_def_cfa_offset 32
 129              		.cfi_offset 4, -32
 130              		.cfi_offset 5, -28
 131              		.cfi_offset 6, -24
 132              		.cfi_offset 7, -20
 133              		.cfi_offset 8, -16
 134              		.cfi_offset 9, -12
 135              		.cfi_offset 10, -8
 136              		.cfi_offset 14, -4
 137 000c DFF840A1 		ldr	r10, .L12+8
 138 0010 0546     		mov	r5, r0
 139 0012 DAF80030 		ldr	r3, [r10]
 140              		.loc 2 31 0
 141 0016 00FB00F4 		mul	r4, r0, r0
 142              		.loc 2 24 0
 143 001a 0E46     		mov	r6, r1
 144              		.loc 2 31 0
 145 001c 01FB01F7 		mul	r7, r1, r1
 146              		.loc 2 24 0
 147 0020 2DED048B 		vpush.64	{d8, d9}
 148              		.cfi_def_cfa_offset 48
 149              		.cfi_offset 80, -48
 150              		.cfi_offset 81, -44
 151              		.cfi_offset 82, -40
 152              		.cfi_offset 83, -36
 153              		.loc 2 27 0
 154 0024 DFED498A 		vldr.32	s17, .L12+4
 155 0028 80EE288A 		vdiv.f32	s16, s0, s17
 156              		.loc 2 24 0
 157 002c 86B0     		sub	sp, sp, #24
 158              		.cfi_def_cfa_offset 72
 159              		.loc 2 24 0
 160 002e 0593     		str	r3, [sp, #20]
 161              		.loc 2 26 0
 162 0030 80EEA79A 		vdiv.f32	s18, s1, s15
 163              	.LVL7:
 164              		.loc 2 31 0
 165 0034 18EE100A 		vmov	r0, s16
 166              	.LVL8:
 167 0038 FFF7FEFF 		bl	__aeabi_f2d
 168              	.LVL9:
 169 003c 41EC100B 		vmov	d0, r0, r1
 170 0040 FFF7FEFF 		bl	cos
 171              	.LVL10:
ARM GAS  /var/folders/bw/wdbp2_bd0pn7gl5ybd33xbb80000gn/T//ccDB14pE.s 			page 4


 172 0044 53EC102B 		vmov	r2, r3, d0
 173 0048 E019     		adds	r0, r4, r7
 174 004a CDE90023 		strd	r2, [sp]
 175 004e FFF7FEFF 		bl	__aeabi_i2d
 176              	.LVL11:
 177 0052 8046     		mov	r8, r0
 178 0054 6800     		lsls	r0, r5, #1
 179 0056 06FB00F0 		mul	r0, r6, r0
 180 005a 8946     		mov	r9, r1
 181 005c FFF7FEFF 		bl	__aeabi_i2d
 182              	.LVL12:
 183 0060 DDE90023 		ldrd	r2, [sp]
 184 0064 FFF7FEFF 		bl	__aeabi_dmul
 185              	.LVL13:
 186 0068 0246     		mov	r2, r0
 187 006a 0B46     		mov	r3, r1
 188 006c 4046     		mov	r0, r8
 189 006e 4946     		mov	r1, r9
 190 0070 FFF7FEFF 		bl	__aeabi_dsub
 191              	.LVL14:
 192 0074 41EC100B 		vmov	d0, r0, r1
 193 0078 FFF7FEFF 		bl	sqrt
 194              	.LVL15:
 195 007c 51EC100B 		vmov	r0, r1, d0
 196 0080 FFF7FEFF 		bl	__aeabi_d2f
 197              	.LVL16:
 198              		.loc 2 32 0
 199 0084 07EE904A 		vmov	s15, r4	@ int
 200              		.loc 2 31 0
 201 0088 06EE900A 		vmov	s13, r0
 202              	.LVL17:
 203              		.loc 2 32 0
 204 008c 07EE107A 		vmov	s14, r7	@ int
 205 0090 F8EEE77A 		vcvt.f32.s32	s15, s15
 206 0094 36EEA66A 		vadd.f32	s12, s13, s13
 207 0098 E6EEA67A 		vfma.f32	s15, s13, s13
 208 009c F8EEC76A 		vcvt.f32.s32	s13, s14
 209 00a0 07EE105A 		vmov	s14, r5	@ int
 210 00a4 B8EEC77A 		vcvt.f32.s32	s14, s14
 211 00a8 77EEE67A 		vsub.f32	s15, s15, s13
 212 00ac 26EE077A 		vmul.f32	s14, s12, s14
 213 00b0 C7EE877A 		vdiv.f32	s15, s15, s14
 214 00b4 17EE900A 		vmov	r0, s15
 215              	.LVL18:
 216 00b8 FFF7FEFF 		bl	__aeabi_f2d
 217              	.LVL19:
 218 00bc 41EC100B 		vmov	d0, r0, r1
 219 00c0 FFF7FEFF 		bl	acos
 220              	.LVL20:
 221 00c4 51EC100B 		vmov	r0, r1, d0
 222 00c8 FFF7FEFF 		bl	__aeabi_d2f
 223              	.LVL21:
 224              		.loc 2 34 0
 225 00cc 07EE900A 		vmov	s15, r0
 226 00d0 37EE888A 		vadd.f32	s16, s15, s16
 227              	.LVL22:
 228 00d4 18EE100A 		vmov	r0, s16
ARM GAS  /var/folders/bw/wdbp2_bd0pn7gl5ybd33xbb80000gn/T//ccDB14pE.s 			page 5


 229 00d8 FFF7FEFF 		bl	__aeabi_f2d
 230              	.LVL23:
 231 00dc 41EC100B 		vmov	d0, r0, r1
 232 00e0 FFF7FEFF 		bl	sin
 233              	.LVL24:
 234              		.loc 2 26 0
 235 00e4 C9EE287A 		vdiv.f32	s15, s18, s17
 236              	.LVL25:
 237              		.loc 2 34 0
 238 00e8 53EC102B 		vmov	r2, r3, d0
 239 00ec 77EE887A 		vadd.f32	s15, s15, s16
 240              	.LVL26:
 241 00f0 CDE90223 		strd	r2, [sp, #8]
 242 00f4 17EE900A 		vmov	r0, s15
 243 00f8 FFF7FEFF 		bl	__aeabi_f2d
 244              	.LVL27:
 245 00fc 41EC100B 		vmov	d0, r0, r1
 246 0100 FFF7FEFF 		bl	sin
 247              	.LVL28:
 248 0104 3046     		mov	r0, r6
 249 0106 8DED000B 		vstr.64	d0, [sp]
 250              	.LVL29:
 251 010a FFF7FEFF 		bl	__aeabi_i2d
 252              	.LVL30:
 253 010e DDE90223 		ldrd	r2, [sp, #8]
 254 0112 FFF7FEFF 		bl	__aeabi_dmul
 255              	.LVL31:
 256 0116 9DED000B 		vldr.64	d0, [sp]
 257 011a 53EC102B 		vmov	r2, r3, d0
 258 011e FFF7FEFF 		bl	__aeabi_ddiv
 259              	.LVL32:
 260 0122 21F00043 		bic	r3, r1, #-2147483648
 261 0126 1946     		mov	r1, r3
 262 0128 FFF7FEFF 		bl	__aeabi_d2uiz
 263              	.LVL33:
 264              		.loc 2 37 0
 265 012c 059A     		ldr	r2, [sp, #20]
 266 012e DAF80030 		ldr	r3, [r10]
 267 0132 9A42     		cmp	r2, r3
 268 0134 05D1     		bne	.L11
 269 0136 80B2     		uxth	r0, r0
 270 0138 06B0     		add	sp, sp, #24
 271              		.cfi_remember_state
 272              		.cfi_def_cfa_offset 48
 273              	.LVL34:
 274              		@ sp needed
 275 013a BDEC048B 		vldm	sp!, {d8-d9}
 276              		.cfi_restore 82
 277              		.cfi_restore 83
 278              		.cfi_restore 80
 279              		.cfi_restore 81
 280              		.cfi_def_cfa_offset 32
 281              	.LVL35:
 282 013e BDE8F087 		pop	{r4, r5, r6, r7, r8, r9, r10, pc}
 283              	.LVL36:
 284              	.L11:
 285              		.cfi_restore_state
ARM GAS  /var/folders/bw/wdbp2_bd0pn7gl5ybd33xbb80000gn/T//ccDB14pE.s 			page 6


 286 0142 FFF7FEFF 		bl	__stack_chk_fail
 287              	.LVL37:
 288              	.L13:
 289 0146 00BF     		.align	2
 290              	.L12:
 291 0148 00003443 		.word	1127481344
 292 014c DB0F4940 		.word	1078530011
 293 0150 00000000 		.word	__stack_chk_guard
 294              		.cfi_endproc
 295              	.LFE260:
 296              		.size	calculate_target, .-calculate_target
 297              		.section	.text.ball_search,"ax",%progbits
 298              		.align	1
 299              		.p2align 4,,15
 300              		.global	ball_search
 301              		.syntax unified
 302              		.thumb
 303              		.thumb_func
 304              		.fpu fpv4-sp-d16
 305              		.type	ball_search, %function
 306              	ball_search:
 307              	.LFB261:
 308              		.loc 2 40 0
 309              		.cfi_startproc
 310              		@ args = 0, pretend = 0, frame = 8
 311              		@ frame_needed = 0, uses_anonymous_args = 0
 312 0000 2DE9F04F 		push	{r4, r5, r6, r7, r8, r9, r10, fp, lr}
 313              		.cfi_def_cfa_offset 36
 314              		.cfi_offset 4, -36
 315              		.cfi_offset 5, -32
 316              		.cfi_offset 6, -28
 317              		.cfi_offset 7, -24
 318              		.cfi_offset 8, -20
 319              		.cfi_offset 9, -16
 320              		.cfi_offset 10, -12
 321              		.cfi_offset 11, -8
 322              		.cfi_offset 14, -4
 323 0004 2DED028B 		vpush.64	{d8}
 324              		.cfi_def_cfa_offset 44
 325              		.cfi_offset 80, -44
 326              		.cfi_offset 81, -40
 327 0008 D74B     		ldr	r3, .L47
 328 000a 83B0     		sub	sp, sp, #12
 329              		.cfi_def_cfa_offset 56
 330              		.loc 2 40 0
 331 000c 1B68     		ldr	r3, [r3]
 332 000e 0193     		str	r3, [sp, #4]
 333              	.LVL38:
 334              	.LBB183:
 335              	.LBB184:
 336              	.LBB185:
 337              	.LBB186:
 338              	.LBB187:
 339              	.LBB188:
 340              	.LBB189:
 341              		.file 3 "../../lib/e-puck2_main-processor/ChibiOS//os/ext/CMSIS/include/core_cmFunc.h"
 342              		.loc 3 546 0
ARM GAS  /var/folders/bw/wdbp2_bd0pn7gl5ybd33xbb80000gn/T//ccDB14pE.s 			page 7


 343 0010 2023     		movs	r3, #32
 344              		.syntax unified
 345              	@ 546 "../../lib/e-puck2_main-processor/ChibiOS//os/ext/CMSIS/include/core_cmFunc.h" 1
 346 0012 83F31188 		MSR basepri, r3
 347              	@ 0 "" 2
 348              	.LVL39:
 349              		.thumb
 350              		.syntax unified
 351              	.LBE189:
 352              	.LBE188:
 353              	.LBE187:
 354              	.LBE186:
 355              	.LBE185:
 356              	.LBB191:
 357              	.LBB192:
 358              		.file 4 "../../lib/e-puck2_main-processor/ChibiOS//os/rt/include/chvt.h"
 359              		.loc 4 231 0
 360 0016 D54C     		ldr	r4, .L47+4
 361              	.LBE192:
 362              	.LBE191:
 363              	.LBB194:
 364              	.LBB190:
 365              		.file 5 "../../lib/e-puck2_main-processor/ChibiOS//os/rt/include/chsys.h"
 366              		.loc 5 349 0
 367 0018 FFF7FEFF 		bl	_stats_start_measure_crit_thd
 368              	.LVL40:
 369              		.loc 5 350 0
 370 001c FFF7FEFF 		bl	_dbg_check_lock
 371              	.LVL41:
 372              	.LBE190:
 373              	.LBE194:
 374              	.LBB195:
 375              	.LBB193:
 376              		.loc 4 231 0
 377 0020 A56A     		ldr	r5, [r4, #40]
 378              	.LBE193:
 379              	.LBE195:
 380              	.LBB196:
 381              	.LBB197:
 382              		.loc 5 360 0
 383 0022 FFF7FEFF 		bl	_dbg_check_unlock
 384              	.LVL42:
 385              		.loc 5 361 0
 386 0026 FFF7FEFF 		bl	_stats_stop_measure_crit_thd
 387              	.LVL43:
 388              		.loc 5 367 0
 389 002a 2368     		ldr	r3, [r4]
 390 002c A342     		cmp	r3, r4
 391 002e 05D0     		beq	.L15
 392 0030 A269     		ldr	r2, [r4, #24]
 393 0032 9B68     		ldr	r3, [r3, #8]
 394 0034 9268     		ldr	r2, [r2, #8]
 395 0036 9A42     		cmp	r2, r3
 396 0038 C0F09281 		bcc	.L41
 397              	.L15:
 398              	.LVL44:
 399              	.LBB198:
ARM GAS  /var/folders/bw/wdbp2_bd0pn7gl5ybd33xbb80000gn/T//ccDB14pE.s 			page 8


 400              	.LBB199:
 401              	.LBB200:
 402              		.loc 3 546 0
 403 003c 0023     		movs	r3, #0
 404              		.syntax unified
 405              	@ 546 "../../lib/e-puck2_main-processor/ChibiOS//os/ext/CMSIS/include/core_cmFunc.h" 1
 406 003e 83F31188 		MSR basepri, r3
 407              	@ 0 "" 2
 408              	.LVL45:
 409              		.thumb
 410              		.syntax unified
 411              	.LBE200:
 412              	.LBE199:
 413              	.LBE198:
 414              	.LBE197:
 415              	.LBE196:
 416              	.LBE184:
 417              	.LBE183:
 418              	.LBB204:
 419              	.LBB205:
 420              	.LBB206:
 421              	.LBB207:
 422              		.loc 5 367 0
 423 0042 DFF83083 		ldr	r8, .L47+12
 424              	.LBE207:
 425              	.LBE206:
 426              	.LBE205:
 427              	.LBE204:
 428              		.loc 2 69 0
 429 0046 CA4F     		ldr	r7, .L47+8
 430              	.LBB221:
 431              	.LBB220:
 432              	.LBB212:
 433              	.LBB213:
 434              	.LBB214:
 435              	.LBB215:
 436              	.LBB216:
 437              		.loc 3 546 0
 438 0048 2026     		movs	r6, #32
 439              	.LVL46:
 440              	.L17:
 441              		.syntax unified
 442              	@ 546 "../../lib/e-puck2_main-processor/ChibiOS//os/ext/CMSIS/include/core_cmFunc.h" 1
 443 004a 86F31188 		MSR basepri, r6
 444              	@ 0 "" 2
 445              	.LVL47:
 446              		.thumb
 447              		.syntax unified
 448              	.LBE216:
 449              	.LBE215:
 450              	.LBE214:
 451              		.loc 5 349 0
 452 004e FFF7FEFF 		bl	_stats_start_measure_crit_thd
 453              	.LVL48:
 454              		.loc 5 350 0
 455 0052 FFF7FEFF 		bl	_dbg_check_lock
 456              	.LVL49:
ARM GAS  /var/folders/bw/wdbp2_bd0pn7gl5ybd33xbb80000gn/T//ccDB14pE.s 			page 9


 457              	.LBE213:
 458              	.LBE212:
 459              	.LBB217:
 460              	.LBB218:
 461              		.loc 4 231 0
 462 0056 D4F82890 		ldr	r9, [r4, #40]
 463              	.LBE218:
 464              	.LBE217:
 465              	.LBB219:
 466              	.LBB211:
 467              		.loc 5 360 0
 468 005a FFF7FEFF 		bl	_dbg_check_unlock
 469              	.LVL50:
 470              		.loc 5 361 0
 471 005e FFF7FEFF 		bl	_stats_stop_measure_crit_thd
 472              	.LVL51:
 473              		.loc 5 367 0
 474 0062 2368     		ldr	r3, [r4]
 475 0064 A342     		cmp	r3, r4
 476 0066 07D0     		beq	.L16
 477 0068 A269     		ldr	r2, [r4, #24]
 478 006a 9B68     		ldr	r3, [r3, #8]
 479 006c 9268     		ldr	r2, [r2, #8]
 480 006e 9A42     		cmp	r2, r3
 481 0070 02D2     		bcs	.L16
 482 0072 4046     		mov	r0, r8
 483 0074 FFF7FEFF 		bl	chSysHalt
 484              	.LVL52:
 485              	.L16:
 486              	.LBB208:
 487              	.LBB209:
 488              	.LBB210:
 489              		.loc 3 546 0
 490 0078 4FF0000A 		mov	r10, #0
 491              		.syntax unified
 492              	@ 546 "../../lib/e-puck2_main-processor/ChibiOS//os/ext/CMSIS/include/core_cmFunc.h" 1
 493 007c 8AF31188 		MSR basepri, r10
 494              	@ 0 "" 2
 495              	.LVL53:
 496              		.thumb
 497              		.syntax unified
 498              	.LBE210:
 499              	.LBE209:
 500              	.LBE208:
 501              	.LBE211:
 502              	.LBE219:
 503              	.LBE220:
 504              	.LBE221:
 505              		.loc 2 73 0
 506 0080 C820     		movs	r0, #200
 507 0082 FFF7FEFF 		bl	right_motor_set_speed
 508              	.LVL54:
 509              		.loc 2 74 0
 510 0086 6FF0C700 		mvn	r0, #199
 511 008a FFF7FEFF 		bl	left_motor_set_speed
 512              	.LVL55:
 513              		.loc 2 76 0
ARM GAS  /var/folders/bw/wdbp2_bd0pn7gl5ybd33xbb80000gn/T//ccDB14pE.s 			page 10


 514 008e 0A20     		movs	r0, #10
 515 0090 FFF7FEFF 		bl	chThdSleep
 516              	.LVL56:
 517              		.loc 2 71 0
 518 0094 A9EB0509 		sub	r9, r9, r5
 519              	.LVL57:
 520 0098 4FF47A73 		mov	r3, #1000
 521 009c 09FB0333 		mla	r3, r9, r3, r3
 522 00a0 013B     		subs	r3, r3, #1
 523              		.loc 2 69 0
 524 00a2 BB42     		cmp	r3, r7
 525 00a4 D1D9     		bls	.L17
 526              		.loc 2 78 0
 527 00a6 5046     		mov	r0, r10
 528 00a8 FFF7FEFF 		bl	right_motor_set_speed
 529              	.LVL58:
 530              		.loc 2 79 0
 531 00ac 5046     		mov	r0, r10
 532 00ae FFF7FEFF 		bl	left_motor_set_speed
 533              	.LVL59:
 534              		.loc 2 89 0
 535 00b2 DFF8DC82 		ldr	r8, .L47+40
 536              		.loc 2 79 0
 537 00b6 4FF00109 		mov	r9, #1
 538              	.LVL60:
 539              	.LBB222:
 540              	.LBB223:
 541              	.LBB224:
 542              	.LBB225:
 543              	.LBB226:
 544              	.LBB227:
 545              	.LBB228:
 546              		.loc 3 546 0
 547 00ba 2027     		movs	r7, #32
 548              	.LVL61:
 549              	.L34:
 550              		.syntax unified
 551              	@ 546 "../../lib/e-puck2_main-processor/ChibiOS//os/ext/CMSIS/include/core_cmFunc.h" 1
 552 00bc 87F31188 		MSR basepri, r7
 553              	@ 0 "" 2
 554              	.LVL62:
 555              		.thumb
 556              		.syntax unified
 557              	.LBE228:
 558              	.LBE227:
 559              	.LBE226:
 560              		.loc 5 349 0
 561 00c0 FFF7FEFF 		bl	_stats_start_measure_crit_thd
 562              	.LVL63:
 563              		.loc 5 350 0
 564 00c4 FFF7FEFF 		bl	_dbg_check_lock
 565              	.LVL64:
 566              	.LBE225:
 567              	.LBE224:
 568              	.LBB233:
 569              	.LBB234:
 570              		.loc 4 231 0
ARM GAS  /var/folders/bw/wdbp2_bd0pn7gl5ybd33xbb80000gn/T//ccDB14pE.s 			page 11


 571 00c8 D4F828A0 		ldr	r10, [r4, #40]
 572              	.LBE234:
 573              	.LBE233:
 574              	.LBB236:
 575              	.LBB237:
 576              		.loc 5 360 0
 577 00cc FFF7FEFF 		bl	_dbg_check_unlock
 578              	.LVL65:
 579              		.loc 5 361 0
 580 00d0 FFF7FEFF 		bl	_stats_stop_measure_crit_thd
 581              	.LVL66:
 582              		.loc 5 367 0
 583 00d4 2368     		ldr	r3, [r4]
 584 00d6 A342     		cmp	r3, r4
 585 00d8 07D0     		beq	.L18
 586 00da A169     		ldr	r1, [r4, #24]
 587 00dc 9A68     		ldr	r2, [r3, #8]
 588 00de 8B68     		ldr	r3, [r1, #8]
 589 00e0 9A42     		cmp	r2, r3
 590 00e2 02D9     		bls	.L18
 591 00e4 A348     		ldr	r0, .L47+12
 592 00e6 FFF7FEFF 		bl	chSysHalt
 593              	.LVL67:
 594              	.L18:
 595              	.LBB238:
 596              	.LBB239:
 597              	.LBB240:
 598              		.loc 3 546 0
 599 00ea 0023     		movs	r3, #0
 600              		.syntax unified
 601              	@ 546 "../../lib/e-puck2_main-processor/ChibiOS//os/ext/CMSIS/include/core_cmFunc.h" 1
 602 00ec 83F31188 		MSR basepri, r3
 603              	@ 0 "" 2
 604              	.LVL68:
 605              		.thumb
 606              		.syntax unified
 607 00f0 07E0     		b	.L22
 608              	.LVL69:
 609              	.L20:
 610              	.LBE240:
 611              	.LBE239:
 612              	.LBE238:
 613              	.LBE237:
 614              	.LBE236:
 615              	.LBE223:
 616              	.LBE222:
 617              		.loc 2 125 0
 618 00f2 0A20     		movs	r0, #10
 619 00f4 FFF7FEFF 		bl	chThdSleep
 620              	.LVL70:
 621              		.loc 2 87 0
 622 00f8 40F60B53 		movw	r3, #3339
 623 00fc 9D42     		cmp	r5, r3
 624 00fe 00F28B80 		bhi	.L42
 625              	.LVL71:
 626              	.L22:
 627              	.LBB249:
ARM GAS  /var/folders/bw/wdbp2_bd0pn7gl5ybd33xbb80000gn/T//ccDB14pE.s 			page 12


 628              	.LBB250:
 629              	.LBB251:
 630              	.LBB252:
 631              	.LBB253:
 632              	.LBB254:
 633              	.LBB255:
 634              		.loc 3 546 0
 635              		.syntax unified
 636              	@ 546 "../../lib/e-puck2_main-processor/ChibiOS//os/ext/CMSIS/include/core_cmFunc.h" 1
 637 0102 87F31188 		MSR basepri, r7
 638              	@ 0 "" 2
 639              	.LVL72:
 640              		.thumb
 641              		.syntax unified
 642              	.LBE255:
 643              	.LBE254:
 644              	.LBE253:
 645              		.loc 5 349 0
 646 0106 FFF7FEFF 		bl	_stats_start_measure_crit_thd
 647              	.LVL73:
 648              		.loc 5 350 0
 649 010a FFF7FEFF 		bl	_dbg_check_lock
 650              	.LVL74:
 651              	.LBE252:
 652              	.LBE251:
 653              	.LBB256:
 654              	.LBB257:
 655              		.loc 4 231 0
 656 010e A56A     		ldr	r5, [r4, #40]
 657              	.LBE257:
 658              	.LBE256:
 659              	.LBB258:
 660              	.LBB259:
 661              		.loc 5 360 0
 662 0110 FFF7FEFF 		bl	_dbg_check_unlock
 663              	.LVL75:
 664              		.loc 5 361 0
 665 0114 FFF7FEFF 		bl	_stats_stop_measure_crit_thd
 666              	.LVL76:
 667              		.loc 5 367 0
 668 0118 2368     		ldr	r3, [r4]
 669 011a A342     		cmp	r3, r4
 670 011c 07D0     		beq	.L19
 671 011e A169     		ldr	r1, [r4, #24]
 672 0120 9A68     		ldr	r2, [r3, #8]
 673 0122 8B68     		ldr	r3, [r1, #8]
 674 0124 9A42     		cmp	r2, r3
 675 0126 02D9     		bls	.L19
 676 0128 9248     		ldr	r0, .L47+12
 677 012a FFF7FEFF 		bl	chSysHalt
 678              	.LVL77:
 679              	.L19:
 680              	.LBB260:
 681              	.LBB261:
 682              	.LBB262:
 683              		.loc 3 546 0
 684 012e 0023     		movs	r3, #0
ARM GAS  /var/folders/bw/wdbp2_bd0pn7gl5ybd33xbb80000gn/T//ccDB14pE.s 			page 13


 685              		.syntax unified
 686              	@ 546 "../../lib/e-puck2_main-processor/ChibiOS//os/ext/CMSIS/include/core_cmFunc.h" 1
 687 0130 83F31188 		MSR basepri, r3
 688              	@ 0 "" 2
 689              	.LVL78:
 690              		.thumb
 691              		.syntax unified
 692              	.LBE262:
 693              	.LBE261:
 694              	.LBE260:
 695              	.LBE259:
 696              	.LBE258:
 697              	.LBE250:
 698              	.LBE249:
 699              		.loc 2 91 0
 700 0134 6FF0C700 		mvn	r0, #199
 701 0138 FFF7FEFF 		bl	right_motor_set_speed
 702              	.LVL79:
 703              		.loc 2 92 0
 704 013c C820     		movs	r0, #200
 705 013e FFF7FEFF 		bl	left_motor_set_speed
 706              	.LVL80:
 707              		.loc 2 89 0
 708 0142 4FF47A76 		mov	r6, #1000
 709              		.loc 2 94 0
 710 0146 FFF7FEFF 		bl	VL53L0X_get_dist_mm
 711              	.LVL81:
 712              		.loc 2 89 0
 713 014a A5EB0A05 		sub	r5, r5, r10
 714 014e 05FB0665 		mla	r5, r5, r6, r6
 715 0152 013D     		subs	r5, r5, #1
 716 0154 A8FB0535 		umull	r3, r5, r8, r5
 717              		.loc 2 96 0
 718 0158 431E     		subs	r3, r0, #1
 719 015a 9BB2     		uxth	r3, r3
 720 015c B3F5617F 		cmp	r3, #900
 721              		.loc 2 89 0
 722 0160 4FEA9515 		lsr	r5, r5, #6
 723              	.LVL82:
 724              		.loc 2 94 0
 725 0164 8346     		mov	fp, r0
 726              	.LVL83:
 727              		.loc 2 96 0
 728 0166 C4D2     		bcs	.L20
 729 0168 B9F1000F 		cmp	r9, #0
 730 016c C1D1     		bne	.L20
 731              		.loc 2 98 0
 732 016e 0120     		movs	r0, #1
 733              	.LVL84:
 734 0170 FFF7FEFF 		bl	set_front_led
 735              	.LVL85:
 736              		.loc 2 99 0
 737 0174 3220     		movs	r0, #50
 738 0176 FFF7FEFF 		bl	chThdSleep
 739              	.LVL86:
 740              		.loc 2 100 0
 741 017a 4846     		mov	r0, r9
ARM GAS  /var/folders/bw/wdbp2_bd0pn7gl5ybd33xbb80000gn/T//ccDB14pE.s 			page 14


 742 017c FFF7FEFF 		bl	set_front_led
 743              	.LVL87:
 744              		.loc 2 102 0
 745 0180 FFF7FEFF 		bl	VL53L0X_get_dist_mm
 746              	.LVL88:
 747 0184 B0F5617F 		cmp	r0, #900
 748 0188 B3D8     		bhi	.L20
 749              		.loc 2 104 0
 750 018a 07EE90BA 		vmov	s15, fp	@ int
 751 018e DFED7A6A 		vldr.32	s13, .L47+16
 752 0192 9FED7A5A 		vldr.32	s10, .L47+20
 753              		.loc 2 105 0
 754 0196 DFED7A5A 		vldr.32	s11, .L47+24
 755 019a 9FED7A6A 		vldr.32	s12, .L47+28
 756              		.loc 2 104 0
 757 019e B8EEE77A 		vcvt.f32.s32	s14, s15
 758 01a2 27EE267A 		vmul.f32	s14, s14, s13
 759 01a6 C5EE077A 		vdiv.f32	s15, s10, s14
 760 01aa FDEEE77A 		vcvt.s32.f32	s15, s15
 761 01ae 17EE903A 		vmov	r3, s15	@ int
 762              	.LVL89:
 763              		.loc 2 105 0
 764 01b2 1D44     		add	r5, r5, r3
 765              	.LVL90:
 766 01b4 07EE905A 		vmov	s15, r5	@ int
 767 01b8 F8EE677A 		vcvt.f32.u32	s15, s15
 768              		.loc 2 107 0
 769 01bc 322B     		cmp	r3, #50
 770              		.loc 2 105 0
 771 01be 67EEA67A 		vmul.f32	s15, s15, s13
 772 01c2 87EEA58A 		vdiv.f32	s16, s15, s11
 773 01c6 38EE468A 		vsub.f32	s16, s16, s12
 774              	.LVL91:
 775              		.loc 2 107 0
 776 01ca 00F3EF80 		bgt	.L43
 777              	.LVL92:
 778              	.L25:
 779              		.loc 2 110 0
 780 01ce 0020     		movs	r0, #0
 781 01d0 FFF7FEFF 		bl	right_motor_set_speed
 782              	.LVL93:
 783              		.loc 2 111 0
 784 01d4 0020     		movs	r0, #0
 785 01d6 FFF7FEFF 		bl	left_motor_set_speed
 786              	.LVL94:
 787              		.loc 2 113 0
 788 01da 40F28663 		movw	r3, #1670
 789 01de 9D42     		cmp	r5, r3
 790              		.loc 2 114 0
 791 01e0 694B     		ldr	r3, .L47+32
 792              		.loc 2 113 0
 793 01e2 00F2B980 		bhi	.L40
 794              	.LVL95:
 795              	.L32:
 796              		.loc 2 161 0
 797 01e6 4FF07E51 		mov	r1, #1065353216
 798 01ea 5960     		str	r1, [r3, #4]	@ float
ARM GAS  /var/folders/bw/wdbp2_bd0pn7gl5ybd33xbb80000gn/T//ccDB14pE.s 			page 15


 799              	.L33:
 800              		.loc 2 166 0
 801 01ec 0BF12302 		add	r2, fp, #35
 802 01f0 07EE902A 		vmov	s15, r2	@ int
 803 01f4 F8EEE77A 		vcvt.f32.s32	s15, s15
 804              		.loc 2 163 0
 805 01f8 83ED028A 		vstr.32	s16, [r3, #8]
 806              		.loc 2 166 0
 807 01fc C3ED037A 		vstr.32	s15, [r3, #12]
 808              		.loc 2 182 0
 809 0200 594B     		ldr	r3, .L47
 810 0202 019A     		ldr	r2, [sp, #4]
 811 0204 1B68     		ldr	r3, [r3]
 812 0206 6048     		ldr	r0, .L47+32
 813 0208 9A42     		cmp	r2, r3
 814 020a 40F0DB80 		bne	.L44
 815 020e 03B0     		add	sp, sp, #12
 816              		.cfi_remember_state
 817              		.cfi_def_cfa_offset 44
 818              		@ sp needed
 819 0210 BDEC028B 		vldm	sp!, {d8}
 820              		.cfi_restore 80
 821              		.cfi_restore 81
 822              		.cfi_def_cfa_offset 36
 823              	.LVL96:
 824 0214 BDE8F08F 		pop	{r4, r5, r6, r7, r8, r9, r10, fp, pc}
 825              	.LVL97:
 826              	.L42:
 827              		.cfi_restore_state
 828              		.loc 2 175 0
 829 0218 0020     		movs	r0, #0
 830 021a FFF7FEFF 		bl	right_motor_set_speed
 831              	.LVL98:
 832              		.loc 2 176 0
 833 021e 0020     		movs	r0, #0
 834 0220 FFF7FEFF 		bl	left_motor_set_speed
 835              	.LVL99:
 836              	.LBB263:
 837              	.LBB248:
 838              	.LBB245:
 839              	.LBB232:
 840              	.LBB231:
 841              	.LBB230:
 842              	.LBB229:
 843              		.loc 3 546 0
 844              		.syntax unified
 845              	@ 546 "../../lib/e-puck2_main-processor/ChibiOS//os/ext/CMSIS/include/core_cmFunc.h" 1
 846 0224 87F31188 		MSR basepri, r7
 847              	@ 0 "" 2
 848              	.LVL100:
 849              		.thumb
 850              		.syntax unified
 851              	.LBE229:
 852              	.LBE230:
 853              	.LBE231:
 854              		.loc 5 349 0
 855 0228 FFF7FEFF 		bl	_stats_start_measure_crit_thd
ARM GAS  /var/folders/bw/wdbp2_bd0pn7gl5ybd33xbb80000gn/T//ccDB14pE.s 			page 16


 856              	.LVL101:
 857              		.loc 5 350 0
 858 022c FFF7FEFF 		bl	_dbg_check_lock
 859              	.LVL102:
 860              	.LBE232:
 861              	.LBE245:
 862              	.LBB246:
 863              	.LBB235:
 864              		.loc 4 231 0
 865 0230 D4F82890 		ldr	r9, [r4, #40]
 866              	.LBE235:
 867              	.LBE246:
 868              	.LBB247:
 869              	.LBB244:
 870              		.loc 5 360 0
 871 0234 FFF7FEFF 		bl	_dbg_check_unlock
 872              	.LVL103:
 873              		.loc 5 361 0
 874 0238 FFF7FEFF 		bl	_stats_stop_measure_crit_thd
 875              	.LVL104:
 876              		.loc 5 367 0
 877 023c 2368     		ldr	r3, [r4]
 878 023e A342     		cmp	r3, r4
 879 0240 07D0     		beq	.L23
 880 0242 A269     		ldr	r2, [r4, #24]
 881 0244 9B68     		ldr	r3, [r3, #8]
 882 0246 9268     		ldr	r2, [r2, #8]
 883 0248 9A42     		cmp	r2, r3
 884 024a 02D2     		bcs	.L23
 885 024c 4948     		ldr	r0, .L47+12
 886 024e FFF7FEFF 		bl	chSysHalt
 887              	.LVL105:
 888              	.L23:
 889              	.LBB243:
 890              	.LBB242:
 891              	.LBB241:
 892              		.loc 3 546 0
 893 0252 0023     		movs	r3, #0
 894              		.syntax unified
 895              	@ 546 "../../lib/e-puck2_main-processor/ChibiOS//os/ext/CMSIS/include/core_cmFunc.h" 1
 896 0254 83F31188 		MSR basepri, r3
 897              	@ 0 "" 2
 898              	.LVL106:
 899              		.thumb
 900              		.syntax unified
 901              	.L24:
 902              	.LBE241:
 903              	.LBE242:
 904              	.LBE243:
 905              	.LBE244:
 906              	.LBE247:
 907              	.LBE248:
 908              	.LBE263:
 909              	.LBB264:
 910              	.LBB265:
 911              	.LBB266:
 912              	.LBB267:
ARM GAS  /var/folders/bw/wdbp2_bd0pn7gl5ybd33xbb80000gn/T//ccDB14pE.s 			page 17


 913              	.LBB268:
 914              	.LBB269:
 915              	.LBB270:
 916              		.syntax unified
 917              	@ 546 "../../lib/e-puck2_main-processor/ChibiOS//os/ext/CMSIS/include/core_cmFunc.h" 1
 918 0258 87F31188 		MSR basepri, r7
 919              	@ 0 "" 2
 920              	.LVL107:
 921              		.thumb
 922              		.syntax unified
 923              	.LBE270:
 924              	.LBE269:
 925              	.LBE268:
 926              		.loc 5 349 0
 927 025c FFF7FEFF 		bl	_stats_start_measure_crit_thd
 928              	.LVL108:
 929              		.loc 5 350 0
 930 0260 FFF7FEFF 		bl	_dbg_check_lock
 931              	.LVL109:
 932              	.LBE267:
 933              	.LBE266:
 934              	.LBB271:
 935              	.LBB272:
 936              		.loc 4 231 0
 937 0264 A56A     		ldr	r5, [r4, #40]
 938              	.LBE272:
 939              	.LBE271:
 940              	.LBB273:
 941              	.LBB274:
 942              		.loc 5 360 0
 943 0266 FFF7FEFF 		bl	_dbg_check_unlock
 944              	.LVL110:
 945              		.loc 5 361 0
 946 026a FFF7FEFF 		bl	_stats_stop_measure_crit_thd
 947              	.LVL111:
 948              		.loc 5 367 0
 949 026e 2368     		ldr	r3, [r4]
 950 0270 A342     		cmp	r3, r4
 951 0272 07D0     		beq	.L29
 952 0274 A269     		ldr	r2, [r4, #24]
 953 0276 9B68     		ldr	r3, [r3, #8]
 954 0278 9268     		ldr	r2, [r2, #8]
 955 027a 9A42     		cmp	r2, r3
 956 027c 02D2     		bcs	.L29
 957 027e 3D48     		ldr	r0, .L47+12
 958 0280 FFF7FEFF 		bl	chSysHalt
 959              	.LVL112:
 960              	.L29:
 961              	.LBB275:
 962              	.LBB276:
 963              	.LBB277:
 964              		.loc 3 546 0
 965 0284 0026     		movs	r6, #0
 966              		.syntax unified
 967              	@ 546 "../../lib/e-puck2_main-processor/ChibiOS//os/ext/CMSIS/include/core_cmFunc.h" 1
 968 0286 86F31188 		MSR basepri, r6
 969              	@ 0 "" 2
ARM GAS  /var/folders/bw/wdbp2_bd0pn7gl5ybd33xbb80000gn/T//ccDB14pE.s 			page 18


 970              	.LVL113:
 971              		.thumb
 972              		.syntax unified
 973              	.LBE277:
 974              	.LBE276:
 975              	.LBE275:
 976              	.LBE274:
 977              	.LBE273:
 978              	.LBE265:
 979              	.LBE264:
 980              		.loc 2 136 0
 981 028a C820     		movs	r0, #200
 982 028c FFF7FEFF 		bl	right_motor_set_speed
 983              	.LVL114:
 984              		.loc 2 137 0
 985 0290 6FF0C700 		mvn	r0, #199
 986 0294 FFF7FEFF 		bl	left_motor_set_speed
 987              	.LVL115:
 988              		.loc 2 134 0
 989 0298 4FF47A7A 		mov	r10, #1000
 990              		.loc 2 139 0
 991 029c FFF7FEFF 		bl	VL53L0X_get_dist_mm
 992              	.LVL116:
 993              		.loc 2 134 0
 994 02a0 A5EB0905 		sub	r5, r5, r9
 995 02a4 05FB0AA5 		mla	r5, r5, r10, r10
 996 02a8 013D     		subs	r5, r5, #1
 997 02aa A8FB0535 		umull	r3, r5, r8, r5
 998              		.loc 2 141 0
 999 02ae 431E     		subs	r3, r0, #1
 1000 02b0 9BB2     		uxth	r3, r3
 1001 02b2 B3F5617F 		cmp	r3, #900
 1002              		.loc 2 134 0
 1003 02b6 4FEA9515 		lsr	r5, r5, #6
 1004              	.LVL117:
 1005              		.loc 2 139 0
 1006 02ba 8346     		mov	fp, r0
 1007              	.LVL118:
 1008              		.loc 2 141 0
 1009 02bc 0DD2     		bcs	.L30
 1010              		.loc 2 143 0
 1011 02be 0120     		movs	r0, #1
 1012              	.LVL119:
 1013 02c0 FFF7FEFF 		bl	set_front_led
 1014              	.LVL120:
 1015              		.loc 2 144 0
 1016 02c4 3220     		movs	r0, #50
 1017 02c6 FFF7FEFF 		bl	chThdSleep
 1018              	.LVL121:
 1019              		.loc 2 145 0
 1020 02ca 3046     		mov	r0, r6
 1021 02cc FFF7FEFF 		bl	set_front_led
 1022              	.LVL122:
 1023              		.loc 2 147 0
 1024 02d0 FFF7FEFF 		bl	VL53L0X_get_dist_mm
 1025              	.LVL123:
 1026 02d4 B0F5617F 		cmp	r0, #900
ARM GAS  /var/folders/bw/wdbp2_bd0pn7gl5ybd33xbb80000gn/T//ccDB14pE.s 			page 19


 1027 02d8 0FD9     		bls	.L45
 1028              	.L30:
 1029              		.loc 2 171 0
 1030 02da 0A20     		movs	r0, #10
 1031 02dc FFF7FEFF 		bl	chThdSleep
 1032              	.LVL124:
 1033              		.loc 2 132 0
 1034 02e0 40F60B53 		movw	r3, #3339
 1035 02e4 9D42     		cmp	r5, r3
 1036 02e6 B7D9     		bls	.L24
 1037              		.loc 2 175 0
 1038 02e8 0020     		movs	r0, #0
 1039 02ea FFF7FEFF 		bl	right_motor_set_speed
 1040              	.LVL125:
 1041              		.loc 2 176 0
 1042 02ee 0020     		movs	r0, #0
 1043 02f0 FFF7FEFF 		bl	left_motor_set_speed
 1044              	.LVL126:
 1045 02f4 4FF00009 		mov	r9, #0
 1046 02f8 E0E6     		b	.L34
 1047              	.LVL127:
 1048              	.L45:
 1049              		.loc 2 149 0
 1050 02fa 07EE90BA 		vmov	s15, fp	@ int
 1051 02fe B8EEE77A 		vcvt.f32.s32	s14, s15
 1052 0302 DFED1D7A 		vldr.32	s15, .L47+16
 1053 0306 9FED1D5A 		vldr.32	s10, .L47+20
 1054              		.loc 2 150 0
 1055 030a DFED205A 		vldr.32	s11, .L47+36
 1056 030e 9FED1C6A 		vldr.32	s12, .L47+24
 1057 0312 DFED1C6A 		vldr.32	s13, .L47+28
 1058              		.loc 2 149 0
 1059 0316 27EE277A 		vmul.f32	s14, s14, s15
 1060 031a C5EE077A 		vdiv.f32	s15, s10, s14
 1061 031e FDEEE77A 		vcvt.s32.f32	s15, s15
 1062 0322 17EE903A 		vmov	r3, s15	@ int
 1063              	.LVL128:
 1064              		.loc 2 150 0
 1065 0326 1D44     		add	r5, r5, r3
 1066              	.LVL129:
 1067 0328 07EE905A 		vmov	s15, r5	@ int
 1068 032c F8EE677A 		vcvt.f32.u32	s15, s15
 1069              		.loc 2 152 0
 1070 0330 322B     		cmp	r3, #50
 1071              		.loc 2 150 0
 1072 0332 67EEA57A 		vmul.f32	s15, s15, s11
 1073 0336 87EE868A 		vdiv.f32	s16, s15, s12
 1074 033a 38EE268A 		vadd.f32	s16, s16, s13
 1075              	.LVL130:
 1076              		.loc 2 152 0
 1077 033e 29DC     		bgt	.L46
 1078              	.LVL131:
 1079              	.L31:
 1080              		.loc 2 155 0
 1081 0340 0020     		movs	r0, #0
 1082 0342 FFF7FEFF 		bl	right_motor_set_speed
 1083              	.LVL132:
ARM GAS  /var/folders/bw/wdbp2_bd0pn7gl5ybd33xbb80000gn/T//ccDB14pE.s 			page 20


 1084              		.loc 2 156 0
 1085 0346 0020     		movs	r0, #0
 1086 0348 FFF7FEFF 		bl	left_motor_set_speed
 1087              	.LVL133:
 1088              		.loc 2 158 0
 1089 034c 40F28663 		movw	r3, #1670
 1090 0350 9D42     		cmp	r5, r3
 1091              		.loc 2 159 0
 1092 0352 0D4B     		ldr	r3, .L47+32
 1093              		.loc 2 158 0
 1094 0354 3FF647AF 		bhi	.L32
 1095              	.LVL134:
 1096              	.L40:
 1097              		.loc 2 159 0
 1098 0358 4FF08041 		mov	r1, #1073741824
 1099 035c 5960     		str	r1, [r3, #4]	@ float
 1100 035e 45E7     		b	.L33
 1101              	.LVL135:
 1102              	.L41:
 1103              	.LBB278:
 1104              	.LBB203:
 1105              	.LBB202:
 1106              	.LBB201:
 1107              		.loc 5 367 0
 1108 0360 0448     		ldr	r0, .L47+12
 1109 0362 FFF7FEFF 		bl	chSysHalt
 1110              	.LVL136:
 1111 0366 69E6     		b	.L15
 1112              	.L48:
 1113              		.align	2
 1114              	.L47:
 1115 0368 00000000 		.word	__stack_chk_guard
 1116 036c 00000000 		.word	ch
 1117 0370 6F7B1900 		.word	1669999
 1118 0374 00000000 		.word	.LANCHOR0
 1119 0378 A1915742 		.word	1113035169
 1120 037c D5DB274A 		.word	1244126165
 1121 0380 00007A44 		.word	1148846080
 1122 0384 0000B442 		.word	1119092736
 1123 0388 00000000 		.word	.LANCHOR1
 1124 038c A19157C2 		.word	3260518817
 1125 0390 D34D6210 		.word	274877907
 1126              	.LVL137:
 1127              	.L46:
 1128              	.LBE201:
 1129              	.LBE202:
 1130              	.LBE203:
 1131              	.LBE278:
 1132              		.loc 2 153 0
 1133 0394 A3F13200 		sub	r0, r3, #50
 1134 0398 0AFB00F0 		mul	r0, r10, r0
 1135 039c 00F2E730 		addw	r0, r0, #999
 1136 03a0 A8FB0030 		umull	r3, r0, r8, r0
 1137              	.LVL138:
 1138 03a4 8009     		lsrs	r0, r0, #6
 1139 03a6 FFF7FEFF 		bl	chThdSleep
 1140              	.LVL139:
ARM GAS  /var/folders/bw/wdbp2_bd0pn7gl5ybd33xbb80000gn/T//ccDB14pE.s 			page 21


 1141 03aa C9E7     		b	.L31
 1142              	.LVL140:
 1143              	.L43:
 1144              		.loc 2 108 0
 1145 03ac A3F13200 		sub	r0, r3, #50
 1146 03b0 06FB00F0 		mul	r0, r6, r0
 1147 03b4 00F2E730 		addw	r0, r0, #999
 1148 03b8 A8FB0030 		umull	r3, r0, r8, r0
 1149              	.LVL141:
 1150 03bc 8009     		lsrs	r0, r0, #6
 1151 03be FFF7FEFF 		bl	chThdSleep
 1152              	.LVL142:
 1153 03c2 04E7     		b	.L25
 1154              	.LVL143:
 1155              	.L44:
 1156              		.loc 2 182 0
 1157 03c4 FFF7FEFF 		bl	__stack_chk_fail
 1158              	.LVL144:
 1159              		.cfi_endproc
 1160              	.LFE261:
 1161              		.size	ball_search, .-ball_search
 1162              		.global	__aeabi_dadd
 1163              		.global	__aeabi_dcmplt
 1164              		.section	.text.direction_search,"ax",%progbits
 1165              		.align	1
 1166              		.p2align 4,,15
 1167              		.global	direction_search
 1168              		.syntax unified
 1169              		.thumb
 1170              		.thumb_func
 1171              		.fpu fpv4-sp-d16
 1172              		.type	direction_search, %function
 1173              	direction_search:
 1174              	.LFB262:
 1175              		.loc 2 185 0
 1176              		.cfi_startproc
 1177              		@ args = 0, pretend = 0, frame = 16
 1178              		@ frame_needed = 0, uses_anonymous_args = 0
 1179              	.LVL145:
 1180 0000 2DE9F04F 		push	{r4, r5, r6, r7, r8, r9, r10, fp, lr}
 1181              		.cfi_def_cfa_offset 36
 1182              		.cfi_offset 4, -36
 1183              		.cfi_offset 5, -32
 1184              		.cfi_offset 6, -28
 1185              		.cfi_offset 7, -24
 1186              		.cfi_offset 8, -20
 1187              		.cfi_offset 9, -16
 1188              		.cfi_offset 10, -12
 1189              		.cfi_offset 11, -8
 1190              		.cfi_offset 14, -4
 1191 0004 2DED068B 		vpush.64	{d8, d9, d10}
 1192              		.cfi_def_cfa_offset 60
 1193              		.cfi_offset 80, -60
 1194              		.cfi_offset 81, -56
 1195              		.cfi_offset 82, -52
 1196              		.cfi_offset 83, -48
 1197              		.cfi_offset 84, -44
ARM GAS  /var/folders/bw/wdbp2_bd0pn7gl5ybd33xbb80000gn/T//ccDB14pE.s 			page 22


 1198              		.cfi_offset 85, -40
 1199              		.loc 2 206 0
 1200 0008 D54B     		ldr	r3, .L101+8
 1201              		.loc 2 185 0
 1202 000a D64A     		ldr	r2, .L101+12
 1203              		.loc 2 206 0
 1204 000c 1B78     		ldrb	r3, [r3]	@ zero_extendqisi2
 1205              		.loc 2 185 0
 1206 000e 1268     		ldr	r2, [r2]
 1207 0010 85B0     		sub	sp, sp, #20
 1208              		.cfi_def_cfa_offset 80
 1209              		.loc 2 185 0
 1210 0012 F0EE408A 		vmov.f32	s17, s0
 1211 0016 0392     		str	r2, [sp, #12]
 1212              	.LVL146:
 1213              		.loc 2 206 0
 1214 0018 002B     		cmp	r3, #0
 1215 001a 00F08182 		beq	.L95
 1216              		.loc 2 208 0
 1217 001e 0128     		cmp	r0, #1
 1218 0020 0546     		mov	r5, r0
 1219              		.loc 2 209 0
 1220 0022 D14B     		ldr	r3, .L101+16
 1221              		.loc 2 208 0
 1222 0024 00F08D80 		beq	.L96
 1223              		.loc 2 211 0
 1224 0028 1A46     		mov	r2, r3
 1225 002a 0193     		str	r3, [sp, #4]
 1226 002c 0023     		movs	r3, #0
 1227 002e 1370     		strb	r3, [r2]
 1228              	.L52:
 1229              	.LVL147:
 1230              	.LBB349:
 1231              	.LBB350:
 1232              	.LBB351:
 1233              	.LBB352:
 1234              	.LBB353:
 1235              	.LBB354:
 1236              	.LBB355:
 1237              		.loc 3 546 0
 1238 0030 2023     		movs	r3, #32
 1239              		.syntax unified
 1240              	@ 546 "../../lib/e-puck2_main-processor/ChibiOS//os/ext/CMSIS/include/core_cmFunc.h" 1
 1241 0032 83F31188 		MSR basepri, r3
 1242              	@ 0 "" 2
 1243              	.LVL148:
 1244              		.thumb
 1245              		.syntax unified
 1246              	.LBE355:
 1247              	.LBE354:
 1248              	.LBE353:
 1249              	.LBE352:
 1250              	.LBE351:
 1251              	.LBB357:
 1252              	.LBB358:
 1253              		.loc 4 231 0
 1254 0036 CD4C     		ldr	r4, .L101+20
ARM GAS  /var/folders/bw/wdbp2_bd0pn7gl5ybd33xbb80000gn/T//ccDB14pE.s 			page 23


 1255              	.LBE358:
 1256              	.LBE357:
 1257              	.LBB360:
 1258              	.LBB356:
 1259              		.loc 5 349 0
 1260 0038 FFF7FEFF 		bl	_stats_start_measure_crit_thd
 1261              	.LVL149:
 1262              		.loc 5 350 0
 1263 003c FFF7FEFF 		bl	_dbg_check_lock
 1264              	.LVL150:
 1265              	.LBE356:
 1266              	.LBE360:
 1267              	.LBB361:
 1268              	.LBB359:
 1269              		.loc 4 231 0
 1270 0040 D4F828A0 		ldr	r10, [r4, #40]
 1271              	.LBE359:
 1272              	.LBE361:
 1273              	.LBB362:
 1274              	.LBB363:
 1275              		.loc 5 360 0
 1276 0044 FFF7FEFF 		bl	_dbg_check_unlock
 1277              	.LVL151:
 1278              		.loc 5 361 0
 1279 0048 FFF7FEFF 		bl	_stats_stop_measure_crit_thd
 1280              	.LVL152:
 1281              		.loc 5 367 0
 1282 004c 2368     		ldr	r3, [r4]
 1283 004e A342     		cmp	r3, r4
 1284 0050 07D0     		beq	.L53
 1285 0052 A269     		ldr	r2, [r4, #24]
 1286 0054 9B68     		ldr	r3, [r3, #8]
 1287 0056 9268     		ldr	r2, [r2, #8]
 1288 0058 9A42     		cmp	r2, r3
 1289 005a 02D2     		bcs	.L53
 1290 005c C448     		ldr	r0, .L101+24
 1291 005e FFF7FEFF 		bl	chSysHalt
 1292              	.LVL153:
 1293              	.L53:
 1294              	.LBB364:
 1295              	.LBB365:
 1296              	.LBB366:
 1297              		.loc 3 546 0
 1298 0062 0023     		movs	r3, #0
 1299              		.syntax unified
 1300              	@ 546 "../../lib/e-puck2_main-processor/ChibiOS//os/ext/CMSIS/include/core_cmFunc.h" 1
 1301 0064 83F31188 		MSR basepri, r3
 1302              	@ 0 "" 2
 1303              	.LVL154:
 1304              		.thumb
 1305              		.syntax unified
 1306 0068 F0EEE87A 		vabs.f32	s15, s17
 1307              	.LBE366:
 1308              	.LBE365:
 1309              	.LBE364:
 1310              	.LBE363:
 1311              	.LBE362:
ARM GAS  /var/folders/bw/wdbp2_bd0pn7gl5ybd33xbb80000gn/T//ccDB14pE.s 			page 24


 1312              	.LBE350:
 1313              	.LBE349:
 1314              		.loc 2 218 0
 1315 006c DFF81493 		ldr	r9, .L101+44
 1316              		.loc 2 229 0
 1317 0070 9FEDC09A 		vldr.32	s18, .L101+28
 1318 0074 DFEDC59A 		vldr.32	s19, .L101+52
 1319 0078 17EE908A 		vmov	r8, s15
 1320 007c 31E0     		b	.L62
 1321              	.LVL155:
 1322              	.L55:
 1323              		.loc 2 225 0
 1324 007e BE48     		ldr	r0, .L101+32
 1325 0080 FFF7FEFF 		bl	right_motor_set_speed
 1326              	.LVL156:
 1327              		.loc 2 226 0
 1328 0084 4FF46170 		mov	r0, #900
 1329 0088 FFF7FEFF 		bl	left_motor_set_speed
 1330              	.LVL157:
 1331              	.L56:
 1332              		.loc 2 229 0
 1333 008c 07EE90BA 		vmov	s15, fp	@ int
 1334 0090 F8EEE77A 		vcvt.f32.s32	s15, s15
 1335 0094 67EE897A 		vmul.f32	s15, s15, s18
 1336              		.loc 2 231 0
 1337 0098 C7EEA97A 		vdiv.f32	s15, s15, s19
 1338 009c 17EE900A 		vmov	r0, s15
 1339 00a0 FFF7FEFF 		bl	__aeabi_f2d
 1340              	.LVL158:
 1341 00a4 0646     		mov	r6, r0
 1342 00a6 4046     		mov	r0, r8	@ float
 1343 00a8 0F46     		mov	r7, r1
 1344 00aa FFF7FEFF 		bl	__aeabi_f2d
 1345              	.LVL159:
 1346 00ae 0246     		mov	r2, r0
 1347 00b0 0B46     		mov	r3, r1
 1348 00b2 3046     		mov	r0, r6
 1349 00b4 3946     		mov	r1, r7
 1350 00b6 FFF7FEFF 		bl	__aeabi_dadd
 1351              	.LVL160:
 1352 00ba A7A3     		adr	r3, .L101
 1353 00bc D3E90023 		ldrd	r2, [r3]
 1354 00c0 FFF7FEFF 		bl	__aeabi_dcmplt
 1355              	.LVL161:
 1356 00c4 38B1     		cbz	r0, .L57
 1357              		.loc 2 233 0
 1358 00c6 FFF7FEFF 		bl	VL53L0X_get_dist_mm
 1359              	.LVL162:
 1360              		.loc 2 235 0
 1361 00ca 431E     		subs	r3, r0, #1
 1362 00cc 9BB2     		uxth	r3, r3
 1363 00ce B3F5617F 		cmp	r3, #900
 1364              		.loc 2 233 0
 1365 00d2 0646     		mov	r6, r0
 1366              	.LVL163:
 1367              		.loc 2 235 0
 1368 00d4 38D3     		bcc	.L97
ARM GAS  /var/folders/bw/wdbp2_bd0pn7gl5ybd33xbb80000gn/T//ccDB14pE.s 			page 25


 1369              	.LVL164:
 1370              	.L57:
 1371              		.loc 2 269 0
 1372 00d6 0A20     		movs	r0, #10
 1373 00d8 FFF7FEFF 		bl	chThdSleep
 1374              	.LVL165:
 1375              		.loc 2 216 0
 1376 00dc BBF1F10F 		cmp	fp, #241
 1377 00e0 77D8     		bhi	.L98
 1378              	.LVL166:
 1379              	.L62:
 1380              	.LBB367:
 1381              	.LBB368:
 1382              	.LBB369:
 1383              	.LBB370:
 1384              	.LBB371:
 1385              	.LBB372:
 1386              	.LBB373:
 1387              		.loc 3 546 0
 1388 00e2 2023     		movs	r3, #32
 1389              		.syntax unified
 1390              	@ 546 "../../lib/e-puck2_main-processor/ChibiOS//os/ext/CMSIS/include/core_cmFunc.h" 1
 1391 00e4 83F31188 		MSR basepri, r3
 1392              	@ 0 "" 2
 1393              	.LVL167:
 1394              		.thumb
 1395              		.syntax unified
 1396              	.LBE373:
 1397              	.LBE372:
 1398              	.LBE371:
 1399              		.loc 5 349 0
 1400 00e8 FFF7FEFF 		bl	_stats_start_measure_crit_thd
 1401              	.LVL168:
 1402              		.loc 5 350 0
 1403 00ec FFF7FEFF 		bl	_dbg_check_lock
 1404              	.LVL169:
 1405              	.LBE370:
 1406              	.LBE369:
 1407              	.LBB374:
 1408              	.LBB375:
 1409              		.loc 4 231 0
 1410 00f0 A66A     		ldr	r6, [r4, #40]
 1411              	.LBE375:
 1412              	.LBE374:
 1413              	.LBB376:
 1414              	.LBB377:
 1415              		.loc 5 360 0
 1416 00f2 FFF7FEFF 		bl	_dbg_check_unlock
 1417              	.LVL170:
 1418              		.loc 5 361 0
 1419 00f6 FFF7FEFF 		bl	_stats_stop_measure_crit_thd
 1420              	.LVL171:
 1421              		.loc 5 367 0
 1422 00fa 2368     		ldr	r3, [r4]
 1423 00fc A342     		cmp	r3, r4
 1424 00fe 07D0     		beq	.L54
 1425 0100 A269     		ldr	r2, [r4, #24]
ARM GAS  /var/folders/bw/wdbp2_bd0pn7gl5ybd33xbb80000gn/T//ccDB14pE.s 			page 26


 1426 0102 9B68     		ldr	r3, [r3, #8]
 1427 0104 9268     		ldr	r2, [r2, #8]
 1428 0106 9A42     		cmp	r2, r3
 1429 0108 02D2     		bcs	.L54
 1430 010a 9948     		ldr	r0, .L101+24
 1431 010c FFF7FEFF 		bl	chSysHalt
 1432              	.LVL172:
 1433              	.L54:
 1434              	.LBB378:
 1435              	.LBB379:
 1436              	.LBB380:
 1437              		.loc 3 546 0
 1438 0110 0023     		movs	r3, #0
 1439              		.syntax unified
 1440              	@ 546 "../../lib/e-puck2_main-processor/ChibiOS//os/ext/CMSIS/include/core_cmFunc.h" 1
 1441 0112 83F31188 		MSR basepri, r3
 1442              	@ 0 "" 2
 1443              	.LVL173:
 1444              		.thumb
 1445              		.syntax unified
 1446              	.LBE380:
 1447              	.LBE379:
 1448              	.LBE378:
 1449              	.LBE377:
 1450              	.LBE376:
 1451              	.LBE368:
 1452              	.LBE367:
 1453              		.loc 2 218 0
 1454 0116 4FF47A73 		mov	r3, #1000
 1455 011a A6EB0A0B 		sub	fp, r6, r10
 1456 011e 0BFB033B 		mla	fp, fp, r3, r3
 1457 0122 0BF1FF3B 		add	fp, fp, #-1
 1458 0126 A9FB0B3B 		umull	r3, fp, r9, fp
 1459              		.loc 2 220 0
 1460 012a 012D     		cmp	r5, #1
 1461              		.loc 2 218 0
 1462 012c 4FEA9B1B 		lsr	fp, fp, #6
 1463              	.LVL174:
 1464              		.loc 2 220 0
 1465 0130 A5D1     		bne	.L55
 1466              		.loc 2 221 0
 1467 0132 4FF46170 		mov	r0, #900
 1468 0136 FFF7FEFF 		bl	right_motor_set_speed
 1469              	.LVL175:
 1470              		.loc 2 222 0
 1471 013a 8F48     		ldr	r0, .L101+32
 1472 013c FFF7FEFF 		bl	left_motor_set_speed
 1473              	.LVL176:
 1474 0140 A4E7     		b	.L56
 1475              	.LVL177:
 1476              	.L96:
 1477              		.loc 2 209 0
 1478 0142 0193     		str	r3, [sp, #4]
 1479 0144 1870     		strb	r0, [r3]
 1480 0146 73E7     		b	.L52
 1481              	.LVL178:
 1482              	.L97:
ARM GAS  /var/folders/bw/wdbp2_bd0pn7gl5ybd33xbb80000gn/T//ccDB14pE.s 			page 27


 1483              		.loc 2 237 0
 1484 0148 0120     		movs	r0, #1
 1485              	.LVL179:
 1486 014a FFF7FEFF 		bl	set_front_led
 1487              	.LVL180:
 1488              		.loc 2 238 0
 1489 014e 3220     		movs	r0, #50
 1490 0150 FFF7FEFF 		bl	chThdSleep
 1491              	.LVL181:
 1492              		.loc 2 239 0
 1493 0154 0020     		movs	r0, #0
 1494 0156 FFF7FEFF 		bl	set_front_led
 1495              	.LVL182:
 1496              		.loc 2 241 0
 1497 015a FFF7FEFF 		bl	VL53L0X_get_dist_mm
 1498              	.LVL183:
 1499 015e B0F5617F 		cmp	r0, #900
 1500 0162 B8D8     		bhi	.L57
 1501              		.loc 2 243 0
 1502 0164 0020     		movs	r0, #0
 1503 0166 FFF7FEFF 		bl	right_motor_set_speed
 1504              	.LVL184:
 1505              		.loc 2 244 0
 1506 016a 0020     		movs	r0, #0
 1507 016c FFF7FEFF 		bl	left_motor_set_speed
 1508              	.LVL185:
 1509              		.loc 2 246 0
 1510 0170 07EE906A 		vmov	s15, r6	@ int
 1511 0174 B8EEE77A 		vcvt.f32.s32	s14, s15
 1512 0178 DFED806A 		vldr.32	s13, .L101+36
 1513 017c 27EE097A 		vmul.f32	s14, s14, s18
 1514              		.loc 2 258 0
 1515 0180 2336     		adds	r6, r6, #35
 1516              	.LVL186:
 1517              		.loc 2 246 0
 1518 0182 C6EE877A 		vdiv.f32	s15, s13, s14
 1519              	.LVL187:
 1520              		.loc 2 251 0
 1521 0186 012D     		cmp	r5, #1
 1522              		.loc 2 252 0
 1523 0188 0CBF     		ite	eq
 1524 018a 4FF07E52 		moveq	r2, #1065353216
 1525              		.loc 2 254 0
 1526 018e 4FF08042 		movne	r2, #1073741824
 1527              		.loc 2 260 0
 1528 0192 4FF07E51 		mov	r1, #1065353216
 1529              		.loc 2 246 0
 1530 0196 FCEEE77A 		vcvt.u32.f32	s15, s15
 1531              		.loc 2 248 0
 1532 019a 17EE903A 		vmov	r3, s15	@ int
 1533 019e 5B44     		add	r3, r3, fp
 1534 01a0 07EE903A 		vmov	s15, r3	@ int
 1535 01a4 F8EE677A 		vcvt.f32.u32	s15, s15
 1536              		.loc 2 252 0
 1537 01a8 754B     		ldr	r3, .L101+40
 1538              		.loc 2 248 0
 1539 01aa 27EE899A 		vmul.f32	s18, s15, s18
ARM GAS  /var/folders/bw/wdbp2_bd0pn7gl5ybd33xbb80000gn/T//ccDB14pE.s 			page 28


 1540              		.loc 2 258 0
 1541 01ae 07EE906A 		vmov	s15, r6	@ int
 1542              		.loc 2 248 0
 1543 01b2 89EE297A 		vdiv.f32	s14, s18, s19
 1544              	.LVL188:
 1545              		.loc 2 254 0
 1546 01b6 5A60     		str	r2, [r3, #4]	@ float
 1547              		.loc 2 262 0
 1548 01b8 0122     		movs	r2, #1
 1549              		.loc 2 258 0
 1550 01ba F8EEE77A 		vcvt.f32.s32	s15, s15
 1551              		.loc 2 256 0
 1552 01be 83ED027A 		vstr.32	s14, [r3, #8]
 1553              	.LVL189:
 1554              	.L94:
 1555              		.loc 2 320 0
 1556 01c2 1960     		str	r1, [r3]	@ float
 1557              		.loc 2 317 0
 1558 01c4 C3ED037A 		vstr.32	s15, [r3, #12]
 1559              		.loc 2 322 0
 1560 01c8 654B     		ldr	r3, .L101+8
 1561 01ca 1A70     		strb	r2, [r3]
 1562              		.loc 2 323 0
 1563 01cc 019B     		ldr	r3, [sp, #4]
 1564 01ce 1A70     		strb	r2, [r3]
 1565              		.loc 2 325 0
 1566 01d0 9BE1     		b	.L61
 1567              	.LVL190:
 1568              	.L98:
 1569              		.loc 2 271 0
 1570 01d2 0020     		movs	r0, #0
 1571 01d4 FFF7FEFF 		bl	right_motor_set_speed
 1572              	.LVL191:
 1573              		.loc 2 272 0
 1574 01d8 0020     		movs	r0, #0
 1575 01da FFF7FEFF 		bl	left_motor_set_speed
 1576              	.LVL192:
 1577              	.L50:
 1578              	.LBB381:
 1579              	.LBB382:
 1580              	.LBB383:
 1581              	.LBB384:
 1582              	.LBB385:
 1583              	.LBB386:
 1584              	.LBB387:
 1585              		.loc 3 546 0
 1586 01de 2023     		movs	r3, #32
 1587              		.syntax unified
 1588              	@ 546 "../../lib/e-puck2_main-processor/ChibiOS//os/ext/CMSIS/include/core_cmFunc.h" 1
 1589 01e0 83F31188 		MSR basepri, r3
 1590              	@ 0 "" 2
 1591              	.LVL193:
 1592              		.thumb
 1593              		.syntax unified
 1594              	.LBE387:
 1595              	.LBE386:
 1596              	.LBE385:
ARM GAS  /var/folders/bw/wdbp2_bd0pn7gl5ybd33xbb80000gn/T//ccDB14pE.s 			page 29


 1597              		.loc 5 349 0
 1598 01e4 FFF7FEFF 		bl	_stats_start_measure_crit_thd
 1599              	.LVL194:
 1600              		.loc 5 350 0
 1601 01e8 FFF7FEFF 		bl	_dbg_check_lock
 1602              	.LVL195:
 1603              	.LBE384:
 1604              	.LBE383:
 1605              	.LBB388:
 1606              	.LBB389:
 1607              		.loc 4 231 0
 1608 01ec A76A     		ldr	r7, [r4, #40]
 1609              	.LBE389:
 1610              	.LBE388:
 1611              	.LBB390:
 1612              	.LBB391:
 1613              		.loc 5 360 0
 1614 01ee FFF7FEFF 		bl	_dbg_check_unlock
 1615              	.LVL196:
 1616              		.loc 5 361 0
 1617 01f2 FFF7FEFF 		bl	_stats_stop_measure_crit_thd
 1618              	.LVL197:
 1619              		.loc 5 367 0
 1620 01f6 2368     		ldr	r3, [r4]
 1621 01f8 A342     		cmp	r3, r4
 1622 01fa 07D0     		beq	.L63
 1623 01fc A269     		ldr	r2, [r4, #24]
 1624 01fe 9B68     		ldr	r3, [r3, #8]
 1625 0200 9268     		ldr	r2, [r2, #8]
 1626 0202 9A42     		cmp	r2, r3
 1627 0204 02D2     		bcs	.L63
 1628 0206 5A48     		ldr	r0, .L101+24
 1629 0208 FFF7FEFF 		bl	chSysHalt
 1630              	.LVL198:
 1631              	.L63:
 1632              	.LBB392:
 1633              	.LBB393:
 1634              	.LBB394:
 1635              		.loc 3 546 0
 1636 020c 0023     		movs	r3, #0
 1637              		.syntax unified
 1638              	@ 546 "../../lib/e-puck2_main-processor/ChibiOS//os/ext/CMSIS/include/core_cmFunc.h" 1
 1639 020e 83F31188 		MSR basepri, r3
 1640              	@ 0 "" 2
 1641              	.LVL199:
 1642              		.thumb
 1643              		.syntax unified
 1644              	.LBE394:
 1645              	.LBE393:
 1646              	.LBE392:
 1647              	.LBE391:
 1648              	.LBE390:
 1649              	.LBE382:
 1650              	.LBE381:
 1651              		.loc 2 278 0
 1652 0212 019B     		ldr	r3, [sp, #4]
 1653              		.loc 2 282 0
ARM GAS  /var/folders/bw/wdbp2_bd0pn7gl5ybd33xbb80000gn/T//ccDB14pE.s 			page 30


 1654 0214 DFF86C81 		ldr	r8, .L101+44
 1655              		.loc 2 278 0
 1656 0218 1B78     		ldrb	r3, [r3]	@ zero_extendqisi2
 1657 021a 002B     		cmp	r3, #0
 1658 021c 00F0BE80 		beq	.L87
 1659              		.loc 2 288 0
 1660 0220 9FED548A 		vldr.32	s16, .L101+28
 1661 0224 DFED599A 		vldr.32	s19, .L101+52
 1662 0228 9FED5B9A 		vldr.32	s18, .L101+64
 1663              		.loc 2 290 0
 1664 022c 9FED59AA 		vldr.32	s20, .L101+60
 1665 0230 DFED57AA 		vldr.32	s21, .L101+56
 1666 0234 06E0     		b	.L71
 1667              	.LVL200:
 1668              	.L66:
 1669              		.loc 2 330 0
 1670 0236 0A20     		movs	r0, #10
 1671 0238 FFF7FEFF 		bl	chThdSleep
 1672              	.LVL201:
 1673              		.loc 2 280 0
 1674 023c B5F5F27F 		cmp	r5, #484
 1675 0240 80F04981 		bcs	.L99
 1676              	.LVL202:
 1677              	.L71:
 1678              	.LBB395:
 1679              	.LBB396:
 1680              	.LBB397:
 1681              	.LBB398:
 1682              	.LBB399:
 1683              	.LBB400:
 1684              	.LBB401:
 1685              		.loc 3 546 0
 1686 0244 2023     		movs	r3, #32
 1687              		.syntax unified
 1688              	@ 546 "../../lib/e-puck2_main-processor/ChibiOS//os/ext/CMSIS/include/core_cmFunc.h" 1
 1689 0246 83F31188 		MSR basepri, r3
 1690              	@ 0 "" 2
 1691              	.LVL203:
 1692              		.thumb
 1693              		.syntax unified
 1694              	.LBE401:
 1695              	.LBE400:
 1696              	.LBE399:
 1697              		.loc 5 349 0
 1698 024a FFF7FEFF 		bl	_stats_start_measure_crit_thd
 1699              	.LVL204:
 1700              		.loc 5 350 0
 1701 024e FFF7FEFF 		bl	_dbg_check_lock
 1702              	.LVL205:
 1703              	.LBE398:
 1704              	.LBE397:
 1705              	.LBB402:
 1706              	.LBB403:
 1707              		.loc 4 231 0
 1708 0252 A56A     		ldr	r5, [r4, #40]
 1709              	.LBE403:
 1710              	.LBE402:
ARM GAS  /var/folders/bw/wdbp2_bd0pn7gl5ybd33xbb80000gn/T//ccDB14pE.s 			page 31


 1711              	.LBB404:
 1712              	.LBB405:
 1713              		.loc 5 360 0
 1714 0254 FFF7FEFF 		bl	_dbg_check_unlock
 1715              	.LVL206:
 1716              		.loc 5 361 0
 1717 0258 FFF7FEFF 		bl	_stats_stop_measure_crit_thd
 1718              	.LVL207:
 1719              		.loc 5 367 0
 1720 025c 2368     		ldr	r3, [r4]
 1721 025e A342     		cmp	r3, r4
 1722 0260 07D0     		beq	.L65
 1723 0262 A269     		ldr	r2, [r4, #24]
 1724 0264 9B68     		ldr	r3, [r3, #8]
 1725 0266 9268     		ldr	r2, [r2, #8]
 1726 0268 9A42     		cmp	r2, r3
 1727 026a 02D2     		bcs	.L65
 1728 026c 4048     		ldr	r0, .L101+24
 1729 026e FFF7FEFF 		bl	chSysHalt
 1730              	.LVL208:
 1731              	.L65:
 1732              	.LBB406:
 1733              	.LBB407:
 1734              	.LBB408:
 1735              		.loc 3 546 0
 1736 0272 0026     		movs	r6, #0
 1737              		.syntax unified
 1738              	@ 546 "../../lib/e-puck2_main-processor/ChibiOS//os/ext/CMSIS/include/core_cmFunc.h" 1
 1739 0274 86F31188 		MSR basepri, r6
 1740              	@ 0 "" 2
 1741              	.LVL209:
 1742              		.thumb
 1743              		.syntax unified
 1744              	.LBE408:
 1745              	.LBE407:
 1746              	.LBE406:
 1747              	.LBE405:
 1748              	.LBE404:
 1749              	.LBE396:
 1750              	.LBE395:
 1751              		.loc 2 282 0
 1752 0278 4FF47A73 		mov	r3, #1000
 1753 027c ED1B     		subs	r5, r5, r7
 1754 027e 05FB0335 		mla	r5, r5, r3, r3
 1755 0282 013D     		subs	r5, r5, #1
 1756              		.loc 2 284 0
 1757 0284 3C48     		ldr	r0, .L101+32
 1758              		.loc 2 282 0
 1759 0286 A8FB0535 		umull	r3, r5, r8, r5
 1760              		.loc 2 284 0
 1761 028a FFF7FEFF 		bl	right_motor_set_speed
 1762              	.LVL210:
 1763              		.loc 2 282 0
 1764 028e AD09     		lsrs	r5, r5, #6
 1765              	.LVL211:
 1766              		.loc 2 285 0
 1767 0290 4FF46170 		mov	r0, #900
ARM GAS  /var/folders/bw/wdbp2_bd0pn7gl5ybd33xbb80000gn/T//ccDB14pE.s 			page 32


 1768 0294 FFF7FEFF 		bl	left_motor_set_speed
 1769              	.LVL212:
 1770              		.loc 2 288 0
 1771 0298 07EE905A 		vmov	s15, r5	@ int
 1772 029c B8EEE77A 		vcvt.f32.s32	s14, s15
 1773 02a0 27EE087A 		vmul.f32	s14, s14, s16
 1774 02a4 C7EE297A 		vdiv.f32	s15, s14, s19
 1775 02a8 77EEC97A 		vsub.f32	s15, s15, s18
 1776              		.loc 2 290 0
 1777 02ac 77EEA87A 		vadd.f32	s15, s15, s17
 1778 02b0 F4EECA7A 		vcmpe.f32	s15, s20
 1779 02b4 F1EE10FA 		vmrs	APSR_nzcv, FPSCR
 1780 02b8 BDD5     		bpl	.L66
 1781              		.loc 2 290 0 is_stmt 0 discriminator 1
 1782 02ba F4EEEA7A 		vcmpe.f32	s15, s21
 1783 02be F1EE10FA 		vmrs	APSR_nzcv, FPSCR
 1784 02c2 B8DD     		ble	.L66
 1785              		.loc 2 292 0 is_stmt 1
 1786 02c4 FFF7FEFF 		bl	VL53L0X_get_dist_mm
 1787              	.LVL213:
 1788              		.loc 2 294 0
 1789 02c8 431E     		subs	r3, r0, #1
 1790 02ca 9BB2     		uxth	r3, r3
 1791 02cc B3F5617F 		cmp	r3, #900
 1792              		.loc 2 292 0
 1793 02d0 8146     		mov	r9, r0
 1794              	.LVL214:
 1795              		.loc 2 294 0
 1796 02d2 B0D2     		bcs	.L66
 1797              		.loc 2 296 0
 1798 02d4 0120     		movs	r0, #1
 1799              	.LVL215:
 1800 02d6 FFF7FEFF 		bl	set_front_led
 1801              	.LVL216:
 1802              		.loc 2 297 0
 1803 02da 3220     		movs	r0, #50
 1804 02dc FFF7FEFF 		bl	chThdSleep
 1805              	.LVL217:
 1806              		.loc 2 298 0
 1807 02e0 3046     		mov	r0, r6
 1808 02e2 FFF7FEFF 		bl	set_front_led
 1809              	.LVL218:
 1810              		.loc 2 300 0
 1811 02e6 FFF7FEFF 		bl	VL53L0X_get_dist_mm
 1812              	.LVL219:
 1813 02ea B0F5617F 		cmp	r0, #900
 1814 02ee A2D8     		bhi	.L66
 1815              		.loc 2 302 0
 1816 02f0 3046     		mov	r0, r6
 1817 02f2 FFF7FEFF 		bl	right_motor_set_speed
 1818              	.LVL220:
 1819              		.loc 2 303 0
 1820 02f6 3046     		mov	r0, r6
 1821 02f8 FFF7FEFF 		bl	left_motor_set_speed
 1822              	.LVL221:
 1823              		.loc 2 305 0
 1824 02fc 07EE909A 		vmov	s15, r9	@ int
ARM GAS  /var/folders/bw/wdbp2_bd0pn7gl5ybd33xbb80000gn/T//ccDB14pE.s 			page 33


 1825 0300 B8EEE77A 		vcvt.f32.s32	s14, s15
 1826 0304 DFED1D6A 		vldr.32	s13, .L101+36
 1827 0308 27EE087A 		vmul.f32	s14, s14, s16
 1828              		.loc 2 317 0
 1829 030c 09F12309 		add	r9, r9, #35
 1830              	.LVL222:
 1831              		.loc 2 305 0
 1832 0310 C6EE877A 		vdiv.f32	s15, s13, s14
 1833              	.LVL223:
 1834              		.loc 2 308 0
 1835 0314 F22D     		cmp	r5, #242
 1836              		.loc 2 309 0
 1837 0316 94BF     		ite	ls
 1838 0318 4FF07E52 		movls	r2, #1065353216
 1839              		.loc 2 311 0
 1840 031c 4FF08042 		movhi	r2, #1073741824
 1841              		.loc 2 320 0
 1842 0320 4FF07E51 		mov	r1, #1065353216
 1843              		.loc 2 305 0
 1844 0324 FCEEE77A 		vcvt.u32.f32	s15, s15
 1845              		.loc 2 306 0
 1846 0328 17EE903A 		vmov	r3, s15	@ int
 1847 032c 2B44     		add	r3, r3, r5
 1848 032e 07EE903A 		vmov	s15, r3	@ int
 1849 0332 F8EE677A 		vcvt.f32.u32	s15, s15
 1850              		.loc 2 309 0
 1851 0336 124B     		ldr	r3, .L101+40
 1852              		.loc 2 306 0
 1853 0338 27EE888A 		vmul.f32	s16, s15, s16
 1854              		.loc 2 311 0
 1855 033c 5A60     		str	r2, [r3, #4]	@ float
 1856              		.loc 2 306 0
 1857 033e C8EE297A 		vdiv.f32	s15, s16, s19
 1858              		.loc 2 322 0
 1859 0342 0122     		movs	r2, #1
 1860              		.loc 2 306 0
 1861 0344 37EEC99A 		vsub.f32	s18, s15, s18
 1862              	.LVL224:
 1863              		.loc 2 317 0
 1864 0348 07EE909A 		vmov	s15, r9	@ int
 1865              		.loc 2 314 0
 1866 034c 83ED029A 		vstr.32	s18, [r3, #8]
 1867              		.loc 2 317 0
 1868 0350 F8EEE77A 		vcvt.f32.s32	s15, s15
 1869 0354 35E7     		b	.L94
 1870              	.L102:
 1871 0356 00BF     		.align	3
 1872              	.L101:
 1873 0358 00000000 		.word	0
 1874 035c 00C05240 		.word	1079164928
 1875 0360 00000000 		.word	.LANCHOR2
 1876 0364 00000000 		.word	__stack_chk_guard
 1877 0368 00000000 		.word	.LANCHOR3
 1878 036c 00000000 		.word	ch
 1879 0370 00000000 		.word	.LANCHOR0
 1880 0374 79E77743 		.word	1131931513
 1881 0378 7CFCFFFF 		.word	-900
ARM GAS  /var/folders/bw/wdbp2_bd0pn7gl5ybd33xbb80000gn/T//ccDB14pE.s 			page 34


 1882 037c D5DB274A 		.word	1244126165
 1883 0380 00000000 		.word	.LANCHOR4
 1884 0384 D34D6210 		.word	274877907
 1885 0388 79E777C3 		.word	3279415161
 1886 038c 00007A44 		.word	1148846080
 1887 0390 000096C2 		.word	3264610304
 1888 0394 00009642 		.word	1117126656
 1889 0398 00007042 		.word	1114636288
 1890              	.LVL225:
 1891              	.L87:
 1892              		.loc 2 344 0
 1893 039c 5FED069A 		vldr.32	s19, .L101+48
 1894 03a0 1FED069A 		vldr.32	s18, .L101+52
 1895 03a4 1FED048A 		vldr.32	s16, .L101+64
 1896              		.loc 2 346 0
 1897 03a8 1FED06AA 		vldr.32	s20, .L101+60
 1898 03ac 5FED08AA 		vldr.32	s21, .L101+56
 1899 03b0 06E0     		b	.L64
 1900              	.LVL226:
 1901              	.L75:
 1902              		.loc 2 384 0
 1903 03b2 0A20     		movs	r0, #10
 1904 03b4 FFF7FEFF 		bl	chThdSleep
 1905              	.LVL227:
 1906              		.loc 2 337 0
 1907 03b8 B5F5F27F 		cmp	r5, #484
 1908 03bc 80F09180 		bcs	.L73
 1909              	.LVL228:
 1910              	.L64:
 1911              	.LBB409:
 1912              	.LBB410:
 1913              	.LBB411:
 1914              	.LBB412:
 1915              	.LBB413:
 1916              	.LBB414:
 1917              	.LBB415:
 1918              		.loc 3 546 0
 1919 03c0 2023     		movs	r3, #32
 1920              		.syntax unified
 1921              	@ 546 "../../lib/e-puck2_main-processor/ChibiOS//os/ext/CMSIS/include/core_cmFunc.h" 1
 1922 03c2 83F31188 		MSR basepri, r3
 1923              	@ 0 "" 2
 1924              	.LVL229:
 1925              		.thumb
 1926              		.syntax unified
 1927              	.LBE415:
 1928              	.LBE414:
 1929              	.LBE413:
 1930              		.loc 5 349 0
 1931 03c6 FFF7FEFF 		bl	_stats_start_measure_crit_thd
 1932              	.LVL230:
 1933              		.loc 5 350 0
 1934 03ca FFF7FEFF 		bl	_dbg_check_lock
 1935              	.LVL231:
 1936              	.LBE412:
 1937              	.LBE411:
 1938              	.LBB416:
ARM GAS  /var/folders/bw/wdbp2_bd0pn7gl5ybd33xbb80000gn/T//ccDB14pE.s 			page 35


 1939              	.LBB417:
 1940              		.loc 4 231 0
 1941 03ce A56A     		ldr	r5, [r4, #40]
 1942              	.LBE417:
 1943              	.LBE416:
 1944              	.LBB418:
 1945              	.LBB419:
 1946              		.loc 5 360 0
 1947 03d0 FFF7FEFF 		bl	_dbg_check_unlock
 1948              	.LVL232:
 1949              		.loc 5 361 0
 1950 03d4 FFF7FEFF 		bl	_stats_stop_measure_crit_thd
 1951              	.LVL233:
 1952              		.loc 5 367 0
 1953 03d8 2368     		ldr	r3, [r4]
 1954 03da A342     		cmp	r3, r4
 1955 03dc 07D0     		beq	.L74
 1956 03de A269     		ldr	r2, [r4, #24]
 1957 03e0 9B68     		ldr	r3, [r3, #8]
 1958 03e2 9268     		ldr	r2, [r2, #8]
 1959 03e4 9A42     		cmp	r2, r3
 1960 03e6 02D2     		bcs	.L74
 1961 03e8 5048     		ldr	r0, .L103
 1962 03ea FFF7FEFF 		bl	chSysHalt
 1963              	.LVL234:
 1964              	.L74:
 1965              	.LBB420:
 1966              	.LBB421:
 1967              	.LBB422:
 1968              		.loc 3 546 0
 1969 03ee 0026     		movs	r6, #0
 1970              		.syntax unified
 1971              	@ 546 "../../lib/e-puck2_main-processor/ChibiOS//os/ext/CMSIS/include/core_cmFunc.h" 1
 1972 03f0 86F31188 		MSR basepri, r6
 1973              	@ 0 "" 2
 1974              	.LVL235:
 1975              		.thumb
 1976              		.syntax unified
 1977              	.LBE422:
 1978              	.LBE421:
 1979              	.LBE420:
 1980              	.LBE419:
 1981              	.LBE418:
 1982              	.LBE410:
 1983              	.LBE409:
 1984              		.loc 2 339 0
 1985 03f4 4FF47A73 		mov	r3, #1000
 1986 03f8 ED1B     		subs	r5, r5, r7
 1987 03fa 05FB0335 		mla	r5, r5, r3, r3
 1988 03fe 013D     		subs	r5, r5, #1
 1989              		.loc 2 341 0
 1990 0400 4FF46170 		mov	r0, #900
 1991              		.loc 2 339 0
 1992 0404 A8FB0535 		umull	r3, r5, r8, r5
 1993              		.loc 2 341 0
 1994 0408 FFF7FEFF 		bl	right_motor_set_speed
 1995              	.LVL236:
ARM GAS  /var/folders/bw/wdbp2_bd0pn7gl5ybd33xbb80000gn/T//ccDB14pE.s 			page 36


 1996              		.loc 2 339 0
 1997 040c AD09     		lsrs	r5, r5, #6
 1998              	.LVL237:
 1999              		.loc 2 342 0
 2000 040e 4848     		ldr	r0, .L103+4
 2001 0410 FFF7FEFF 		bl	left_motor_set_speed
 2002              	.LVL238:
 2003              		.loc 2 344 0
 2004 0414 07EE905A 		vmov	s15, r5	@ int
 2005 0418 B8EEE77A 		vcvt.f32.s32	s14, s15
 2006 041c 27EE297A 		vmul.f32	s14, s14, s19
 2007 0420 C7EE097A 		vdiv.f32	s15, s14, s18
 2008 0424 77EE887A 		vadd.f32	s15, s15, s16
 2009              		.loc 2 346 0
 2010 0428 77EEA87A 		vadd.f32	s15, s15, s17
 2011 042c F4EECA7A 		vcmpe.f32	s15, s20
 2012 0430 F1EE10FA 		vmrs	APSR_nzcv, FPSCR
 2013 0434 BDD5     		bpl	.L75
 2014              		.loc 2 346 0 is_stmt 0 discriminator 1
 2015 0436 F4EEEA7A 		vcmpe.f32	s15, s21
 2016 043a F1EE10FA 		vmrs	APSR_nzcv, FPSCR
 2017 043e B8DD     		ble	.L75
 2018              		.loc 2 348 0 is_stmt 1
 2019 0440 FFF7FEFF 		bl	VL53L0X_get_dist_mm
 2020              	.LVL239:
 2021              		.loc 2 350 0
 2022 0444 431E     		subs	r3, r0, #1
 2023 0446 9BB2     		uxth	r3, r3
 2024 0448 B3F5617F 		cmp	r3, #900
 2025              		.loc 2 348 0
 2026 044c 8146     		mov	r9, r0
 2027              	.LVL240:
 2028              		.loc 2 350 0
 2029 044e B0D2     		bcs	.L75
 2030              		.loc 2 352 0
 2031 0450 0120     		movs	r0, #1
 2032              	.LVL241:
 2033 0452 FFF7FEFF 		bl	set_front_led
 2034              	.LVL242:
 2035              		.loc 2 353 0
 2036 0456 3220     		movs	r0, #50
 2037 0458 FFF7FEFF 		bl	chThdSleep
 2038              	.LVL243:
 2039              		.loc 2 354 0
 2040 045c 3046     		mov	r0, r6
 2041 045e FFF7FEFF 		bl	set_front_led
 2042              	.LVL244:
 2043              		.loc 2 356 0
 2044 0462 FFF7FEFF 		bl	VL53L0X_get_dist_mm
 2045              	.LVL245:
 2046 0466 B0F5617F 		cmp	r0, #900
 2047 046a A2D8     		bhi	.L75
 2048              		.loc 2 358 0
 2049 046c 3046     		mov	r0, r6
 2050 046e FFF7FEFF 		bl	right_motor_set_speed
 2051              	.LVL246:
 2052              		.loc 2 359 0
ARM GAS  /var/folders/bw/wdbp2_bd0pn7gl5ybd33xbb80000gn/T//ccDB14pE.s 			page 37


 2053 0472 3046     		mov	r0, r6
 2054 0474 FFF7FEFF 		bl	left_motor_set_speed
 2055              	.LVL247:
 2056              		.loc 2 361 0
 2057 0478 07EE909A 		vmov	s15, r9	@ int
 2058 047c B8EEE77A 		vcvt.f32.s32	s14, s15
 2059 0480 DFED2C7A 		vldr.32	s15, .L103+8
 2060 0484 DFED2C6A 		vldr.32	s13, .L103+12
 2061 0488 27EE277A 		vmul.f32	s14, s14, s15
 2062              		.loc 2 372 0
 2063 048c 09F12309 		add	r9, r9, #35
 2064              	.LVL248:
 2065              		.loc 2 361 0
 2066 0490 C6EE877A 		vdiv.f32	s15, s13, s14
 2067              		.loc 2 364 0
 2068 0494 F22D     		cmp	r5, #242
 2069              		.loc 2 365 0
 2070 0496 94BF     		ite	ls
 2071 0498 4FF08042 		movls	r2, #1073741824
 2072              		.loc 2 367 0
 2073 049c 4FF07E52 		movhi	r2, #1065353216
 2074              		.loc 2 375 0
 2075 04a0 4FF07E51 		mov	r1, #1065353216
 2076              		.loc 2 361 0
 2077 04a4 FCEEE77A 		vcvt.u32.f32	s15, s15
 2078              		.loc 2 362 0
 2079 04a8 17EE903A 		vmov	r3, s15	@ int
 2080 04ac 2B44     		add	r3, r3, r5
 2081 04ae 07EE903A 		vmov	s15, r3	@ int
 2082 04b2 F8EE677A 		vcvt.f32.u32	s15, s15
 2083              		.loc 2 365 0
 2084 04b6 214B     		ldr	r3, .L103+16
 2085              		.loc 2 362 0
 2086 04b8 67EEA99A 		vmul.f32	s19, s15, s19
 2087              		.loc 2 367 0
 2088 04bc 5A60     		str	r2, [r3, #4]	@ float
 2089              		.loc 2 362 0
 2090 04be C9EE897A 		vdiv.f32	s15, s19, s18
 2091              		.loc 2 377 0
 2092 04c2 0122     		movs	r2, #1
 2093              		.loc 2 362 0
 2094 04c4 37EE888A 		vadd.f32	s16, s15, s16
 2095              	.LVL249:
 2096              		.loc 2 372 0
 2097 04c8 07EE909A 		vmov	s15, r9	@ int
 2098              		.loc 2 370 0
 2099 04cc 83ED028A 		vstr.32	s16, [r3, #8]
 2100              		.loc 2 372 0
 2101 04d0 F8EEE77A 		vcvt.f32.s32	s15, s15
 2102 04d4 75E6     		b	.L94
 2103              	.LVL250:
 2104              	.L99:
 2105              		.loc 2 335 0
 2106 04d6 019B     		ldr	r3, [sp, #4]
 2107              		.loc 2 332 0
 2108 04d8 1949     		ldr	r1, .L103+20
 2109              		.loc 2 335 0
ARM GAS  /var/folders/bw/wdbp2_bd0pn7gl5ybd33xbb80000gn/T//ccDB14pE.s 			page 38


 2110 04da 1B78     		ldrb	r3, [r3]	@ zero_extendqisi2
 2111              		.loc 2 332 0
 2112 04dc 0022     		movs	r2, #0
 2113 04de 0A70     		strb	r2, [r1]
 2114              	.LVL251:
 2115              		.loc 2 335 0
 2116 04e0 13B9     		cbnz	r3, .L72
 2117              	.LVL252:
 2118              	.L73:
 2119              		.loc 2 386 0
 2120 04e2 174A     		ldr	r2, .L103+20
 2121 04e4 0023     		movs	r3, #0
 2122 04e6 1370     		strb	r3, [r2]
 2123              	.L72:
 2124              		.loc 2 389 0
 2125 04e8 0020     		movs	r0, #0
 2126 04ea FFF7FEFF 		bl	right_motor_set_speed
 2127              	.LVL253:
 2128              		.loc 2 390 0
 2129 04ee 0020     		movs	r0, #0
 2130 04f0 FFF7FEFF 		bl	left_motor_set_speed
 2131              	.LVL254:
 2132              		.loc 2 392 0
 2133 04f4 0198     		ldr	r0, [sp, #4]
 2134              		.loc 2 394 0
 2135 04f6 114B     		ldr	r3, .L103+16
 2136              		.loc 2 392 0
 2137 04f8 0178     		ldrb	r1, [r0]	@ zero_extendqisi2
 2138              		.loc 2 394 0
 2139 04fa 0022     		movs	r2, #0
 2140              		.loc 2 392 0
 2141 04fc 81F00101 		eor	r1, r1, #1
 2142 0500 0170     		strb	r1, [r0]
 2143              		.loc 2 394 0
 2144 0502 DA60     		str	r2, [r3, #12]	@ float
 2145              		.loc 2 395 0
 2146 0504 9A60     		str	r2, [r3, #8]	@ float
 2147              		.loc 2 396 0
 2148 0506 5A60     		str	r2, [r3, #4]	@ float
 2149              		.loc 2 397 0
 2150 0508 1A60     		str	r2, [r3]	@ float
 2151              	.LVL255:
 2152              	.L61:
 2153              		.loc 2 400 0
 2154 050a 0E4B     		ldr	r3, .L103+24
 2155 050c 039A     		ldr	r2, [sp, #12]
 2156 050e 1B68     		ldr	r3, [r3]
 2157 0510 0A48     		ldr	r0, .L103+16
 2158 0512 9A42     		cmp	r2, r3
 2159 0514 08D1     		bne	.L100
 2160 0516 05B0     		add	sp, sp, #20
 2161              		.cfi_remember_state
 2162              		.cfi_def_cfa_offset 60
 2163              		@ sp needed
 2164 0518 BDEC068B 		vldm	sp!, {d8-d10}
 2165              		.cfi_restore 84
 2166              		.cfi_restore 85
ARM GAS  /var/folders/bw/wdbp2_bd0pn7gl5ybd33xbb80000gn/T//ccDB14pE.s 			page 39


 2167              		.cfi_restore 82
 2168              		.cfi_restore 83
 2169              		.cfi_restore 80
 2170              		.cfi_restore 81
 2171              		.cfi_def_cfa_offset 36
 2172 051c BDE8F08F 		pop	{r4, r5, r6, r7, r8, r9, r10, fp, pc}
 2173              	.LVL256:
 2174              	.L95:
 2175              		.cfi_restore_state
 2176 0520 094B     		ldr	r3, .L103+28
 2177 0522 0193     		str	r3, [sp, #4]
 2178 0524 094C     		ldr	r4, .L103+32
 2179 0526 5AE6     		b	.L50
 2180              	.LVL257:
 2181              	.L100:
 2182 0528 FFF7FEFF 		bl	__stack_chk_fail
 2183              	.LVL258:
 2184              	.L104:
 2185              		.align	2
 2186              	.L103:
 2187 052c 00000000 		.word	.LANCHOR0
 2188 0530 7CFCFFFF 		.word	-900
 2189 0534 79E77743 		.word	1131931513
 2190 0538 D5DB274A 		.word	1244126165
 2191 053c 00000000 		.word	.LANCHOR4
 2192 0540 00000000 		.word	.LANCHOR2
 2193 0544 00000000 		.word	__stack_chk_guard
 2194 0548 00000000 		.word	.LANCHOR3
 2195 054c 00000000 		.word	ch
 2196              		.cfi_endproc
 2197              	.LFE262:
 2198              		.size	direction_search, .-direction_search
 2199              		.section	.text.find_gamma,"ax",%progbits
 2200              		.align	1
 2201              		.p2align 4,,15
 2202              		.global	find_gamma
 2203              		.syntax unified
 2204              		.thumb
 2205              		.thumb_func
 2206              		.fpu fpv4-sp-d16
 2207              		.type	find_gamma, %function
 2208              	find_gamma:
 2209              	.LFB263:
 2210              		.loc 2 403 0
 2211              		.cfi_startproc
 2212              		@ args = 0, pretend = 0, frame = 8
 2213              		@ frame_needed = 0, uses_anonymous_args = 0
 2214              	.LVL259:
 2215 0000 2DE9F041 		push	{r4, r5, r6, r7, r8, lr}
 2216              		.cfi_def_cfa_offset 24
 2217              		.cfi_offset 4, -24
 2218              		.cfi_offset 5, -20
 2219              		.cfi_offset 6, -16
 2220              		.cfi_offset 7, -12
 2221              		.cfi_offset 8, -8
 2222              		.cfi_offset 14, -4
 2223 0004 2DED028B 		vpush.64	{d8}
ARM GAS  /var/folders/bw/wdbp2_bd0pn7gl5ybd33xbb80000gn/T//ccDB14pE.s 			page 40


 2224              		.cfi_def_cfa_offset 32
 2225              		.cfi_offset 80, -32
 2226              		.cfi_offset 81, -28
 2227 0008 264D     		ldr	r5, .L117
 2228 000a F0EEE07A 		vabs.f32	s15, s1
 2229 000e 82B0     		sub	sp, sp, #8
 2230              		.cfi_def_cfa_offset 40
 2231              		.loc 2 403 0
 2232 0010 2B68     		ldr	r3, [r5]
 2233 0012 0193     		str	r3, [sp, #4]
 2234              	.LVL260:
 2235 0014 8046     		mov	r8, r0
 2236 0016 17EE900A 		vmov	r0, s15
 2237              	.LVL261:
 2238 001a B0EE408A 		vmov.f32	s16, s0
 2239 001e 0C46     		mov	r4, r1
 2240 0020 FFF7FEFF 		bl	__aeabi_f2d
 2241              	.LVL262:
 2242 0024 0246     		mov	r2, r0
 2243 0026 0B46     		mov	r3, r1
 2244 0028 0020     		movs	r0, #0
 2245 002a 1F49     		ldr	r1, .L117+4
 2246 002c FFF7FEFF 		bl	__aeabi_dsub
 2247              	.LVL263:
 2248 0030 F0EEC87A 		vabs.f32	s15, s16
 2249 0034 0646     		mov	r6, r0
 2250 0036 17EE900A 		vmov	r0, s15
 2251 003a 0F46     		mov	r7, r1
 2252 003c FFF7FEFF 		bl	__aeabi_f2d
 2253              	.LVL264:
 2254              		.loc 2 407 0
 2255 0040 4445     		cmp	r4, r8
 2256 0042 0246     		mov	r2, r0
 2257 0044 0B46     		mov	r3, r1
 2258              		.loc 2 408 0
 2259 0046 3046     		mov	r0, r6
 2260 0048 3946     		mov	r1, r7
 2261              		.loc 2 407 0
 2262 004a 1DD0     		beq	.L113
 2263              		.loc 2 411 0
 2264 004c FFF7FEFF 		bl	__aeabi_dadd
 2265              	.LVL265:
 2266 0050 FFF7FEFF 		bl	__aeabi_d2f
 2267              	.LVL266:
 2268              		.loc 2 416 0
 2269 0054 022C     		cmp	r4, #2
 2270              		.loc 2 411 0
 2271 0056 08EE100A 		vmov	s16, r0
 2272              	.LVL267:
 2273              		.loc 2 416 0
 2274 005a 1DD0     		beq	.L114
 2275              	.L108:
 2276              		.loc 2 419 0
 2277 005c 012C     		cmp	r4, #1
 2278 005e 0ED0     		beq	.L115
 2279              		.loc 2 423 0
 2280 0060 1249     		ldr	r1, .L117+8
ARM GAS  /var/folders/bw/wdbp2_bd0pn7gl5ybd33xbb80000gn/T//ccDB14pE.s 			page 41


 2281 0062 1348     		ldr	r0, .L117+12
 2282              	.LVL268:
 2283 0064 FFF7FEFF 		bl	chprintf.constprop.0
 2284              	.LVL269:
 2285              	.L105:
 2286              		.loc 2 426 0
 2287 0068 019A     		ldr	r2, [sp, #4]
 2288 006a 2B68     		ldr	r3, [r5]
 2289 006c 9A42     		cmp	r2, r3
 2290 006e B0EE480A 		vmov.f32	s0, s16
 2291 0072 14D1     		bne	.L116
 2292              	.LVL270:
 2293 0074 02B0     		add	sp, sp, #8
 2294              		.cfi_remember_state
 2295              		.cfi_def_cfa_offset 32
 2296              		@ sp needed
 2297 0076 BDEC028B 		vldm	sp!, {d8}
 2298              		.cfi_restore 80
 2299              		.cfi_restore 81
 2300              		.cfi_def_cfa_offset 24
 2301 007a BDE8F081 		pop	{r4, r5, r6, r7, r8, pc}
 2302              	.LVL271:
 2303              	.L115:
 2304              		.cfi_restore_state
 2305              		.loc 2 420 0
 2306 007e B0EEC88A 		vabs.f32	s16, s16
 2307 0082 B1EE488A 		vneg.f32	s16, s16
 2308              	.LVL272:
 2309 0086 EFE7     		b	.L105
 2310              	.LVL273:
 2311              	.L113:
 2312              		.loc 2 408 0
 2313 0088 FFF7FEFF 		bl	__aeabi_dsub
 2314              	.LVL274:
 2315 008c FFF7FEFF 		bl	__aeabi_d2f
 2316              	.LVL275:
 2317              		.loc 2 416 0
 2318 0090 022C     		cmp	r4, #2
 2319              		.loc 2 408 0
 2320 0092 08EE100A 		vmov	s16, r0
 2321              	.LVL276:
 2322              		.loc 2 416 0
 2323 0096 E1D1     		bne	.L108
 2324              	.L114:
 2325              		.loc 2 417 0
 2326 0098 B0EEC88A 		vabs.f32	s16, s16
 2327              	.LVL277:
 2328 009c E4E7     		b	.L105
 2329              	.LVL278:
 2330              	.L116:
 2331              		.loc 2 426 0
 2332 009e FFF7FEFF 		bl	__stack_chk_fail
 2333              	.LVL279:
 2334              	.L118:
 2335 00a2 00BF     		.align	2
 2336              	.L117:
 2337 00a4 00000000 		.word	__stack_chk_guard
ARM GAS  /var/folders/bw/wdbp2_bd0pn7gl5ybd33xbb80000gn/T//ccDB14pE.s 			page 42


 2338 00a8 00805640 		.word	1079410688
 2339 00ac 00000000 		.word	.LC0
 2340 00b0 00000000 		.word	SDU1
 2341              		.cfi_endproc
 2342              	.LFE263:
 2343              		.size	find_gamma, .-find_gamma
 2344              		.section	.text.GetBall,"ax",%progbits
 2345              		.align	1
 2346              		.p2align 4,,15
 2347              		.syntax unified
 2348              		.thumb
 2349              		.thumb_func
 2350              		.fpu fpv4-sp-d16
 2351              		.type	GetBall, %function
 2352              	GetBall:
 2353              	.LFB264:
 2354              		.loc 2 429 0
 2355              		.cfi_startproc
 2356              		@ args = 0, pretend = 0, frame = 16
 2357              		@ frame_needed = 0, uses_anonymous_args = 0
 2358              	.LVL280:
 2359 0000 F0B5     		push	{r4, r5, r6, r7, lr}
 2360              		.cfi_def_cfa_offset 20
 2361              		.cfi_offset 4, -20
 2362              		.cfi_offset 5, -16
 2363              		.cfi_offset 6, -12
 2364              		.cfi_offset 7, -8
 2365              		.cfi_offset 14, -4
 2366 0002 2DED048B 		vpush.64	{d8, d9}
 2367              		.cfi_def_cfa_offset 36
 2368              		.cfi_offset 80, -36
 2369              		.cfi_offset 81, -32
 2370              		.cfi_offset 82, -28
 2371              		.cfi_offset 83, -24
 2372              	.LBB423:
 2373              	.LBB424:
 2374              		.file 6 "../../lib/e-puck2_main-processor/ChibiOS//os/rt/include/chregistry.h"
 2375              		.loc 6 135 0
 2376 0006 504A     		ldr	r2, .L139
 2377              	.LBE424:
 2378              	.LBE423:
 2379              		.loc 2 429 0
 2380 0008 504B     		ldr	r3, .L139+4
 2381              		.loc 2 436 0
 2382 000a 9FED519A 		vldr.32	s18, .L139+8
 2383              	.LBB427:
 2384              	.LBB425:
 2385              		.loc 6 135 0
 2386 000e 9269     		ldr	r2, [r2, #24]
 2387 0010 5049     		ldr	r1, .L139+12
 2388              	.LBE425:
 2389              	.LBE427:
 2390              		.loc 2 429 0
 2391 0012 1B68     		ldr	r3, [r3]
 2392              		.loc 2 464 0
 2393 0014 504F     		ldr	r7, .L139+16
 2394              	.LBB428:
ARM GAS  /var/folders/bw/wdbp2_bd0pn7gl5ybd33xbb80000gn/T//ccDB14pE.s 			page 43


 2395              	.LBB426:
 2396              		.loc 6 135 0
 2397 0016 9161     		str	r1, [r2, #24]
 2398              	.LBE426:
 2399              	.LBE428:
 2400              		.loc 2 429 0
 2401 0018 85B0     		sub	sp, sp, #20
 2402              		.cfi_def_cfa_offset 56
 2403              		.loc 2 435 0
 2404 001a F0EE498A 		vmov.f32	s17, s18
 2405              		.loc 2 429 0
 2406 001e 0393     		str	r3, [sp, #12]
 2407              	.LVL281:
 2408              		.loc 2 438 0
 2409 0020 0026     		movs	r6, #0
 2410              	.LVL282:
 2411              	.L127:
 2412              		.loc 2 454 0
 2413 0022 FFF7FEFF 		bl	centerGuardian
 2414              	.LVL283:
 2415              		.loc 2 456 0
 2416 0026 FFF7FEFF 		bl	ball_search
 2417              	.LVL284:
 2418              		.loc 2 460 0
 2419 002a D0ED037A 		vldr.32	s15, [r0, #12]
 2420              		.loc 2 458 0
 2421 002e D0ED019A 		vldr.32	s19, [r0, #4]
 2422              	.LVL285:
 2423              		.loc 2 459 0
 2424 0032 90ED028A 		vldr.32	s16, [r0, #8]
 2425              	.LVL286:
 2426              		.loc 2 460 0
 2427 0036 FCEEE77A 		vcvt.u32.f32	s15, s15
 2428 003a 17EE903A 		vmov	r3, s15	@ int
 2429 003e 9DB2     		uxth	r5, r3
 2430              	.LVL287:
 2431              		.loc 2 464 0
 2432 0040 A7FB0534 		umull	r3, r4, r7, r5
 2433 0044 6408     		lsrs	r4, r4, #1
 2434              	.LVL288:
 2435              	.L122:
 2436 0046 FFF7FEFF 		bl	VL53L0X_get_dist_mm
 2437              	.LVL289:
 2438 004a A042     		cmp	r0, r4
 2439 004c 03D2     		bcs	.L120
 2440              		.loc 2 464 0 is_stmt 0 discriminator 1
 2441 004e FFF7FEFF 		bl	VL53L0X_get_dist_mm
 2442              	.LVL290:
 2443 0052 0028     		cmp	r0, #0
 2444 0054 60D1     		bne	.L137
 2445              	.L120:
 2446              		.loc 2 472 0 is_stmt 1
 2447 0056 FFF7FEFF 		bl	VL53L0X_get_dist_mm
 2448              	.LVL291:
 2449 005a B0F5617F 		cmp	r0, #900
 2450 005e F2D9     		bls	.L122
 2451              		.loc 2 474 0
ARM GAS  /var/folders/bw/wdbp2_bd0pn7gl5ybd33xbb80000gn/T//ccDB14pE.s 			page 44


 2452 0060 3220     		movs	r0, #50
 2453 0062 FFF7FEFF 		bl	chThdSleep
 2454              	.LVL292:
 2455              		.loc 2 475 0
 2456 0066 FFF7FEFF 		bl	VL53L0X_get_dist_mm
 2457              	.LVL293:
 2458 006a B0F5617F 		cmp	r0, #900
 2459 006e EAD9     		bls	.L122
 2460              		.loc 2 476 0
 2461 0070 3220     		movs	r0, #50
 2462 0072 FFF7FEFF 		bl	chThdSleep
 2463              	.LVL294:
 2464              		.loc 2 477 0
 2465 0076 FFF7FEFF 		bl	VL53L0X_get_dist_mm
 2466              	.LVL295:
 2467 007a B0F5617F 		cmp	r0, #900
 2468 007e E2D9     		bls	.L122
 2469              		.loc 2 458 0
 2470 0080 FCEEE97A 		vcvt.u32.f32	s15, s19
 2471 0084 CDED017A 		vstr.32	s15, [sp, #4]	@ int
 2472 0088 9DF80440 		ldrb	r4, [sp, #4]	@ zero_extendqisi2
 2473              	.LVL296:
 2474              	.L125:
 2475              		.loc 2 485 0
 2476 008c B0EE480A 		vmov.f32	s0, s16
 2477 0090 2046     		mov	r0, r4
 2478 0092 FFF7FEFF 		bl	direction_search
 2479              	.LVL297:
 2480              		.loc 2 483 0
 2481 0096 D0ED007A 		vldr.32	s15, [r0]
 2482 009a F5EE407A 		vcmp.f32	s15, #0
 2483 009e F1EE10FA 		vmrs	APSR_nzcv, FPSCR
 2484 00a2 F3D0     		beq	.L125
 2485              		.loc 2 490 0
 2486 00a4 D0ED037A 		vldr.32	s15, [r0, #12]
 2487              		.loc 2 488 0
 2488 00a8 90ED017A 		vldr.32	s14, [r0, #4]
 2489              		.loc 2 489 0
 2490 00ac D0ED028A 		vldr.32	s17, [r0, #8]
 2491              		.loc 2 490 0
 2492 00b0 F0EEE77A 		vabs.f32	s15, s15
 2493              		.loc 2 488 0
 2494 00b4 BCEEC77A 		vcvt.u32.f32	s14, s14
 2495              		.loc 2 490 0
 2496 00b8 FCEEE77A 		vcvt.u32.f32	s15, s15
 2497              		.loc 2 488 0
 2498 00bc 8DED017A 		vstr.32	s14, [sp, #4]	@ int
 2499              		.loc 2 490 0
 2500 00c0 17EE903A 		vmov	r3, s15	@ int
 2501              		.loc 2 495 0
 2502 00c4 9DF80410 		ldrb	r1, [sp, #4]	@ zero_extendqisi2
 2503 00c8 F0EE680A 		vmov.f32	s1, s17
 2504 00cc 2046     		mov	r0, r4
 2505              	.LVL298:
 2506 00ce B0EE480A 		vmov.f32	s0, s16
 2507              		.loc 2 490 0
 2508 00d2 9EB2     		uxth	r6, r3
ARM GAS  /var/folders/bw/wdbp2_bd0pn7gl5ybd33xbb80000gn/T//ccDB14pE.s 			page 45


 2509              	.LVL299:
 2510              		.loc 2 495 0
 2511 00d4 FFF7FEFF 		bl	find_gamma
 2512              	.LVL300:
 2513              		.loc 2 496 0
 2514 00d8 40F24C40 		movw	r0, #1100
 2515              		.loc 2 495 0
 2516 00dc B0EE409A 		vmov.f32	s18, s0
 2517              	.LVL301:
 2518              		.loc 2 496 0
 2519 00e0 FFF7FEFF 		bl	rotationAngle
 2520              	.LVL302:
 2521              		.loc 2 500 0
 2522 00e4 F0EEC90A 		vabs.f32	s1, s18
 2523 00e8 B0EEE80A 		vabs.f32	s0, s17
 2524 00ec 3146     		mov	r1, r6
 2525 00ee 2846     		mov	r0, r5
 2526 00f0 FFF7FEFF 		bl	calculate_target
 2527              	.LVL303:
 2528              		.loc 2 503 0
 2529 00f4 01B2     		sxth	r1, r0
 2530 00f6 40F24C40 		movw	r0, #1100
 2531              	.LVL304:
 2532 00fa FFF7FEFF 		bl	translationDistance
 2533              	.LVL305:
 2534              		.loc 2 508 0
 2535 00fe 41F28830 		movw	r0, #5000
 2536 0102 FFF7FEFF 		bl	chThdSleep
 2537              	.LVL306:
 2538              		.loc 2 510 0
 2539 0106 FFF7FEFF 		bl	get_goal_info
 2540              	.LVL307:
 2541 010a D0B1     		cbz	r0, .L138
 2542              	.L126:
 2543              		.loc 2 513 0
 2544 010c FFF7FEFF 		bl	set_goal_false
 2545              	.LVL308:
 2546              		.loc 2 519 0
 2547 0110 0A20     		movs	r0, #10
 2548 0112 FFF7FEFF 		bl	chThdSleep
 2549              	.LVL309:
 2550              		.loc 2 454 0
 2551 0116 84E7     		b	.L127
 2552              	.L137:
 2553              		.loc 2 465 0
 2554 0118 2146     		mov	r1, r4
 2555 011a 40F24C40 		movw	r0, #1100
 2556 011e FFF7FEFF 		bl	translationDistance
 2557              	.LVL310:
 2558              		.loc 2 500 0
 2559 0122 F0EEC90A 		vabs.f32	s1, s18
 2560 0126 B0EEE80A 		vabs.f32	s0, s17
 2561 012a 3146     		mov	r1, r6
 2562 012c 2846     		mov	r0, r5
 2563 012e FFF7FEFF 		bl	calculate_target
 2564              	.LVL311:
 2565              		.loc 2 508 0
ARM GAS  /var/folders/bw/wdbp2_bd0pn7gl5ybd33xbb80000gn/T//ccDB14pE.s 			page 46


 2566 0132 41F28830 		movw	r0, #5000
 2567 0136 FFF7FEFF 		bl	chThdSleep
 2568              	.LVL312:
 2569              		.loc 2 510 0
 2570 013a FFF7FEFF 		bl	get_goal_info
 2571              	.LVL313:
 2572 013e 0028     		cmp	r0, #0
 2573 0140 E4D1     		bne	.L126
 2574              	.L138:
 2575              		.loc 2 511 0
 2576 0142 FFF7FEFF 		bl	celebrate
 2577              	.LVL314:
 2578 0146 E1E7     		b	.L126
 2579              	.L140:
 2580              		.align	2
 2581              	.L139:
 2582 0148 00000000 		.word	ch
 2583 014c 00000000 		.word	__stack_chk_guard
 2584 0150 00000000 		.word	0
 2585 0154 00000000 		.word	.LANCHOR5
 2586 0158 ABAAAAAA 		.word	-1431655765
 2587              		.cfi_endproc
 2588              	.LFE264:
 2589              		.size	GetBall, .-GetBall
 2590              		.section	.text.getBall_start,"ax",%progbits
 2591              		.align	1
 2592              		.p2align 4,,15
 2593              		.global	getBall_start
 2594              		.syntax unified
 2595              		.thumb
 2596              		.thumb_func
 2597              		.fpu fpv4-sp-d16
 2598              		.type	getBall_start, %function
 2599              	getBall_start:
 2600              	.LFB265:
 2601              		.loc 2 523 0
 2602              		.cfi_startproc
 2603              		@ args = 0, pretend = 0, frame = 8
 2604              		@ frame_needed = 0, uses_anonymous_args = 0
 2605 0000 10B5     		push	{r4, lr}
 2606              		.cfi_def_cfa_offset 8
 2607              		.cfi_offset 4, -8
 2608              		.cfi_offset 14, -4
 2609 0002 0A4C     		ldr	r4, .L145
 2610              		.loc 2 524 0
 2611 0004 0A4B     		ldr	r3, .L145+4
 2612              		.loc 2 523 0
 2613 0006 2268     		ldr	r2, [r4]
 2614              		.loc 2 524 0
 2615 0008 0A48     		ldr	r0, .L145+8
 2616              		.loc 2 523 0
 2617 000a 84B0     		sub	sp, sp, #16
 2618              		.cfi_def_cfa_offset 24
 2619              		.loc 2 524 0
 2620 000c 4FF4AF61 		mov	r1, #1400
 2621              		.loc 2 523 0
 2622 0010 0392     		str	r2, [sp, #12]
ARM GAS  /var/folders/bw/wdbp2_bd0pn7gl5ybd33xbb80000gn/T//ccDB14pE.s 			page 47


 2623              		.loc 2 524 0
 2624 0012 0022     		movs	r2, #0
 2625 0014 0092     		str	r2, [sp]
 2626 0016 4022     		movs	r2, #64
 2627 0018 FFF7FEFF 		bl	chThdCreateStatic
 2628              	.LVL315:
 2629              		.loc 2 525 0
 2630 001c 039A     		ldr	r2, [sp, #12]
 2631 001e 2368     		ldr	r3, [r4]
 2632 0020 9A42     		cmp	r2, r3
 2633 0022 01D1     		bne	.L144
 2634 0024 04B0     		add	sp, sp, #16
 2635              		.cfi_remember_state
 2636              		.cfi_def_cfa_offset 8
 2637              		@ sp needed
 2638 0026 10BD     		pop	{r4, pc}
 2639              	.L144:
 2640              		.cfi_restore_state
 2641 0028 FFF7FEFF 		bl	__stack_chk_fail
 2642              	.LVL316:
 2643              	.L146:
 2644              		.align	2
 2645              	.L145:
 2646 002c 00000000 		.word	__stack_chk_guard
 2647 0030 00000000 		.word	GetBall
 2648 0034 00000000 		.word	.LANCHOR6
 2649              		.cfi_endproc
 2650              	.LFE265:
 2651              		.size	getBall_start, .-getBall_start
 2652              		.section	.bss.direction_data.13463,"aw",%nobits
 2653              		.align	2
 2654              		.set	.LANCHOR4,. + 0
 2655              		.type	direction_data.13463, %object
 2656              		.size	direction_data.13463, 16
 2657              	direction_data.13463:
 2658 0000 00000000 		.space	16
 2658      00000000 
 2658      00000000 
 2658      00000000 
 2659              		.section	.bss.search_data.13435,"aw",%nobits
 2660              		.align	2
 2661              		.set	.LANCHOR1,. + 0
 2662              		.type	search_data.13435, %object
 2663              		.size	search_data.13435, 16
 2664              	search_data.13435:
 2665 0000 00000000 		.space	16
 2665      00000000 
 2665      00000000 
 2665      00000000 
 2666              		.section	.bss.waGetBall,"aw",%nobits
 2667              		.align	3
 2668              		.set	.LANCHOR6,. + 0
 2669              		.type	waGetBall, %object
 2670              		.size	waGetBall, 1400
 2671              	waGetBall:
 2672 0000 00000000 		.space	1400
 2672      00000000 
ARM GAS  /var/folders/bw/wdbp2_bd0pn7gl5ybd33xbb80000gn/T//ccDB14pE.s 			page 48


 2672      00000000 
 2672      00000000 
 2672      00000000 
 2673              		.section	.data.alternate.13465,"aw",%progbits
 2674              		.set	.LANCHOR3,. + 0
 2675              		.type	alternate.13465, %object
 2676              		.size	alternate.13465, 1
 2677              	alternate.13465:
 2678 0000 01       		.byte	1
 2679              		.section	.data.first.13464,"aw",%progbits
 2680              		.set	.LANCHOR2,. + 0
 2681              		.type	first.13464, %object
 2682              		.size	first.13464, 1
 2683              	first.13464:
 2684 0000 01       		.byte	1
 2685              		.section	.rodata.__FUNCTION__.13487,"a",%progbits
 2686              		.align	2
 2687              		.set	.LANCHOR5,. + 0
 2688              		.type	__FUNCTION__.13487, %object
 2689              		.size	__FUNCTION__.13487, 8
 2690              	__FUNCTION__.13487:
 2691 0000 47657442 		.ascii	"GetBall\000"
 2691      616C6C00 
 2692              		.section	.rodata.__func__.7153,"a",%progbits
 2693              		.align	2
 2694              		.set	.LANCHOR0,. + 0
 2695              		.type	__func__.7153, %object
 2696              		.size	__func__.7153, 12
 2697              	__func__.7153:
 2698 0000 63685379 		.ascii	"chSysUnlock\000"
 2698      73556E6C 
 2698      6F636B00 
 2699              		.section	.rodata.chprintf.constprop.0.str1.4,"aMS",%progbits,1
 2700              		.align	2
 2701              	.LC0:
 2702 0000 6572726F 		.ascii	"error\012\000"
 2702      720A00
 2703              		.text
 2704              	.Letext0:
 2705              		.file 7 "/Applications/Eclipse_e-puck2.app/Contents/Eclipse_e-puck2/Tools/gcc-arm-none-eabi-7-2017
 2706              		.file 8 "/Applications/Eclipse_e-puck2.app/Contents/Eclipse_e-puck2/Tools/gcc-arm-none-eabi-7-2017
 2707              		.file 9 "/Applications/Eclipse_e-puck2.app/Contents/Eclipse_e-puck2/Tools/gcc-arm-none-eabi-7-2017
 2708              		.file 10 "../../lib/e-puck2_main-processor/ChibiOS//os/rt/ports/ARMCMx/compilers/GCC/chtypes.h"
 2709              		.file 11 "../../lib/e-puck2_main-processor/ChibiOS//os/rt/include/chsystypes.h"
 2710              		.file 12 "../../lib/e-puck2_main-processor/ChibiOS//os/rt/include/chschd.h"
 2711              		.file 13 "../../lib/e-puck2_main-processor/ChibiOS//os/ext/CMSIS/include/core_cm4.h"
 2712              		.file 14 "../../lib/e-puck2_main-processor/ChibiOS//os/ext/CMSIS/ST/system_stm32f4xx.h"
 2713              		.file 15 "../../lib/e-puck2_main-processor/ChibiOS//os/ext/CMSIS/ST/stm32f407xx.h"
 2714              		.file 16 "../../lib/e-puck2_main-processor/ChibiOS//os/rt/ports/ARMCMx/chcore.h"
 2715              		.file 17 "../../lib/e-puck2_main-processor/ChibiOS//os/rt/ports/ARMCMx/chcore_v7m.h"
 2716              		.file 18 "../../lib/e-puck2_main-processor/ChibiOS//os/rt/include/chdebug.h"
 2717              		.file 19 "../../lib/e-puck2_main-processor/ChibiOS//os/rt/include/chtm.h"
 2718              		.file 20 "../../lib/e-puck2_main-processor/ChibiOS//os/rt/include/chstats.h"
 2719              		.file 21 "../../lib/e-puck2_main-processor/ChibiOS//os/rt/include/chsem.h"
 2720              		.file 22 "../../lib/e-puck2_main-processor/ChibiOS//os/rt/include/chmtx.h"
 2721              		.file 23 "../../lib/e-puck2_main-processor/ChibiOS//os/rt/include/chevents.h"
 2722              		.file 24 "../../lib/e-puck2_main-processor/ChibiOS//os/rt/include/chqueues.h"
ARM GAS  /var/folders/bw/wdbp2_bd0pn7gl5ybd33xbb80000gn/T//ccDB14pE.s 			page 49


 2723              		.file 25 "../../lib/e-puck2_main-processor/ChibiOS//os/rt/include/chstreams.h"
 2724              		.file 26 "../../lib/e-puck2_main-processor/ChibiOS//os/hal/ports/STM32/STM32F4xx/stm32_dma.h"
 2725              		.file 27 "../../lib/e-puck2_main-processor/ChibiOS//os/hal/include/hal_ioblock.h"
 2726              		.file 28 "../../lib/e-puck2_main-processor/ChibiOS//os/hal/ports/STM32/LLD/GPIOv2/pal_lld.h"
 2727              		.file 29 "../../lib/e-puck2_main-processor/ChibiOS//os/hal/include/adc.h"
 2728              		.file 30 "../../lib/e-puck2_main-processor/ChibiOS//os/hal/ports/STM32/STM32F4xx/adc_lld.h"
 2729              		.file 31 "../../lib/e-puck2_main-processor/ChibiOS//os/hal/include/can.h"
 2730              		.file 32 "../../lib/e-puck2_main-processor/ChibiOS//os/hal/ports/STM32/LLD/can_lld.h"
 2731              		.file 33 "../../lib/e-puck2_main-processor/ChibiOS//os/hal/include/dac.h"
 2732              		.file 34 "../../lib/e-puck2_main-processor/ChibiOS//os/hal/ports/STM32/LLD/DACv1/dac_lld.h"
 2733              		.file 35 "../../lib/e-puck2_main-processor/ChibiOS//os/hal/include/ext.h"
 2734              		.file 36 "../../lib/e-puck2_main-processor/ChibiOS//os/hal/ports/STM32/LLD/ext_lld.h"
 2735              		.file 37 "../../lib/e-puck2_main-processor/ChibiOS//os/hal/include/gpt.h"
 2736              		.file 38 "../../lib/e-puck2_main-processor/ChibiOS//os/hal/ports/STM32/LLD/TIMv1/gpt_lld.h"
 2737              		.file 39 "../../lib/e-puck2_main-processor/ChibiOS//os/hal/ports/STM32/LLD/TIMv1/stm32_tim.h"
 2738              		.file 40 "../../lib/e-puck2_main-processor/ChibiOS//os/hal/include/i2c.h"
 2739              		.file 41 "../../lib/e-puck2_main-processor/ChibiOS//os/hal/ports/STM32/LLD/I2Cv1/i2c_lld.h"
 2740              		.file 42 "../../lib/e-puck2_main-processor/ChibiOS//os/hal/include/i2s.h"
 2741              		.file 43 "../../lib/e-puck2_main-processor/ChibiOS//os/hal/ports/STM32/LLD/SPIv1/i2s_lld.h"
 2742              		.file 44 "../../lib/e-puck2_main-processor/ChibiOS//os/hal/include/pwm.h"
 2743              		.file 45 "../../lib/e-puck2_main-processor/ChibiOS//os/hal/ports/STM32/LLD/TIMv1/pwm_lld.h"
 2744              		.file 46 "../../lib/e-puck2_main-processor/ChibiOS//os/hal/include/serial.h"
 2745              		.file 47 "../../lib/e-puck2_main-processor/ChibiOS//os/hal/ports/STM32/LLD/USARTv1/serial_lld.h"
 2746              		.file 48 "../../lib/e-puck2_main-processor/ChibiOS//os/hal/include/sdc.h"
 2747              		.file 49 "../../lib/e-puck2_main-processor/ChibiOS//os/hal/ports/STM32/LLD/sdc_lld.h"
 2748              		.file 50 "../../lib/e-puck2_main-processor/ChibiOS//os/hal/include/spi.h"
 2749              		.file 51 "../../lib/e-puck2_main-processor/ChibiOS//os/hal/ports/STM32/LLD/SPIv1/spi_lld.h"
 2750              		.file 52 "../../lib/e-puck2_main-processor/ChibiOS//os/hal/include/usb.h"
 2751              		.file 53 "../../lib/e-puck2_main-processor/ChibiOS//os/hal/ports/STM32/LLD/OTGv1/usb_lld.h"
 2752              		.file 54 "../../lib/e-puck2_main-processor/ChibiOS//os/hal/ports/STM32/LLD/OTGv1/stm32_otg.h"
 2753              		.file 55 "../../lib/e-puck2_main-processor/ChibiOS//os/hal/include/serial_usb.h"
 2754              		.file 56 "/Applications/Eclipse_e-puck2.app/Contents/Eclipse_e-puck2/Tools/gcc-arm-none-eabi-7-201
 2755              		.file 57 "/Applications/Eclipse_e-puck2.app/Contents/Eclipse_e-puck2/Tools/gcc-arm-none-eabi-7-201
 2756              		.file 58 "/Applications/Eclipse_e-puck2.app/Contents/Eclipse_e-puck2/Tools/gcc-arm-none-eabi-7-201
 2757              		.file 59 "/Applications/Eclipse_e-puck2.app/Contents/Eclipse_e-puck2/Tools/gcc-arm-none-eabi-7-201
 2758              		.file 60 "../../lib/e-puck2_main-processor/src/usbcfg.h"
 2759              		.file 61 "/Applications/Eclipse_e-puck2.app/Contents/Eclipse_e-puck2/Tools/gcc-arm-none-eabi-7-201
 2760              		.file 62 "<built-in>"
 2761              		.file 63 "../../lib/e-puck2_main-processor/ChibiOS_ext/os/hal/include/../ports/STM32/STM32F4xx/dcm
 2762              		.file 64 "/Applications/Eclipse_e-puck2.app/Contents/Eclipse_e-puck2/Tools/gcc-arm-none-eabi-7-201
 2763              		.file 65 "../../lib/e-puck2_main-processor/src/msgbus/messagebus.h"
 2764              		.file 66 "/Applications/Eclipse_e-puck2.app/Contents/Eclipse_e-puck2/Tools/gcc-arm-none-eabi-7-201
 2765              		.file 67 "../../lib/e-puck2_main-processor/src/parameter/parameter.h"
 2766              		.file 68 "./main.h"
 2767              		.file 69 "../../lib/e-puck2_main-processor/ChibiOS//os/rt/include/chthreads.h"
 2768              		.file 70 "./centering.h"
 2769              		.file 71 "../../lib/e-puck2_main-processor/src/sensors/VL53L0X/VL53L0X.h"
 2770              		.file 72 "./movements.h"
 2771              		.file 73 "./celebration.h"
 2772              		.file 74 "../../lib/e-puck2_main-processor/src/motors.h"
 2773              		.file 75 "../../lib/e-puck2_main-processor/src/leds.h"