ARM GAS  /var/folders/bw/wdbp2_bd0pn7gl5ybd33xbb80000gn/T//ccKW3IoE.s 			page 1


   1              		.cpu cortex-m4
   2              		.eabi_attribute 27, 1
   3              		.eabi_attribute 28, 1
   4              		.eabi_attribute 20, 1
   5              		.eabi_attribute 21, 1
   6              		.eabi_attribute 23, 3
   7              		.eabi_attribute 24, 1
   8              		.eabi_attribute 25, 1
   9              		.eabi_attribute 26, 1
  10              		.eabi_attribute 30, 2
  11              		.eabi_attribute 34, 1
  12              		.eabi_attribute 18, 4
  13              		.file	"movements.c"
  14              		.text
  15              	.Ltext0:
  16              		.cfi_sections	.debug_frame
  17              		.global	__aeabi_i2d
  18              		.global	__aeabi_dmul
  19              		.global	__aeabi_f2d
  20              		.global	__aeabi_ddiv
  21              		.global	__aeabi_d2uiz
  22              		.section	.text.translationDistance,"ax",%progbits
  23              		.align	1
  24              		.p2align 4,,15
  25              		.global	translationDistance
  26              		.syntax unified
  27              		.thumb
  28              		.thumb_func
  29              		.fpu fpv4-sp-d16
  30              		.type	translationDistance, %function
  31              	translationDistance:
  32              	.LFB256:
  33              		.file 1 "movements.c"
  34              		.loc 1 17 0
  35              		.cfi_startproc
  36              		@ args = 0, pretend = 0, frame = 16
  37              		@ frame_needed = 0, uses_anonymous_args = 0
  38              	.LVL0:
  39 0000 2DE9F04F 		push	{r4, r5, r6, r7, r8, r9, r10, fp, lr}
  40              		.cfi_def_cfa_offset 36
  41              		.cfi_offset 4, -36
  42              		.cfi_offset 5, -32
  43              		.cfi_offset 6, -28
  44              		.cfi_offset 7, -24
  45              		.cfi_offset 8, -20
  46              		.cfi_offset 9, -16
  47              		.cfi_offset 10, -12
  48              		.cfi_offset 11, -8
  49              		.cfi_offset 14, -4
  50 0004 4F4B     		ldr	r3, .L20
  51 0006 85B0     		sub	sp, sp, #20
  52              		.cfi_def_cfa_offset 56
  53              		.loc 1 17 0
  54 0008 1B68     		ldr	r3, [r3]
  55 000a 0393     		str	r3, [sp, #12]
  56              	.LVL1:
  57 000c 0746     		mov	r7, r0
ARM GAS  /var/folders/bw/wdbp2_bd0pn7gl5ybd33xbb80000gn/T//ccKW3IoE.s 			page 2


  58              	.LVL2:
  59              		.loc 1 24 0
  60 000e 0846     		mov	r0, r1
  61              	.LVL3:
  62              		.loc 1 17 0
  63 0010 0E46     		mov	r6, r1
  64              		.loc 1 24 0
  65 0012 FFF7FEFF 		bl	__aeabi_i2d
  66              	.LVL4:
  67 0016 21F00043 		bic	r3, r1, #-2147483648
  68 001a 0022     		movs	r2, #0
  69 001c 1946     		mov	r1, r3
  70 001e 4A4B     		ldr	r3, .L20+4
  71 0020 FFF7FEFF 		bl	__aeabi_dmul
  72              	.LVL5:
  73              		.loc 1 22 0
  74 0024 494B     		ldr	r3, .L20+8
  75              		.loc 1 24 0
  76 0026 0446     		mov	r4, r0
  77              		.loc 1 22 0
  78 0028 9A20     		movs	r0, #154
  79 002a 00FB07F0 		mul	r0, r0, r7
  80 002e A3FB0030 		umull	r3, r0, r3, r0
  81 0032 C009     		lsrs	r0, r0, #7
  82              		.loc 1 24 0
  83 0034 07EE900A 		vmov	s15, r0	@ int
  84 0038 F8EEE77A 		vcvt.f32.s32	s15, s15
  85 003c 0D46     		mov	r5, r1
  86 003e 17EE900A 		vmov	r0, s15
  87 0042 FFF7FEFF 		bl	__aeabi_f2d
  88              	.LVL6:
  89 0046 0246     		mov	r2, r0
  90 0048 0B46     		mov	r3, r1
  91 004a 2046     		mov	r0, r4
  92 004c 2946     		mov	r1, r5
  93 004e FFF7FEFF 		bl	__aeabi_ddiv
  94              	.LVL7:
  95 0052 FFF7FEFF 		bl	__aeabi_d2uiz
  96              	.LVL8:
  97              	.LBB85:
  98              	.LBB86:
  99              	.LBB87:
 100              	.LBB88:
 101              	.LBB89:
 102              	.LBB90:
 103              	.LBB91:
 104              		.file 2 "../../lib/e-puck2_main-processor/ChibiOS//os/ext/CMSIS/include/core_cmFunc.h"
 105              		.loc 2 546 0
 106 0056 2023     		movs	r3, #32
 107              	.LBE91:
 108              	.LBE90:
 109              	.LBE89:
 110              	.LBE88:
 111              	.LBE87:
 112              	.LBE86:
 113              	.LBE85:
 114              		.loc 1 24 0
ARM GAS  /var/folders/bw/wdbp2_bd0pn7gl5ybd33xbb80000gn/T//ccKW3IoE.s 			page 3


 115 0058 8046     		mov	r8, r0
 116              	.LVL9:
 117              	.LBB112:
 118              	.LBB110:
 119              	.LBB97:
 120              	.LBB95:
 121              	.LBB94:
 122              	.LBB93:
 123              	.LBB92:
 124              		.loc 2 546 0
 125              		.syntax unified
 126              	@ 546 "../../lib/e-puck2_main-processor/ChibiOS//os/ext/CMSIS/include/core_cmFunc.h" 1
 127 005a 83F31188 		MSR basepri, r3
 128              	@ 0 "" 2
 129              	.LVL10:
 130              		.thumb
 131              		.syntax unified
 132              	.LBE92:
 133              	.LBE93:
 134              	.LBE94:
 135              	.LBE95:
 136              	.LBE97:
 137              	.LBB98:
 138              	.LBB99:
 139              		.file 3 "../../lib/e-puck2_main-processor/ChibiOS//os/rt/include/chvt.h"
 140              		.loc 3 231 0
 141 005e 3C4C     		ldr	r4, .L20+12
 142              	.LBE99:
 143              	.LBE98:
 144              	.LBB101:
 145              	.LBB96:
 146              		.file 4 "../../lib/e-puck2_main-processor/ChibiOS//os/rt/include/chsys.h"
 147              		.loc 4 349 0
 148 0060 FFF7FEFF 		bl	_stats_start_measure_crit_thd
 149              	.LVL11:
 150              		.loc 4 350 0
 151 0064 FFF7FEFF 		bl	_dbg_check_lock
 152              	.LVL12:
 153              	.LBE96:
 154              	.LBE101:
 155              	.LBB102:
 156              	.LBB100:
 157              		.loc 3 231 0
 158 0068 D4F82890 		ldr	r9, [r4, #40]
 159              	.LBE100:
 160              	.LBE102:
 161              	.LBB103:
 162              	.LBB104:
 163              		.loc 4 360 0
 164 006c FFF7FEFF 		bl	_dbg_check_unlock
 165              	.LVL13:
 166              		.loc 4 361 0
 167 0070 FFF7FEFF 		bl	_stats_stop_measure_crit_thd
 168              	.LVL14:
 169              		.loc 4 367 0
 170 0074 2368     		ldr	r3, [r4]
 171 0076 A342     		cmp	r3, r4
ARM GAS  /var/folders/bw/wdbp2_bd0pn7gl5ybd33xbb80000gn/T//ccKW3IoE.s 			page 4


 172 0078 04D0     		beq	.L2
 173 007a A269     		ldr	r2, [r4, #24]
 174 007c 9B68     		ldr	r3, [r3, #8]
 175 007e 9268     		ldr	r2, [r2, #8]
 176 0080 9A42     		cmp	r2, r3
 177 0082 59D3     		bcc	.L17
 178              	.L2:
 179              	.LVL15:
 180              	.LBB105:
 181              	.LBB106:
 182              	.LBB107:
 183              		.loc 2 546 0
 184 0084 0023     		movs	r3, #0
 185              		.syntax unified
 186              	@ 546 "../../lib/e-puck2_main-processor/ChibiOS//os/ext/CMSIS/include/core_cmFunc.h" 1
 187 0086 83F31188 		MSR basepri, r3
 188              	@ 0 "" 2
 189              	.LVL16:
 190              		.thumb
 191              		.syntax unified
 192              	.LBE107:
 193              	.LBE106:
 194              	.LBE105:
 195              	.LBE104:
 196              	.LBE103:
 197              	.LBE110:
 198              	.LBE112:
 199              		.loc 1 28 0
 200 008a B8F1000F 		cmp	r8, #0
 201 008e 3BD0     		beq	.L3
 202              		.loc 1 30 0
 203 0090 DFF8C4B0 		ldr	fp, .L20+20
 204              	.LBB113:
 205              	.LBB114:
 206              	.LBB115:
 207              	.LBB116:
 208              	.LBB117:
 209              	.LBB118:
 210              	.LBB119:
 211              		.loc 2 546 0
 212 0094 4FF0200A 		mov	r10, #32
 213 0098 08E0     		b	.L8
 214              	.LVL17:
 215              	.L5:
 216              	.LBE119:
 217              	.LBE118:
 218              	.LBE117:
 219              	.LBE116:
 220              	.LBE115:
 221              	.LBE114:
 222              	.LBE113:
 223              		.loc 1 36 0
 224 009a 43D1     		bne	.L18
 225              		.loc 1 41 0
 226 009c 3046     		mov	r0, r6
 227 009e FFF7FEFF 		bl	left_motor_set_speed
 228              	.LVL18:
ARM GAS  /var/folders/bw/wdbp2_bd0pn7gl5ybd33xbb80000gn/T//ccKW3IoE.s 			page 5


 229              		.loc 1 42 0
 230 00a2 3046     		mov	r0, r6
 231 00a4 FFF7FEFF 		bl	right_motor_set_speed
 232              	.LVL19:
 233              	.L6:
 234              		.loc 1 28 0
 235 00a8 A845     		cmp	r8, r5
 236 00aa 2DD9     		bls	.L3
 237              	.LVL20:
 238              	.L8:
 239              	.LBB133:
 240              	.LBB132:
 241              	.LBB124:
 242              	.LBB123:
 243              	.LBB122:
 244              	.LBB121:
 245              	.LBB120:
 246              		.loc 2 546 0
 247              		.syntax unified
 248              	@ 546 "../../lib/e-puck2_main-processor/ChibiOS//os/ext/CMSIS/include/core_cmFunc.h" 1
 249 00ac 8AF31188 		MSR basepri, r10
 250              	@ 0 "" 2
 251              	.LVL21:
 252              		.thumb
 253              		.syntax unified
 254              	.LBE120:
 255              	.LBE121:
 256              	.LBE122:
 257              		.loc 4 349 0
 258 00b0 FFF7FEFF 		bl	_stats_start_measure_crit_thd
 259              	.LVL22:
 260              		.loc 4 350 0
 261 00b4 FFF7FEFF 		bl	_dbg_check_lock
 262              	.LVL23:
 263              	.LBE123:
 264              	.LBE124:
 265              	.LBB125:
 266              	.LBB126:
 267              		.loc 3 231 0
 268 00b8 A56A     		ldr	r5, [r4, #40]
 269              	.LBE126:
 270              	.LBE125:
 271              	.LBB127:
 272              	.LBB128:
 273              		.loc 4 360 0
 274 00ba FFF7FEFF 		bl	_dbg_check_unlock
 275              	.LVL24:
 276              		.loc 4 361 0
 277 00be FFF7FEFF 		bl	_stats_stop_measure_crit_thd
 278              	.LVL25:
 279              		.loc 4 367 0
 280 00c2 2368     		ldr	r3, [r4]
 281 00c4 A342     		cmp	r3, r4
 282 00c6 07D0     		beq	.L4
 283 00c8 A269     		ldr	r2, [r4, #24]
 284 00ca 9B68     		ldr	r3, [r3, #8]
 285 00cc 9268     		ldr	r2, [r2, #8]
ARM GAS  /var/folders/bw/wdbp2_bd0pn7gl5ybd33xbb80000gn/T//ccKW3IoE.s 			page 6


 286 00ce 9A42     		cmp	r2, r3
 287 00d0 02D2     		bcs	.L4
 288 00d2 2048     		ldr	r0, .L20+16
 289 00d4 FFF7FEFF 		bl	chSysHalt
 290              	.LVL26:
 291              	.L4:
 292              	.LBB129:
 293              	.LBB130:
 294              	.LBB131:
 295              		.loc 2 546 0
 296 00d8 0023     		movs	r3, #0
 297              		.syntax unified
 298              	@ 546 "../../lib/e-puck2_main-processor/ChibiOS//os/ext/CMSIS/include/core_cmFunc.h" 1
 299 00da 83F31188 		MSR basepri, r3
 300              	@ 0 "" 2
 301              	.LVL27:
 302              		.thumb
 303              		.syntax unified
 304              	.LBE131:
 305              	.LBE130:
 306              	.LBE129:
 307              	.LBE128:
 308              	.LBE127:
 309              	.LBE132:
 310              	.LBE133:
 311              		.loc 1 30 0
 312 00de 4FF47A73 		mov	r3, #1000
 313 00e2 A5EB0905 		sub	r5, r5, r9
 314 00e6 05FB0335 		mla	r5, r5, r3, r3
 315 00ea 013D     		subs	r5, r5, #1
 316 00ec ABFB0535 		umull	r3, r5, fp, r5
 317              		.loc 1 32 0
 318 00f0 002E     		cmp	r6, #0
 319              		.loc 1 30 0
 320 00f2 4FEA9515 		lsr	r5, r5, #6
 321              	.LVL28:
 322              		.loc 1 32 0
 323 00f6 D0DD     		ble	.L5
 324              		.loc 1 33 0
 325 00f8 3846     		mov	r0, r7
 326 00fa FFF7FEFF 		bl	left_motor_set_speed
 327              	.LVL29:
 328              		.loc 1 34 0
 329 00fe 3846     		mov	r0, r7
 330 0100 FFF7FEFF 		bl	right_motor_set_speed
 331              	.LVL30:
 332              		.loc 1 28 0
 333 0104 A845     		cmp	r8, r5
 334 0106 D1D8     		bhi	.L8
 335              	.LVL31:
 336              	.L3:
 337              		.loc 1 45 0
 338 0108 0020     		movs	r0, #0
 339 010a FFF7FEFF 		bl	left_motor_set_speed
 340              	.LVL32:
 341              		.loc 1 46 0
 342 010e 0D4B     		ldr	r3, .L20
ARM GAS  /var/folders/bw/wdbp2_bd0pn7gl5ybd33xbb80000gn/T//ccKW3IoE.s 			page 7


 343 0110 039A     		ldr	r2, [sp, #12]
 344 0112 1B68     		ldr	r3, [r3]
 345 0114 9A42     		cmp	r2, r3
 346 0116 13D1     		bne	.L19
 347 0118 0020     		movs	r0, #0
 348              		.loc 1 47 0
 349 011a 05B0     		add	sp, sp, #20
 350              		.cfi_remember_state
 351              		.cfi_def_cfa_offset 36
 352              		@ sp needed
 353 011c BDE8F04F 		pop	{r4, r5, r6, r7, r8, r9, r10, fp, lr}
 354              		.cfi_restore 14
 355              		.cfi_restore 11
 356              		.cfi_restore 10
 357              		.cfi_restore 9
 358              		.cfi_restore 8
 359              		.cfi_restore 7
 360              		.cfi_restore 6
 361              		.cfi_restore 5
 362              		.cfi_restore 4
 363              		.cfi_def_cfa_offset 0
 364              	.LVL33:
 365              		.loc 1 46 0
 366 0120 FFF7FEBF 		b	right_motor_set_speed
 367              	.LVL34:
 368              	.L18:
 369              		.cfi_restore_state
 370              		.loc 1 37 0
 371 0124 7B42     		negs	r3, r7
 372 0126 1846     		mov	r0, r3
 373 0128 0193     		str	r3, [sp, #4]
 374 012a FFF7FEFF 		bl	left_motor_set_speed
 375              	.LVL35:
 376              		.loc 1 38 0
 377 012e 019B     		ldr	r3, [sp, #4]
 378 0130 1846     		mov	r0, r3
 379 0132 FFF7FEFF 		bl	right_motor_set_speed
 380              	.LVL36:
 381 0136 B7E7     		b	.L6
 382              	.LVL37:
 383              	.L17:
 384              	.LBB134:
 385              	.LBB111:
 386              	.LBB109:
 387              	.LBB108:
 388              		.loc 4 367 0
 389 0138 0648     		ldr	r0, .L20+16
 390 013a FFF7FEFF 		bl	chSysHalt
 391              	.LVL38:
 392 013e A1E7     		b	.L2
 393              	.LVL39:
 394              	.L19:
 395              	.LBE108:
 396              	.LBE109:
 397              	.LBE111:
 398              	.LBE134:
 399              		.loc 1 46 0
ARM GAS  /var/folders/bw/wdbp2_bd0pn7gl5ybd33xbb80000gn/T//ccKW3IoE.s 			page 8


 400 0140 FFF7FEFF 		bl	__stack_chk_fail
 401              	.LVL40:
 402              	.L21:
 403              		.align	2
 404              	.L20:
 405 0144 00000000 		.word	__stack_chk_guard
 406 0148 00408F40 		.word	1083129856
 407 014c B5814E1B 		.word	458129845
 408 0150 00000000 		.word	ch
 409 0154 00000000 		.word	.LANCHOR0
 410 0158 D34D6210 		.word	274877907
 411              		.cfi_endproc
 412              	.LFE256:
 413              		.size	translationDistance, .-translationDistance
 414              		.section	.text.rotationAngle,"ax",%progbits
 415              		.align	1
 416              		.p2align 4,,15
 417              		.global	rotationAngle
 418              		.syntax unified
 419              		.thumb
 420              		.thumb_func
 421              		.fpu fpv4-sp-d16
 422              		.type	rotationAngle, %function
 423              	rotationAngle:
 424              	.LFB257:
 425              		.loc 1 50 0
 426              		.cfi_startproc
 427              		@ args = 0, pretend = 0, frame = 8
 428              		@ frame_needed = 0, uses_anonymous_args = 0
 429              	.LVL41:
 430 0000 2DE9F04F 		push	{r4, r5, r6, r7, r8, r9, r10, fp, lr}
 431              		.cfi_def_cfa_offset 36
 432              		.cfi_offset 4, -36
 433              		.cfi_offset 5, -32
 434              		.cfi_offset 6, -28
 435              		.cfi_offset 7, -24
 436              		.cfi_offset 8, -20
 437              		.cfi_offset 9, -16
 438              		.cfi_offset 10, -12
 439              		.cfi_offset 11, -8
 440              		.cfi_offset 14, -4
 441 0004 2DED028B 		vpush.64	{d8}
 442              		.cfi_def_cfa_offset 44
 443              		.cfi_offset 80, -44
 444              		.cfi_offset 81, -40
 445 0008 554B     		ldr	r3, .L46
 446              		.loc 1 57 0
 447 000a F0EEC07A 		vabs.f32	s15, s0
 448              		.loc 1 50 0
 449 000e 83B0     		sub	sp, sp, #12
 450              		.cfi_def_cfa_offset 56
 451              		.loc 1 50 0
 452 0010 1B68     		ldr	r3, [r3]
 453 0012 0193     		str	r3, [sp, #4]
 454              	.LVL42:
 455 0014 0646     		mov	r6, r0
 456              	.LVL43:
ARM GAS  /var/folders/bw/wdbp2_bd0pn7gl5ybd33xbb80000gn/T//ccKW3IoE.s 			page 9


 457              		.loc 1 57 0
 458 0016 17EE900A 		vmov	r0, s15
 459              	.LVL44:
 460              		.loc 1 50 0
 461 001a B0EE408A 		vmov.f32	s16, s0
 462              		.loc 1 57 0
 463 001e FFF7FEFF 		bl	__aeabi_f2d
 464              	.LVL45:
 465 0022 0022     		movs	r2, #0
 466 0024 4F4B     		ldr	r3, .L46+4
 467 0026 FFF7FEFF 		bl	__aeabi_dmul
 468              	.LVL46:
 469              		.loc 1 55 0
 470 002a 4F4B     		ldr	r3, .L46+8
 471 002c 4F4A     		ldr	r2, .L46+12
 472              		.loc 1 57 0
 473 002e 0446     		mov	r4, r0
 474              		.loc 1 55 0
 475 0030 4FF4B470 		mov	r0, #360
 476 0034 00FB06F0 		mul	r0, r0, r6
 477              	.LVL47:
 478 0038 A3FB0030 		umull	r3, r0, r3, r0
 479              	.LVL48:
 480 003c 8309     		lsrs	r3, r0, #6
 481 003e 9A20     		movs	r0, #154
 482 0040 00FB03F0 		mul	r0, r0, r3
 483 0044 A2FB0030 		umull	r3, r0, r2, r0
 484 0048 C009     		lsrs	r0, r0, #7
 485              		.loc 1 57 0
 486 004a 07EE900A 		vmov	s15, r0	@ int
 487 004e F8EEE77A 		vcvt.f32.s32	s15, s15
 488 0052 0D46     		mov	r5, r1
 489 0054 17EE900A 		vmov	r0, s15
 490 0058 FFF7FEFF 		bl	__aeabi_f2d
 491              	.LVL49:
 492 005c 0246     		mov	r2, r0
 493 005e 0B46     		mov	r3, r1
 494 0060 2046     		mov	r0, r4
 495 0062 2946     		mov	r1, r5
 496 0064 FFF7FEFF 		bl	__aeabi_ddiv
 497              	.LVL50:
 498 0068 FFF7FEFF 		bl	__aeabi_d2uiz
 499              	.LVL51:
 500              	.LBB163:
 501              	.LBB164:
 502              	.LBB165:
 503              	.LBB166:
 504              	.LBB167:
 505              	.LBB168:
 506              	.LBB169:
 507              		.loc 2 546 0
 508 006c 2023     		movs	r3, #32
 509              	.LBE169:
 510              	.LBE168:
 511              	.LBE167:
 512              	.LBE166:
 513              	.LBE165:
ARM GAS  /var/folders/bw/wdbp2_bd0pn7gl5ybd33xbb80000gn/T//ccKW3IoE.s 			page 10


 514              	.LBE164:
 515              	.LBE163:
 516              		.loc 1 57 0
 517 006e 0746     		mov	r7, r0
 518              	.LVL52:
 519              	.LBB190:
 520              	.LBB188:
 521              	.LBB175:
 522              	.LBB173:
 523              	.LBB172:
 524              	.LBB171:
 525              	.LBB170:
 526              		.loc 2 546 0
 527              		.syntax unified
 528              	@ 546 "../../lib/e-puck2_main-processor/ChibiOS//os/ext/CMSIS/include/core_cmFunc.h" 1
 529 0070 83F31188 		MSR basepri, r3
 530              	@ 0 "" 2
 531              	.LVL53:
 532              		.thumb
 533              		.syntax unified
 534              	.LBE170:
 535              	.LBE171:
 536              	.LBE172:
 537              	.LBE173:
 538              	.LBE175:
 539              	.LBB176:
 540              	.LBB177:
 541              		.loc 3 231 0
 542 0074 3E4C     		ldr	r4, .L46+16
 543              	.LBE177:
 544              	.LBE176:
 545              	.LBB179:
 546              	.LBB174:
 547              		.loc 4 349 0
 548 0076 FFF7FEFF 		bl	_stats_start_measure_crit_thd
 549              	.LVL54:
 550              		.loc 4 350 0
 551 007a FFF7FEFF 		bl	_dbg_check_lock
 552              	.LVL55:
 553              	.LBE174:
 554              	.LBE179:
 555              	.LBB180:
 556              	.LBB178:
 557              		.loc 3 231 0
 558 007e D4F82880 		ldr	r8, [r4, #40]
 559              	.LBE178:
 560              	.LBE180:
 561              	.LBB181:
 562              	.LBB182:
 563              		.loc 4 360 0
 564 0082 FFF7FEFF 		bl	_dbg_check_unlock
 565              	.LVL56:
 566              		.loc 4 361 0
 567 0086 FFF7FEFF 		bl	_stats_stop_measure_crit_thd
 568              	.LVL57:
 569              		.loc 4 367 0
 570 008a 2368     		ldr	r3, [r4]
ARM GAS  /var/folders/bw/wdbp2_bd0pn7gl5ybd33xbb80000gn/T//ccKW3IoE.s 			page 11


 571 008c A342     		cmp	r3, r4
 572 008e 04D0     		beq	.L23
 573 0090 A269     		ldr	r2, [r4, #24]
 574 0092 9B68     		ldr	r3, [r3, #8]
 575 0094 9268     		ldr	r2, [r2, #8]
 576 0096 9A42     		cmp	r2, r3
 577 0098 5BD3     		bcc	.L43
 578              	.L23:
 579              	.LVL58:
 580              	.LBB183:
 581              	.LBB184:
 582              	.LBB185:
 583              		.loc 2 546 0
 584 009a 0023     		movs	r3, #0
 585              		.syntax unified
 586              	@ 546 "../../lib/e-puck2_main-processor/ChibiOS//os/ext/CMSIS/include/core_cmFunc.h" 1
 587 009c 83F31188 		MSR basepri, r3
 588              	@ 0 "" 2
 589              	.LVL59:
 590              		.thumb
 591              		.syntax unified
 592              	.LBE185:
 593              	.LBE184:
 594              	.LBE183:
 595              	.LBE182:
 596              	.LBE181:
 597              	.LBE188:
 598              	.LBE190:
 599              		.loc 1 61 0
 600 00a0 002F     		cmp	r7, #0
 601 00a2 3FD0     		beq	.L24
 602              		.loc 1 63 0
 603 00a4 DFF8D0A0 		ldr	r10, .L46+24
 604              	.LBB191:
 605              	.LBB192:
 606              	.LBB193:
 607              	.LBB194:
 608              	.LBB195:
 609              	.LBB196:
 610              	.LBB197:
 611              		.loc 2 546 0
 612 00a8 4FF02009 		mov	r9, #32
 613 00ac 08E0     		b	.L31
 614              	.LVL60:
 615              	.L40:
 616              	.LBE197:
 617              	.LBE196:
 618              	.LBE195:
 619              	.LBE194:
 620              	.LBE193:
 621              	.LBE192:
 622              	.LBE191:
 623              		.loc 1 69 0
 624 00ae 49D4     		bmi	.L44
 625              		.loc 1 74 0
 626 00b0 5846     		mov	r0, fp
 627 00b2 FFF7FEFF 		bl	left_motor_set_speed
ARM GAS  /var/folders/bw/wdbp2_bd0pn7gl5ybd33xbb80000gn/T//ccKW3IoE.s 			page 12


 628              	.LVL61:
 629              		.loc 1 75 0
 630 00b6 5846     		mov	r0, fp
 631 00b8 FFF7FEFF 		bl	right_motor_set_speed
 632              	.LVL62:
 633              	.L28:
 634              		.loc 1 61 0
 635 00bc AF42     		cmp	r7, r5
 636 00be 31D9     		bls	.L24
 637              	.LVL63:
 638              	.L31:
 639              	.LBB211:
 640              	.LBB210:
 641              	.LBB202:
 642              	.LBB201:
 643              	.LBB200:
 644              	.LBB199:
 645              	.LBB198:
 646              		.loc 2 546 0
 647              		.syntax unified
 648              	@ 546 "../../lib/e-puck2_main-processor/ChibiOS//os/ext/CMSIS/include/core_cmFunc.h" 1
 649 00c0 89F31188 		MSR basepri, r9
 650              	@ 0 "" 2
 651              	.LVL64:
 652              		.thumb
 653              		.syntax unified
 654              	.LBE198:
 655              	.LBE199:
 656              	.LBE200:
 657              		.loc 4 349 0
 658 00c4 FFF7FEFF 		bl	_stats_start_measure_crit_thd
 659              	.LVL65:
 660              		.loc 4 350 0
 661 00c8 FFF7FEFF 		bl	_dbg_check_lock
 662              	.LVL66:
 663              	.LBE201:
 664              	.LBE202:
 665              	.LBB203:
 666              	.LBB204:
 667              		.loc 3 231 0
 668 00cc A56A     		ldr	r5, [r4, #40]
 669              	.LBE204:
 670              	.LBE203:
 671              	.LBB205:
 672              	.LBB206:
 673              		.loc 4 360 0
 674 00ce FFF7FEFF 		bl	_dbg_check_unlock
 675              	.LVL67:
 676              		.loc 4 361 0
 677 00d2 FFF7FEFF 		bl	_stats_stop_measure_crit_thd
 678              	.LVL68:
 679              		.loc 4 367 0
 680 00d6 2368     		ldr	r3, [r4]
 681 00d8 A342     		cmp	r3, r4
 682 00da 07D0     		beq	.L25
 683 00dc A269     		ldr	r2, [r4, #24]
 684 00de 9B68     		ldr	r3, [r3, #8]
ARM GAS  /var/folders/bw/wdbp2_bd0pn7gl5ybd33xbb80000gn/T//ccKW3IoE.s 			page 13


 685 00e0 9268     		ldr	r2, [r2, #8]
 686 00e2 9A42     		cmp	r2, r3
 687 00e4 02D2     		bcs	.L25
 688 00e6 2348     		ldr	r0, .L46+20
 689 00e8 FFF7FEFF 		bl	chSysHalt
 690              	.LVL69:
 691              	.L25:
 692              	.LBB207:
 693              	.LBB208:
 694              	.LBB209:
 695              		.loc 2 546 0
 696 00ec 4FF0000B 		mov	fp, #0
 697              		.syntax unified
 698              	@ 546 "../../lib/e-puck2_main-processor/ChibiOS//os/ext/CMSIS/include/core_cmFunc.h" 1
 699 00f0 8BF31188 		MSR basepri, fp
 700              	@ 0 "" 2
 701              	.LVL70:
 702              		.thumb
 703              		.syntax unified
 704              	.LBE209:
 705              	.LBE208:
 706              	.LBE207:
 707              	.LBE206:
 708              	.LBE205:
 709              	.LBE210:
 710              	.LBE211:
 711              		.loc 1 63 0
 712 00f4 4FF47A73 		mov	r3, #1000
 713 00f8 A5EB0805 		sub	r5, r5, r8
 714 00fc 05FB0335 		mla	r5, r5, r3, r3
 715 0100 013D     		subs	r5, r5, #1
 716              		.loc 1 65 0
 717 0102 B5EEC08A 		vcmpe.f32	s16, #0
 718              		.loc 1 63 0
 719 0106 AAFB0535 		umull	r3, r5, r10, r5
 720              		.loc 1 65 0
 721 010a F1EE10FA 		vmrs	APSR_nzcv, FPSCR
 722              		.loc 1 63 0
 723 010e 4FEA9515 		lsr	r5, r5, #6
 724              	.LVL71:
 725              		.loc 1 65 0
 726 0112 CCDD     		ble	.L40
 727              		.loc 1 66 0
 728 0114 3046     		mov	r0, r6
 729 0116 FFF7FEFF 		bl	left_motor_set_speed
 730              	.LVL72:
 731              		.loc 1 67 0
 732 011a 7042     		negs	r0, r6
 733 011c FFF7FEFF 		bl	right_motor_set_speed
 734              	.LVL73:
 735              		.loc 1 61 0
 736 0120 AF42     		cmp	r7, r5
 737 0122 CDD8     		bhi	.L31
 738              	.LVL74:
 739              	.L24:
 740              		.loc 1 78 0
 741 0124 0020     		movs	r0, #0
ARM GAS  /var/folders/bw/wdbp2_bd0pn7gl5ybd33xbb80000gn/T//ccKW3IoE.s 			page 14


 742 0126 FFF7FEFF 		bl	left_motor_set_speed
 743              	.LVL75:
 744              		.loc 1 79 0
 745 012a 0D4B     		ldr	r3, .L46
 746 012c 019A     		ldr	r2, [sp, #4]
 747 012e 1B68     		ldr	r3, [r3]
 748 0130 9A42     		cmp	r2, r3
 749 0132 12D1     		bne	.L45
 750 0134 0020     		movs	r0, #0
 751              		.loc 1 80 0
 752 0136 03B0     		add	sp, sp, #12
 753              		.cfi_remember_state
 754              		.cfi_def_cfa_offset 44
 755              		@ sp needed
 756 0138 BDEC028B 		vldm	sp!, {d8}
 757              		.cfi_restore 80
 758              		.cfi_restore 81
 759              		.cfi_def_cfa_offset 36
 760              	.LVL76:
 761 013c BDE8F04F 		pop	{r4, r5, r6, r7, r8, r9, r10, fp, lr}
 762              		.cfi_restore 14
 763              		.cfi_restore 11
 764              		.cfi_restore 10
 765              		.cfi_restore 9
 766              		.cfi_restore 8
 767              		.cfi_restore 7
 768              		.cfi_restore 6
 769              		.cfi_restore 5
 770              		.cfi_restore 4
 771              		.cfi_def_cfa_offset 0
 772              	.LVL77:
 773              		.loc 1 79 0
 774 0140 FFF7FEBF 		b	right_motor_set_speed
 775              	.LVL78:
 776              	.L44:
 777              		.cfi_restore_state
 778              		.loc 1 70 0
 779 0144 7042     		negs	r0, r6
 780 0146 FFF7FEFF 		bl	left_motor_set_speed
 781              	.LVL79:
 782              		.loc 1 71 0
 783 014a 3046     		mov	r0, r6
 784 014c FFF7FEFF 		bl	right_motor_set_speed
 785              	.LVL80:
 786 0150 B4E7     		b	.L28
 787              	.LVL81:
 788              	.L43:
 789              	.LBB212:
 790              	.LBB189:
 791              	.LBB187:
 792              	.LBB186:
 793              		.loc 4 367 0
 794 0152 0848     		ldr	r0, .L46+20
 795 0154 FFF7FEFF 		bl	chSysHalt
 796              	.LVL82:
 797 0158 9FE7     		b	.L23
 798              	.LVL83:
ARM GAS  /var/folders/bw/wdbp2_bd0pn7gl5ybd33xbb80000gn/T//ccKW3IoE.s 			page 15


 799              	.L45:
 800              	.LBE186:
 801              	.LBE187:
 802              	.LBE189:
 803              	.LBE212:
 804              		.loc 1 79 0
 805 015a FFF7FEFF 		bl	__stack_chk_fail
 806              	.LVL84:
 807              	.L47:
 808 015e 00BF     		.align	2
 809              	.L46:
 810 0160 00000000 		.word	__stack_chk_guard
 811 0164 00408F40 		.word	1083129856
 812 0168 C3971B62 		.word	1645975491
 813 016c B5814E1B 		.word	458129845
 814 0170 00000000 		.word	ch
 815 0174 00000000 		.word	.LANCHOR0
 816 0178 D34D6210 		.word	274877907
 817              		.cfi_endproc
 818              	.LFE257:
 819              		.size	rotationAngle, .-rotationAngle
 820              		.section	.rodata.__func__.7153,"a",%progbits
 821              		.align	2
 822              		.set	.LANCHOR0,. + 0
 823              		.type	__func__.7153, %object
 824              		.size	__func__.7153, 12
 825              	__func__.7153:
 826 0000 63685379 		.ascii	"chSysUnlock\000"
 826      73556E6C 
 826      6F636B00 
 827              		.text
 828              	.Letext0:
 829              		.file 5 "/Applications/Eclipse_e-puck2.app/Contents/Eclipse_e-puck2/Tools/gcc-arm-none-eabi-7-2017
 830              		.file 6 "/Applications/Eclipse_e-puck2.app/Contents/Eclipse_e-puck2/Tools/gcc-arm-none-eabi-7-2017
 831              		.file 7 "/Applications/Eclipse_e-puck2.app/Contents/Eclipse_e-puck2/Tools/gcc-arm-none-eabi-7-2017
 832              		.file 8 "../../lib/e-puck2_main-processor/ChibiOS//os/rt/ports/ARMCMx/compilers/GCC/chtypes.h"
 833              		.file 9 "../../lib/e-puck2_main-processor/ChibiOS//os/rt/include/chsystypes.h"
 834              		.file 10 "../../lib/e-puck2_main-processor/ChibiOS//os/rt/include/chschd.h"
 835              		.file 11 "../../lib/e-puck2_main-processor/ChibiOS//os/ext/CMSIS/include/core_cm4.h"
 836              		.file 12 "../../lib/e-puck2_main-processor/ChibiOS//os/ext/CMSIS/ST/system_stm32f4xx.h"
 837              		.file 13 "../../lib/e-puck2_main-processor/ChibiOS//os/ext/CMSIS/ST/stm32f407xx.h"
 838              		.file 14 "../../lib/e-puck2_main-processor/ChibiOS//os/rt/ports/ARMCMx/chcore.h"
 839              		.file 15 "../../lib/e-puck2_main-processor/ChibiOS//os/rt/ports/ARMCMx/chcore_v7m.h"
 840              		.file 16 "../../lib/e-puck2_main-processor/ChibiOS//os/rt/include/chdebug.h"
 841              		.file 17 "../../lib/e-puck2_main-processor/ChibiOS//os/rt/include/chtm.h"
 842              		.file 18 "../../lib/e-puck2_main-processor/ChibiOS//os/rt/include/chstats.h"
 843              		.file 19 "../../lib/e-puck2_main-processor/ChibiOS//os/rt/include/chsem.h"
 844              		.file 20 "../../lib/e-puck2_main-processor/ChibiOS//os/rt/include/chmtx.h"
 845              		.file 21 "../../lib/e-puck2_main-processor/ChibiOS//os/rt/include/chregistry.h"
 846              		.file 22 "../../lib/e-puck2_main-processor/ChibiOS//os/rt/include/chevents.h"
 847              		.file 23 "../../lib/e-puck2_main-processor/ChibiOS//os/rt/include/chqueues.h"
 848              		.file 24 "../../lib/e-puck2_main-processor/ChibiOS//os/hal/ports/STM32/STM32F4xx/stm32_dma.h"
 849              		.file 25 "../../lib/e-puck2_main-processor/ChibiOS//os/hal/include/hal_ioblock.h"
 850              		.file 26 "../../lib/e-puck2_main-processor/ChibiOS//os/hal/ports/STM32/LLD/GPIOv2/pal_lld.h"
 851              		.file 27 "../../lib/e-puck2_main-processor/ChibiOS//os/hal/include/adc.h"
 852              		.file 28 "../../lib/e-puck2_main-processor/ChibiOS//os/hal/ports/STM32/STM32F4xx/adc_lld.h"
 853              		.file 29 "../../lib/e-puck2_main-processor/ChibiOS//os/hal/include/can.h"
ARM GAS  /var/folders/bw/wdbp2_bd0pn7gl5ybd33xbb80000gn/T//ccKW3IoE.s 			page 16


 854              		.file 30 "../../lib/e-puck2_main-processor/ChibiOS//os/hal/ports/STM32/LLD/can_lld.h"
 855              		.file 31 "../../lib/e-puck2_main-processor/ChibiOS//os/hal/include/dac.h"
 856              		.file 32 "../../lib/e-puck2_main-processor/ChibiOS//os/hal/ports/STM32/LLD/DACv1/dac_lld.h"
 857              		.file 33 "../../lib/e-puck2_main-processor/ChibiOS//os/hal/include/ext.h"
 858              		.file 34 "../../lib/e-puck2_main-processor/ChibiOS//os/hal/ports/STM32/LLD/ext_lld.h"
 859              		.file 35 "../../lib/e-puck2_main-processor/ChibiOS//os/hal/include/gpt.h"
 860              		.file 36 "../../lib/e-puck2_main-processor/ChibiOS//os/hal/ports/STM32/LLD/TIMv1/gpt_lld.h"
 861              		.file 37 "../../lib/e-puck2_main-processor/ChibiOS//os/hal/ports/STM32/LLD/TIMv1/stm32_tim.h"
 862              		.file 38 "../../lib/e-puck2_main-processor/ChibiOS//os/hal/include/i2c.h"
 863              		.file 39 "../../lib/e-puck2_main-processor/ChibiOS//os/hal/ports/STM32/LLD/I2Cv1/i2c_lld.h"
 864              		.file 40 "../../lib/e-puck2_main-processor/ChibiOS//os/hal/include/i2s.h"
 865              		.file 41 "../../lib/e-puck2_main-processor/ChibiOS//os/hal/ports/STM32/LLD/SPIv1/i2s_lld.h"
 866              		.file 42 "../../lib/e-puck2_main-processor/ChibiOS//os/hal/include/pwm.h"
 867              		.file 43 "../../lib/e-puck2_main-processor/ChibiOS//os/hal/ports/STM32/LLD/TIMv1/pwm_lld.h"
 868              		.file 44 "../../lib/e-puck2_main-processor/ChibiOS//os/hal/include/serial.h"
 869              		.file 45 "../../lib/e-puck2_main-processor/ChibiOS//os/hal/ports/STM32/LLD/USARTv1/serial_lld.h"
 870              		.file 46 "../../lib/e-puck2_main-processor/ChibiOS//os/hal/include/sdc.h"
 871              		.file 47 "../../lib/e-puck2_main-processor/ChibiOS//os/hal/ports/STM32/LLD/sdc_lld.h"
 872              		.file 48 "../../lib/e-puck2_main-processor/ChibiOS//os/hal/include/spi.h"
 873              		.file 49 "../../lib/e-puck2_main-processor/ChibiOS//os/hal/ports/STM32/LLD/SPIv1/spi_lld.h"
 874              		.file 50 "../../lib/e-puck2_main-processor/ChibiOS//os/hal/include/usb.h"
 875              		.file 51 "../../lib/e-puck2_main-processor/ChibiOS//os/hal/ports/STM32/LLD/OTGv1/usb_lld.h"
 876              		.file 52 "../../lib/e-puck2_main-processor/ChibiOS//os/hal/ports/STM32/LLD/OTGv1/stm32_otg.h"
 877              		.file 53 "/Applications/Eclipse_e-puck2.app/Contents/Eclipse_e-puck2/Tools/gcc-arm-none-eabi-7-201
 878              		.file 54 "/Applications/Eclipse_e-puck2.app/Contents/Eclipse_e-puck2/Tools/gcc-arm-none-eabi-7-201
 879              		.file 55 "/Applications/Eclipse_e-puck2.app/Contents/Eclipse_e-puck2/Tools/gcc-arm-none-eabi-7-201
 880              		.file 56 "/Applications/Eclipse_e-puck2.app/Contents/Eclipse_e-puck2/Tools/gcc-arm-none-eabi-7-201
 881              		.file 57 "../../lib/e-puck2_main-processor/ChibiOS_ext/os/hal/include/../ports/STM32/STM32F4xx/dcm
 882              		.file 58 "/Applications/Eclipse_e-puck2.app/Contents/Eclipse_e-puck2/Tools/gcc-arm-none-eabi-7-201
 883              		.file 59 "../../lib/e-puck2_main-processor/src/msgbus/messagebus.h"
 884              		.file 60 "/Applications/Eclipse_e-puck2.app/Contents/Eclipse_e-puck2/Tools/gcc-arm-none-eabi-7-201
 885              		.file 61 "../../lib/e-puck2_main-processor/src/parameter/parameter.h"
 886              		.file 62 "./main.h"
 887              		.file 63 "../../lib/e-puck2_main-processor/src/motors.h"